ARM GAS  C:\Users\38164\AppData\Local\Temp\ccqRiAWJ.s 			page 1


   1              		.cpu cortex-m3
   2              		.eabi_attribute 20, 1
   3              		.eabi_attribute 21, 1
   4              		.eabi_attribute 23, 3
   5              		.eabi_attribute 24, 1
   6              		.eabi_attribute 25, 1
   7              		.eabi_attribute 26, 1
   8              		.eabi_attribute 30, 1
   9              		.eabi_attribute 34, 1
  10              		.eabi_attribute 18, 4
  11              		.file	"stm32f1xx_hal_uart.c"
  12              		.text
  13              	.Ltext0:
  14              		.cfi_sections	.debug_frame
  15              		.section	.text.UART_EndTxTransfer,"ax",%progbits
  16              		.align	1
  17              		.arch armv7-m
  18              		.syntax unified
  19              		.thumb
  20              		.thumb_func
  21              		.fpu softvfp
  23              	UART_EndTxTransfer:
  24              	.LVL0:
  25              	.LFB109:
  26              		.file 1 "../Drivers/STM32F1xx_HAL_Driver/Src/stm32f1xx_hal_uart.c"
   1:../Drivers/STM32F1xx_HAL_Driver/Src/stm32f1xx_hal_uart.c **** 
  27              		.loc 1 2725 1 view -0
  28              		.cfi_startproc
  29              		@ args = 0, pretend = 0, frame = 0
  30              		@ frame_needed = 0, uses_anonymous_args = 0
  31              		@ link register save eliminated.
  32              		.loc 1 2727 3 view .LVU1
  33 0000 0268     		ldr	r2, [r0]
  34 0002 D368     		ldr	r3, [r2, #12]
  35 0004 23F0C003 		bic	r3, r3, #192
  36 0008 D360     		str	r3, [r2, #12]
  37              		.loc 1 2730 3 view .LVU2
  38              		.loc 1 2730 17 is_stmt 0 view .LVU3
  39 000a 2023     		movs	r3, #32
  40 000c 80F83930 		strb	r3, [r0, #57]
  41              		.loc 1 2731 1 view .LVU4
  42 0010 7047     		bx	lr
  43              		.cfi_endproc
  44              	.LFE109:
  46              		.section	.text.UART_EndRxTransfer,"ax",%progbits
  47              		.align	1
  48              		.syntax unified
  49              		.thumb
  50              		.thumb_func
  51              		.fpu softvfp
  53              	UART_EndRxTransfer:
  54              	.LVL1:
  55              	.LFB110:
  56              		.loc 1 2739 1 is_stmt 1 view -0
  57              		.cfi_startproc
  58              		@ args = 0, pretend = 0, frame = 0
  59              		@ frame_needed = 0, uses_anonymous_args = 0
ARM GAS  C:\Users\38164\AppData\Local\Temp\ccqRiAWJ.s 			page 2


  60              		@ link register save eliminated.
  61              		.loc 1 2741 3 view .LVU6
  62 0000 0268     		ldr	r2, [r0]
  63 0002 D368     		ldr	r3, [r2, #12]
  64 0004 23F49073 		bic	r3, r3, #288
  65 0008 D360     		str	r3, [r2, #12]
  66              		.loc 1 2742 3 view .LVU7
  67 000a 0268     		ldr	r2, [r0]
  68 000c 5369     		ldr	r3, [r2, #20]
  69 000e 23F00103 		bic	r3, r3, #1
  70 0012 5361     		str	r3, [r2, #20]
  71              		.loc 1 2745 3 view .LVU8
  72              		.loc 1 2745 18 is_stmt 0 view .LVU9
  73 0014 2023     		movs	r3, #32
  74 0016 80F83A30 		strb	r3, [r0, #58]
  75              		.loc 1 2746 1 view .LVU10
  76 001a 7047     		bx	lr
  77              		.cfi_endproc
  78              	.LFE110:
  80              		.section	.text.UART_Transmit_IT,"ax",%progbits
  81              		.align	1
  82              		.syntax unified
  83              		.thumb
  84              		.thumb_func
  85              		.fpu softvfp
  87              	UART_Transmit_IT:
  88              	.LVL2:
  89              	.LFB116:
  90              		.loc 1 2923 1 is_stmt 1 view -0
  91              		.cfi_startproc
  92              		@ args = 0, pretend = 0, frame = 0
  93              		@ frame_needed = 0, uses_anonymous_args = 0
  94              		@ link register save eliminated.
  95              		.loc 1 2924 3 view .LVU12
  96              		.loc 1 2927 3 view .LVU13
  97              		.loc 1 2927 12 is_stmt 0 view .LVU14
  98 0000 90F83930 		ldrb	r3, [r0, #57]	@ zero_extendqisi2
  99 0004 DBB2     		uxtb	r3, r3
 100              		.loc 1 2927 6 view .LVU15
 101 0006 212B     		cmp	r3, #33
 102 0008 01D0     		beq	.L9
 103              		.loc 1 2952 12 view .LVU16
 104 000a 0220     		movs	r0, #2
 105              	.LVL3:
 106              		.loc 1 2954 1 view .LVU17
 107 000c 7047     		bx	lr
 108              	.LVL4:
 109              	.L9:
 110              		.loc 1 2929 5 is_stmt 1 view .LVU18
 111              		.loc 1 2929 21 is_stmt 0 view .LVU19
 112 000e 8368     		ldr	r3, [r0, #8]
 113              		.loc 1 2929 8 view .LVU20
 114 0010 B3F5805F 		cmp	r3, #4096
 115 0014 17D0     		beq	.L10
 116              	.L5:
 117              		.loc 1 2937 7 is_stmt 1 view .LVU21
 118              		.loc 1 2937 45 is_stmt 0 view .LVU22
ARM GAS  C:\Users\38164\AppData\Local\Temp\ccqRiAWJ.s 			page 3


 119 0016 036A     		ldr	r3, [r0, #32]
 120              		.loc 1 2937 57 view .LVU23
 121 0018 5A1C     		adds	r2, r3, #1
 122 001a 0262     		str	r2, [r0, #32]
 123              		.loc 1 2937 39 view .LVU24
 124 001c 1A78     		ldrb	r2, [r3]	@ zero_extendqisi2
 125              		.loc 1 2937 12 view .LVU25
 126 001e 0368     		ldr	r3, [r0]
 127              		.loc 1 2937 27 view .LVU26
 128 0020 5A60     		str	r2, [r3, #4]
 129              	.L6:
 130              		.loc 1 2940 5 is_stmt 1 view .LVU27
 131              		.loc 1 2940 16 is_stmt 0 view .LVU28
 132 0022 C38C     		ldrh	r3, [r0, #38]
 133 0024 9BB2     		uxth	r3, r3
 134              		.loc 1 2940 9 view .LVU29
 135 0026 013B     		subs	r3, r3, #1
 136 0028 9BB2     		uxth	r3, r3
 137              		.loc 1 2940 8 view .LVU30
 138 002a C384     		strh	r3, [r0, #38]	@ movhi
 139 002c 4BB9     		cbnz	r3, .L7
 140              		.loc 1 2943 7 is_stmt 1 view .LVU31
 141 002e 0268     		ldr	r2, [r0]
 142 0030 D368     		ldr	r3, [r2, #12]
 143 0032 23F08003 		bic	r3, r3, #128
 144 0036 D360     		str	r3, [r2, #12]
 145              		.loc 1 2946 7 view .LVU32
 146 0038 0268     		ldr	r2, [r0]
 147 003a D368     		ldr	r3, [r2, #12]
 148 003c 43F04003 		orr	r3, r3, #64
 149 0040 D360     		str	r3, [r2, #12]
 150              	.L7:
 151              		.loc 1 2948 5 view .LVU33
 152              		.loc 1 2948 12 is_stmt 0 view .LVU34
 153 0042 0020     		movs	r0, #0
 154              	.LVL5:
 155              		.loc 1 2948 12 view .LVU35
 156 0044 7047     		bx	lr
 157              	.LVL6:
 158              	.L10:
 159              		.loc 1 2929 71 discriminator 1 view .LVU36
 160 0046 0369     		ldr	r3, [r0, #16]
 161              		.loc 1 2929 56 discriminator 1 view .LVU37
 162 0048 002B     		cmp	r3, #0
 163 004a E4D1     		bne	.L5
 164              		.loc 1 2931 7 is_stmt 1 view .LVU38
 165              		.loc 1 2931 11 is_stmt 0 view .LVU39
 166 004c 036A     		ldr	r3, [r0, #32]
 167              	.LVL7:
 168              		.loc 1 2932 7 is_stmt 1 view .LVU40
 169              		.loc 1 2932 40 is_stmt 0 view .LVU41
 170 004e 1B88     		ldrh	r3, [r3]
 171              	.LVL8:
 172              		.loc 1 2932 12 view .LVU42
 173 0050 0268     		ldr	r2, [r0]
 174              		.loc 1 2932 29 view .LVU43
 175 0052 C3F30803 		ubfx	r3, r3, #0, #9
ARM GAS  C:\Users\38164\AppData\Local\Temp\ccqRiAWJ.s 			page 4


 176              		.loc 1 2932 27 view .LVU44
 177 0056 5360     		str	r3, [r2, #4]
 178              	.LVL9:
 179              		.loc 1 2933 7 is_stmt 1 view .LVU45
 180              		.loc 1 2933 25 is_stmt 0 view .LVU46
 181 0058 036A     		ldr	r3, [r0, #32]
 182 005a 0233     		adds	r3, r3, #2
 183 005c 0362     		str	r3, [r0, #32]
 184 005e E0E7     		b	.L6
 185              		.cfi_endproc
 186              	.LFE116:
 188              		.section	.text.UART_SetConfig,"ax",%progbits
 189              		.align	1
 190              		.syntax unified
 191              		.thumb
 192              		.thumb_func
 193              		.fpu softvfp
 195              	UART_SetConfig:
 196              	.LVL10:
 197              	.LFB119:
 198              		.loc 1 3057 1 is_stmt 1 view -0
 199              		.cfi_startproc
 200              		@ args = 0, pretend = 0, frame = 0
 201              		@ frame_needed = 0, uses_anonymous_args = 0
 202              		.loc 1 3057 1 is_stmt 0 view .LVU48
 203 0000 10B5     		push	{r4, lr}
 204              	.LCFI0:
 205              		.cfi_def_cfa_offset 8
 206              		.cfi_offset 4, -8
 207              		.cfi_offset 14, -4
 208 0002 0446     		mov	r4, r0
 209              		.loc 1 3058 3 is_stmt 1 view .LVU49
 210              		.loc 1 3059 3 view .LVU50
 211              		.loc 1 3062 3 view .LVU51
 212              		.loc 1 3063 3 view .LVU52
 213              		.loc 1 3064 3 view .LVU53
 214              		.loc 1 3065 3 view .LVU54
 215              		.loc 1 3070 3 view .LVU55
 216 0004 0268     		ldr	r2, [r0]
 217 0006 1369     		ldr	r3, [r2, #16]
 218 0008 23F44053 		bic	r3, r3, #12288
 219 000c C168     		ldr	r1, [r0, #12]
 220 000e 0B43     		orrs	r3, r3, r1
 221 0010 1361     		str	r3, [r2, #16]
 222              		.loc 1 3085 3 view .LVU56
 223              		.loc 1 3085 33 is_stmt 0 view .LVU57
 224 0012 8368     		ldr	r3, [r0, #8]
 225              		.loc 1 3085 58 view .LVU58
 226 0014 0269     		ldr	r2, [r0, #16]
 227              		.loc 1 3085 45 view .LVU59
 228 0016 1343     		orrs	r3, r3, r2
 229              		.loc 1 3085 79 view .LVU60
 230 0018 4269     		ldr	r2, [r0, #20]
 231              		.loc 1 3085 10 view .LVU61
 232 001a 1A43     		orrs	r2, r2, r3
 233              	.LVL11:
 234              		.loc 1 3086 3 is_stmt 1 view .LVU62
ARM GAS  C:\Users\38164\AppData\Local\Temp\ccqRiAWJ.s 			page 5


 235 001c 0168     		ldr	r1, [r0]
 236 001e CB68     		ldr	r3, [r1, #12]
 237 0020 23F4B053 		bic	r3, r3, #5632
 238 0024 23F00C03 		bic	r3, r3, #12
 239 0028 1343     		orrs	r3, r3, r2
 240 002a CB60     		str	r3, [r1, #12]
 241              		.loc 1 3093 3 view .LVU63
 242 002c 0268     		ldr	r2, [r0]
 243              	.LVL12:
 244              		.loc 1 3093 3 is_stmt 0 view .LVU64
 245 002e 5369     		ldr	r3, [r2, #20]
 246 0030 23F44073 		bic	r3, r3, #768
 247 0034 8169     		ldr	r1, [r0, #24]
 248 0036 0B43     		orrs	r3, r3, r1
 249 0038 5361     		str	r3, [r2, #20]
 250              		.loc 1 3096 3 is_stmt 1 view .LVU65
 251              		.loc 1 3096 11 is_stmt 0 view .LVU66
 252 003a 0268     		ldr	r2, [r0]
 253              		.loc 1 3096 5 view .LVU67
 254 003c 124B     		ldr	r3, .L16
 255 003e 9A42     		cmp	r2, r3
 256 0040 1FD0     		beq	.L15
 257              		.loc 1 3102 5 is_stmt 1 view .LVU68
 258              		.loc 1 3102 12 is_stmt 0 view .LVU69
 259 0042 124B     		ldr	r3, .L16+4
 260 0044 9847     		blx	r3
 261              	.LVL13:
 262              	.L13:
 263              		.loc 1 3116 3 is_stmt 1 view .LVU70
 264              		.loc 1 3116 26 is_stmt 0 view .LVU71
 265 0046 00EB8003 		add	r3, r0, r0, lsl #2
 266 004a 03EB8303 		add	r3, r3, r3, lsl #2
 267 004e 6268     		ldr	r2, [r4, #4]
 268 0050 9200     		lsls	r2, r2, #2
 269 0052 B3FBF2F2 		udiv	r2, r3, r2
 270 0056 0E48     		ldr	r0, .L16+8
 271              	.LVL14:
 272              		.loc 1 3116 26 view .LVU72
 273 0058 A0FB0231 		umull	r3, r1, r0, r2
 274 005c 4909     		lsrs	r1, r1, #5
 275 005e 6423     		movs	r3, #100
 276 0060 03FB1123 		mls	r3, r3, r1, r2
 277 0064 1B01     		lsls	r3, r3, #4
 278 0066 3233     		adds	r3, r3, #50
 279 0068 A0FB0323 		umull	r2, r3, r0, r3
 280 006c 5B09     		lsrs	r3, r3, #5
 281 006e 03F0F002 		and	r2, r3, #240
 282 0072 02EB0112 		add	r2, r2, r1, lsl #4
 283 0076 03F00F03 		and	r3, r3, #15
 284              		.loc 1 3116 8 view .LVU73
 285 007a 2168     		ldr	r1, [r4]
 286              		.loc 1 3116 26 view .LVU74
 287 007c 1344     		add	r3, r3, r2
 288              		.loc 1 3116 24 view .LVU75
 289 007e 8B60     		str	r3, [r1, #8]
 290              		.loc 1 3118 1 view .LVU76
 291 0080 10BD     		pop	{r4, pc}
ARM GAS  C:\Users\38164\AppData\Local\Temp\ccqRiAWJ.s 			page 6


 292              	.LVL15:
 293              	.L15:
 294              		.loc 1 3098 5 is_stmt 1 view .LVU77
 295              		.loc 1 3098 12 is_stmt 0 view .LVU78
 296 0082 044B     		ldr	r3, .L16+12
 297 0084 9847     		blx	r3
 298              	.LVL16:
 299              		.loc 1 3098 12 view .LVU79
 300 0086 DEE7     		b	.L13
 301              	.L17:
 302              		.align	2
 303              	.L16:
 304 0088 00380140 		.word	1073821696
 305 008c 00000000 		.word	HAL_RCC_GetPCLK1Freq
 306 0090 1F85EB51 		.word	1374389535
 307 0094 00000000 		.word	HAL_RCC_GetPCLK2Freq
 308              		.cfi_endproc
 309              	.LFE119:
 311              		.section	.text.UART_WaitOnFlagUntilTimeout,"ax",%progbits
 312              		.align	1
 313              		.syntax unified
 314              		.thumb
 315              		.thumb_func
 316              		.fpu softvfp
 318              	UART_WaitOnFlagUntilTimeout:
 319              	.LVL17:
 320              	.LFB108:
 321              		.loc 1 2693 1 is_stmt 1 view -0
 322              		.cfi_startproc
 323              		@ args = 4, pretend = 0, frame = 0
 324              		@ frame_needed = 0, uses_anonymous_args = 0
 325              		.loc 1 2693 1 is_stmt 0 view .LVU81
 326 0000 2DE9F843 		push	{r3, r4, r5, r6, r7, r8, r9, lr}
 327              	.LCFI1:
 328              		.cfi_def_cfa_offset 32
 329              		.cfi_offset 3, -32
 330              		.cfi_offset 4, -28
 331              		.cfi_offset 5, -24
 332              		.cfi_offset 6, -20
 333              		.cfi_offset 7, -16
 334              		.cfi_offset 8, -12
 335              		.cfi_offset 9, -8
 336              		.cfi_offset 14, -4
 337 0004 0546     		mov	r5, r0
 338 0006 0F46     		mov	r7, r1
 339 0008 1646     		mov	r6, r2
 340 000a 9946     		mov	r9, r3
 341 000c DDF82080 		ldr	r8, [sp, #32]
 342              		.loc 1 2695 3 is_stmt 1 view .LVU82
 343              	.LVL18:
 344              	.L20:
 345              		.loc 1 2695 9 view .LVU83
 346              		.loc 1 2695 11 is_stmt 0 view .LVU84
 347 0010 2C68     		ldr	r4, [r5]
 348 0012 2468     		ldr	r4, [r4]
 349              		.loc 1 2695 50 view .LVU85
 350 0014 37EA0403 		bics	r3, r7, r4
ARM GAS  C:\Users\38164\AppData\Local\Temp\ccqRiAWJ.s 			page 7


 351 0018 0CBF     		ite	eq
 352 001a 0124     		moveq	r4, #1
 353 001c 0024     		movne	r4, #0
 354              		.loc 1 2695 9 view .LVU86
 355 001e B442     		cmp	r4, r6
 356 0020 1FD1     		bne	.L25
 357              		.loc 1 2698 5 is_stmt 1 view .LVU87
 358              		.loc 1 2698 8 is_stmt 0 view .LVU88
 359 0022 B8F1FF3F 		cmp	r8, #-1
 360 0026 F3D0     		beq	.L20
 361              		.loc 1 2700 7 is_stmt 1 view .LVU89
 362              		.loc 1 2700 10 is_stmt 0 view .LVU90
 363 0028 B8F1000F 		cmp	r8, #0
 364 002c 05D0     		beq	.L21
 365              		.loc 1 2700 32 discriminator 1 view .LVU91
 366 002e 0E4B     		ldr	r3, .L26
 367 0030 9847     		blx	r3
 368              	.LVL19:
 369              		.loc 1 2700 46 discriminator 1 view .LVU92
 370 0032 A0EB0900 		sub	r0, r0, r9
 371              		.loc 1 2700 27 discriminator 1 view .LVU93
 372 0036 4045     		cmp	r0, r8
 373 0038 EAD9     		bls	.L20
 374              	.L21:
 375              		.loc 1 2703 9 is_stmt 1 view .LVU94
 376 003a 2A68     		ldr	r2, [r5]
 377 003c D368     		ldr	r3, [r2, #12]
 378 003e 23F4D073 		bic	r3, r3, #416
 379 0042 D360     		str	r3, [r2, #12]
 380              		.loc 1 2704 9 view .LVU95
 381 0044 2A68     		ldr	r2, [r5]
 382 0046 5369     		ldr	r3, [r2, #20]
 383 0048 23F00103 		bic	r3, r3, #1
 384 004c 5361     		str	r3, [r2, #20]
 385              		.loc 1 2706 9 view .LVU96
 386              		.loc 1 2706 24 is_stmt 0 view .LVU97
 387 004e 2023     		movs	r3, #32
 388 0050 85F83930 		strb	r3, [r5, #57]
 389              		.loc 1 2707 9 is_stmt 1 view .LVU98
 390              		.loc 1 2707 24 is_stmt 0 view .LVU99
 391 0054 85F83A30 		strb	r3, [r5, #58]
 392              		.loc 1 2710 9 is_stmt 1 view .LVU100
 393              		.loc 1 2710 9 view .LVU101
 394 0058 0023     		movs	r3, #0
 395 005a 85F83830 		strb	r3, [r5, #56]
 396              		.loc 1 2710 9 view .LVU102
 397              		.loc 1 2712 9 view .LVU103
 398              		.loc 1 2712 16 is_stmt 0 view .LVU104
 399 005e 0320     		movs	r0, #3
 400 0060 00E0     		b	.L22
 401              	.L25:
 402              		.loc 1 2716 10 view .LVU105
 403 0062 0020     		movs	r0, #0
 404              	.L22:
 405              		.loc 1 2717 1 view .LVU106
 406 0064 BDE8F883 		pop	{r3, r4, r5, r6, r7, r8, r9, pc}
 407              	.LVL20:
ARM GAS  C:\Users\38164\AppData\Local\Temp\ccqRiAWJ.s 			page 8


 408              	.L27:
 409              		.loc 1 2717 1 view .LVU107
 410              		.align	2
 411              	.L26:
 412 0068 00000000 		.word	HAL_GetTick
 413              		.cfi_endproc
 414              	.LFE108:
 416              		.section	.text.HAL_UART_MspInit,"ax",%progbits
 417              		.align	1
 418              		.weak	HAL_UART_MspInit
 419              		.syntax unified
 420              		.thumb
 421              		.thumb_func
 422              		.fpu softvfp
 424              	HAL_UART_MspInit:
 425              	.LVL21:
 426              	.LFB70:
 427              		.loc 1 673 1 is_stmt 1 view -0
 428              		.cfi_startproc
 429              		@ args = 0, pretend = 0, frame = 0
 430              		@ frame_needed = 0, uses_anonymous_args = 0
 431              		@ link register save eliminated.
 432              		.loc 1 675 3 view .LVU109
 433              		.loc 1 679 1 is_stmt 0 view .LVU110
 434 0000 7047     		bx	lr
 435              		.cfi_endproc
 436              	.LFE70:
 438              		.section	.text.HAL_UART_Init,"ax",%progbits
 439              		.align	1
 440              		.global	HAL_UART_Init
 441              		.syntax unified
 442              		.thumb
 443              		.thumb_func
 444              		.fpu softvfp
 446              	HAL_UART_Init:
 447              	.LVL22:
 448              	.LFB65:
 449              		.loc 1 315 1 is_stmt 1 view -0
 450              		.cfi_startproc
 451              		@ args = 0, pretend = 0, frame = 0
 452              		@ frame_needed = 0, uses_anonymous_args = 0
 453              		.loc 1 317 3 view .LVU112
 454              		.loc 1 317 6 is_stmt 0 view .LVU113
 455 0000 58B3     		cbz	r0, .L32
 456              		.loc 1 315 1 view .LVU114
 457 0002 10B5     		push	{r4, lr}
 458              	.LCFI2:
 459              		.cfi_def_cfa_offset 8
 460              		.cfi_offset 4, -8
 461              		.cfi_offset 14, -4
 462 0004 0446     		mov	r4, r0
 463              		.loc 1 323 3 is_stmt 1 view .LVU115
 464              		.loc 1 331 5 view .LVU116
 465              		.loc 1 333 3 view .LVU117
 466              		.loc 1 338 3 view .LVU118
 467              		.loc 1 338 12 is_stmt 0 view .LVU119
 468 0006 90F83930 		ldrb	r3, [r0, #57]	@ zero_extendqisi2
ARM GAS  C:\Users\38164\AppData\Local\Temp\ccqRiAWJ.s 			page 9


 469              		.loc 1 338 6 view .LVU120
 470 000a 0BB3     		cbz	r3, .L37
 471              	.LVL23:
 472              	.L31:
 473              		.loc 1 359 3 is_stmt 1 view .LVU121
 474              		.loc 1 359 17 is_stmt 0 view .LVU122
 475 000c 2423     		movs	r3, #36
 476 000e 84F83930 		strb	r3, [r4, #57]
 477              		.loc 1 362 3 is_stmt 1 view .LVU123
 478 0012 2268     		ldr	r2, [r4]
 479 0014 D368     		ldr	r3, [r2, #12]
 480 0016 23F40053 		bic	r3, r3, #8192
 481 001a D360     		str	r3, [r2, #12]
 482              		.loc 1 365 3 view .LVU124
 483 001c 2046     		mov	r0, r4
 484 001e 104B     		ldr	r3, .L38
 485 0020 9847     		blx	r3
 486              	.LVL24:
 487              		.loc 1 370 3 view .LVU125
 488 0022 2268     		ldr	r2, [r4]
 489 0024 1369     		ldr	r3, [r2, #16]
 490 0026 23F49043 		bic	r3, r3, #18432
 491 002a 1361     		str	r3, [r2, #16]
 492              		.loc 1 371 3 view .LVU126
 493 002c 2268     		ldr	r2, [r4]
 494 002e 5369     		ldr	r3, [r2, #20]
 495 0030 23F02A03 		bic	r3, r3, #42
 496 0034 5361     		str	r3, [r2, #20]
 497              		.loc 1 374 3 view .LVU127
 498 0036 2268     		ldr	r2, [r4]
 499 0038 D368     		ldr	r3, [r2, #12]
 500 003a 43F40053 		orr	r3, r3, #8192
 501 003e D360     		str	r3, [r2, #12]
 502              		.loc 1 377 3 view .LVU128
 503              		.loc 1 377 20 is_stmt 0 view .LVU129
 504 0040 0020     		movs	r0, #0
 505 0042 E063     		str	r0, [r4, #60]
 506              		.loc 1 378 3 is_stmt 1 view .LVU130
 507              		.loc 1 378 17 is_stmt 0 view .LVU131
 508 0044 2023     		movs	r3, #32
 509 0046 84F83930 		strb	r3, [r4, #57]
 510              		.loc 1 379 3 is_stmt 1 view .LVU132
 511              		.loc 1 379 18 is_stmt 0 view .LVU133
 512 004a 84F83A30 		strb	r3, [r4, #58]
 513              		.loc 1 381 3 is_stmt 1 view .LVU134
 514              		.loc 1 382 1 is_stmt 0 view .LVU135
 515 004e 10BD     		pop	{r4, pc}
 516              	.LVL25:
 517              	.L37:
 518              		.loc 1 341 5 is_stmt 1 view .LVU136
 519              		.loc 1 341 17 is_stmt 0 view .LVU137
 520 0050 80F83830 		strb	r3, [r0, #56]
 521              		.loc 1 355 5 is_stmt 1 view .LVU138
 522 0054 034B     		ldr	r3, .L38+4
 523 0056 9847     		blx	r3
 524              	.LVL26:
 525              		.loc 1 355 5 is_stmt 0 view .LVU139
ARM GAS  C:\Users\38164\AppData\Local\Temp\ccqRiAWJ.s 			page 10


 526 0058 D8E7     		b	.L31
 527              	.LVL27:
 528              	.L32:
 529              	.LCFI3:
 530              		.cfi_def_cfa_offset 0
 531              		.cfi_restore 4
 532              		.cfi_restore 14
 533              		.loc 1 319 12 view .LVU140
 534 005a 0120     		movs	r0, #1
 535              	.LVL28:
 536              		.loc 1 382 1 view .LVU141
 537 005c 7047     		bx	lr
 538              	.L39:
 539 005e 00BF     		.align	2
 540              	.L38:
 541 0060 00000000 		.word	UART_SetConfig
 542 0064 00000000 		.word	HAL_UART_MspInit
 543              		.cfi_endproc
 544              	.LFE65:
 546              		.section	.text.HAL_HalfDuplex_Init,"ax",%progbits
 547              		.align	1
 548              		.global	HAL_HalfDuplex_Init
 549              		.syntax unified
 550              		.thumb
 551              		.thumb_func
 552              		.fpu softvfp
 554              	HAL_HalfDuplex_Init:
 555              	.LVL29:
 556              	.LFB66:
 557              		.loc 1 392 1 is_stmt 1 view -0
 558              		.cfi_startproc
 559              		@ args = 0, pretend = 0, frame = 0
 560              		@ frame_needed = 0, uses_anonymous_args = 0
 561              		.loc 1 394 3 view .LVU143
 562              		.loc 1 394 6 is_stmt 0 view .LVU144
 563 0000 0028     		cmp	r0, #0
 564 0002 30D0     		beq	.L43
 565              		.loc 1 392 1 view .LVU145
 566 0004 10B5     		push	{r4, lr}
 567              	.LCFI4:
 568              		.cfi_def_cfa_offset 8
 569              		.cfi_offset 4, -8
 570              		.cfi_offset 14, -4
 571 0006 0446     		mov	r4, r0
 572              		.loc 1 400 3 is_stmt 1 view .LVU146
 573              		.loc 1 401 3 view .LVU147
 574              		.loc 1 406 3 view .LVU148
 575              		.loc 1 406 12 is_stmt 0 view .LVU149
 576 0008 90F83930 		ldrb	r3, [r0, #57]	@ zero_extendqisi2
 577              		.loc 1 406 6 view .LVU150
 578 000c 33B3     		cbz	r3, .L48
 579              	.LVL30:
 580              	.L42:
 581              		.loc 1 427 3 is_stmt 1 view .LVU151
 582              		.loc 1 427 17 is_stmt 0 view .LVU152
 583 000e 2423     		movs	r3, #36
 584 0010 84F83930 		strb	r3, [r4, #57]
ARM GAS  C:\Users\38164\AppData\Local\Temp\ccqRiAWJ.s 			page 11


 585              		.loc 1 430 3 is_stmt 1 view .LVU153
 586 0014 2268     		ldr	r2, [r4]
 587 0016 D368     		ldr	r3, [r2, #12]
 588 0018 23F40053 		bic	r3, r3, #8192
 589 001c D360     		str	r3, [r2, #12]
 590              		.loc 1 433 3 view .LVU154
 591 001e 2046     		mov	r0, r4
 592 0020 124B     		ldr	r3, .L49
 593 0022 9847     		blx	r3
 594              	.LVL31:
 595              		.loc 1 438 3 view .LVU155
 596 0024 2268     		ldr	r2, [r4]
 597 0026 1369     		ldr	r3, [r2, #16]
 598 0028 23F49043 		bic	r3, r3, #18432
 599 002c 1361     		str	r3, [r2, #16]
 600              		.loc 1 439 3 view .LVU156
 601 002e 2268     		ldr	r2, [r4]
 602 0030 5369     		ldr	r3, [r2, #20]
 603 0032 23F02203 		bic	r3, r3, #34
 604 0036 5361     		str	r3, [r2, #20]
 605              		.loc 1 442 3 view .LVU157
 606 0038 2268     		ldr	r2, [r4]
 607 003a 5369     		ldr	r3, [r2, #20]
 608 003c 43F00803 		orr	r3, r3, #8
 609 0040 5361     		str	r3, [r2, #20]
 610              		.loc 1 445 3 view .LVU158
 611 0042 2268     		ldr	r2, [r4]
 612 0044 D368     		ldr	r3, [r2, #12]
 613 0046 43F40053 		orr	r3, r3, #8192
 614 004a D360     		str	r3, [r2, #12]
 615              		.loc 1 448 3 view .LVU159
 616              		.loc 1 448 20 is_stmt 0 view .LVU160
 617 004c 0020     		movs	r0, #0
 618 004e E063     		str	r0, [r4, #60]
 619              		.loc 1 449 3 is_stmt 1 view .LVU161
 620              		.loc 1 449 17 is_stmt 0 view .LVU162
 621 0050 2023     		movs	r3, #32
 622 0052 84F83930 		strb	r3, [r4, #57]
 623              		.loc 1 450 3 is_stmt 1 view .LVU163
 624              		.loc 1 450 18 is_stmt 0 view .LVU164
 625 0056 84F83A30 		strb	r3, [r4, #58]
 626              		.loc 1 452 3 is_stmt 1 view .LVU165
 627              		.loc 1 453 1 is_stmt 0 view .LVU166
 628 005a 10BD     		pop	{r4, pc}
 629              	.LVL32:
 630              	.L48:
 631              		.loc 1 409 5 is_stmt 1 view .LVU167
 632              		.loc 1 409 17 is_stmt 0 view .LVU168
 633 005c 80F83830 		strb	r3, [r0, #56]
 634              		.loc 1 423 5 is_stmt 1 view .LVU169
 635 0060 034B     		ldr	r3, .L49+4
 636 0062 9847     		blx	r3
 637              	.LVL33:
 638              		.loc 1 423 5 is_stmt 0 view .LVU170
 639 0064 D3E7     		b	.L42
 640              	.LVL34:
 641              	.L43:
ARM GAS  C:\Users\38164\AppData\Local\Temp\ccqRiAWJ.s 			page 12


 642              	.LCFI5:
 643              		.cfi_def_cfa_offset 0
 644              		.cfi_restore 4
 645              		.cfi_restore 14
 646              		.loc 1 396 12 view .LVU171
 647 0066 0120     		movs	r0, #1
 648              	.LVL35:
 649              		.loc 1 453 1 view .LVU172
 650 0068 7047     		bx	lr
 651              	.L50:
 652 006a 00BF     		.align	2
 653              	.L49:
 654 006c 00000000 		.word	UART_SetConfig
 655 0070 00000000 		.word	HAL_UART_MspInit
 656              		.cfi_endproc
 657              	.LFE66:
 659              		.section	.text.HAL_LIN_Init,"ax",%progbits
 660              		.align	1
 661              		.global	HAL_LIN_Init
 662              		.syntax unified
 663              		.thumb
 664              		.thumb_func
 665              		.fpu softvfp
 667              	HAL_LIN_Init:
 668              	.LVL36:
 669              	.LFB67:
 670              		.loc 1 467 1 is_stmt 1 view -0
 671              		.cfi_startproc
 672              		@ args = 0, pretend = 0, frame = 0
 673              		@ frame_needed = 0, uses_anonymous_args = 0
 674              		.loc 1 469 3 view .LVU174
 675              		.loc 1 469 6 is_stmt 0 view .LVU175
 676 0000 0028     		cmp	r0, #0
 677 0002 3BD0     		beq	.L54
 678              		.loc 1 467 1 view .LVU176
 679 0004 38B5     		push	{r3, r4, r5, lr}
 680              	.LCFI6:
 681              		.cfi_def_cfa_offset 16
 682              		.cfi_offset 3, -16
 683              		.cfi_offset 4, -12
 684              		.cfi_offset 5, -8
 685              		.cfi_offset 14, -4
 686 0006 0D46     		mov	r5, r1
 687 0008 0446     		mov	r4, r0
 688              		.loc 1 475 3 is_stmt 1 view .LVU177
 689              		.loc 1 478 3 view .LVU178
 690              		.loc 1 479 3 view .LVU179
 691              		.loc 1 484 3 view .LVU180
 692              		.loc 1 484 12 is_stmt 0 view .LVU181
 693 000a 90F83930 		ldrb	r3, [r0, #57]	@ zero_extendqisi2
 694              		.loc 1 484 6 view .LVU182
 695 000e 002B     		cmp	r3, #0
 696 0010 2FD0     		beq	.L59
 697              	.LVL37:
 698              	.L53:
 699              		.loc 1 505 3 is_stmt 1 view .LVU183
 700              		.loc 1 505 17 is_stmt 0 view .LVU184
ARM GAS  C:\Users\38164\AppData\Local\Temp\ccqRiAWJ.s 			page 13


 701 0012 2423     		movs	r3, #36
 702 0014 84F83930 		strb	r3, [r4, #57]
 703              		.loc 1 508 3 is_stmt 1 view .LVU185
 704 0018 2268     		ldr	r2, [r4]
 705 001a D368     		ldr	r3, [r2, #12]
 706 001c 23F40053 		bic	r3, r3, #8192
 707 0020 D360     		str	r3, [r2, #12]
 708              		.loc 1 511 3 view .LVU186
 709 0022 2046     		mov	r0, r4
 710 0024 164B     		ldr	r3, .L60
 711 0026 9847     		blx	r3
 712              	.LVL38:
 713              		.loc 1 516 3 view .LVU187
 714 0028 2268     		ldr	r2, [r4]
 715 002a 1369     		ldr	r3, [r2, #16]
 716 002c 23F40063 		bic	r3, r3, #2048
 717 0030 1361     		str	r3, [r2, #16]
 718              		.loc 1 517 3 view .LVU188
 719 0032 2268     		ldr	r2, [r4]
 720 0034 5369     		ldr	r3, [r2, #20]
 721 0036 23F02A03 		bic	r3, r3, #42
 722 003a 5361     		str	r3, [r2, #20]
 723              		.loc 1 520 3 view .LVU189
 724 003c 2268     		ldr	r2, [r4]
 725 003e 1369     		ldr	r3, [r2, #16]
 726 0040 43F48043 		orr	r3, r3, #16384
 727 0044 1361     		str	r3, [r2, #16]
 728              		.loc 1 523 3 view .LVU190
 729 0046 2268     		ldr	r2, [r4]
 730 0048 1369     		ldr	r3, [r2, #16]
 731 004a 23F02003 		bic	r3, r3, #32
 732 004e 1361     		str	r3, [r2, #16]
 733              		.loc 1 524 3 view .LVU191
 734 0050 2368     		ldr	r3, [r4]
 735 0052 1969     		ldr	r1, [r3, #16]
 736 0054 0D43     		orrs	r5, r5, r1
 737              	.LVL39:
 738              		.loc 1 524 3 is_stmt 0 view .LVU192
 739 0056 1D61     		str	r5, [r3, #16]
 740              		.loc 1 527 3 is_stmt 1 view .LVU193
 741 0058 2268     		ldr	r2, [r4]
 742 005a D368     		ldr	r3, [r2, #12]
 743 005c 43F40053 		orr	r3, r3, #8192
 744 0060 D360     		str	r3, [r2, #12]
 745              		.loc 1 530 3 view .LVU194
 746              		.loc 1 530 20 is_stmt 0 view .LVU195
 747 0062 0020     		movs	r0, #0
 748 0064 E063     		str	r0, [r4, #60]
 749              		.loc 1 531 3 is_stmt 1 view .LVU196
 750              		.loc 1 531 17 is_stmt 0 view .LVU197
 751 0066 2023     		movs	r3, #32
 752 0068 84F83930 		strb	r3, [r4, #57]
 753              		.loc 1 532 3 is_stmt 1 view .LVU198
 754              		.loc 1 532 18 is_stmt 0 view .LVU199
 755 006c 84F83A30 		strb	r3, [r4, #58]
 756              		.loc 1 534 3 is_stmt 1 view .LVU200
 757              		.loc 1 535 1 is_stmt 0 view .LVU201
ARM GAS  C:\Users\38164\AppData\Local\Temp\ccqRiAWJ.s 			page 14


 758 0070 38BD     		pop	{r3, r4, r5, pc}
 759              	.LVL40:
 760              	.L59:
 761              		.loc 1 487 5 is_stmt 1 view .LVU202
 762              		.loc 1 487 17 is_stmt 0 view .LVU203
 763 0072 80F83830 		strb	r3, [r0, #56]
 764              		.loc 1 501 5 is_stmt 1 view .LVU204
 765 0076 034B     		ldr	r3, .L60+4
 766 0078 9847     		blx	r3
 767              	.LVL41:
 768              		.loc 1 501 5 is_stmt 0 view .LVU205
 769 007a CAE7     		b	.L53
 770              	.LVL42:
 771              	.L54:
 772              	.LCFI7:
 773              		.cfi_def_cfa_offset 0
 774              		.cfi_restore 3
 775              		.cfi_restore 4
 776              		.cfi_restore 5
 777              		.cfi_restore 14
 778              		.loc 1 471 12 view .LVU206
 779 007c 0120     		movs	r0, #1
 780              	.LVL43:
 781              		.loc 1 535 1 view .LVU207
 782 007e 7047     		bx	lr
 783              	.L61:
 784              		.align	2
 785              	.L60:
 786 0080 00000000 		.word	UART_SetConfig
 787 0084 00000000 		.word	HAL_UART_MspInit
 788              		.cfi_endproc
 789              	.LFE67:
 791              		.section	.text.HAL_MultiProcessor_Init,"ax",%progbits
 792              		.align	1
 793              		.global	HAL_MultiProcessor_Init
 794              		.syntax unified
 795              		.thumb
 796              		.thumb_func
 797              		.fpu softvfp
 799              	HAL_MultiProcessor_Init:
 800              	.LVL44:
 801              	.LFB68:
 802              		.loc 1 550 1 is_stmt 1 view -0
 803              		.cfi_startproc
 804              		@ args = 0, pretend = 0, frame = 0
 805              		@ frame_needed = 0, uses_anonymous_args = 0
 806              		.loc 1 552 3 view .LVU209
 807              		.loc 1 552 6 is_stmt 0 view .LVU210
 808 0000 0028     		cmp	r0, #0
 809 0002 40D0     		beq	.L65
 810              		.loc 1 550 1 view .LVU211
 811 0004 70B5     		push	{r4, r5, r6, lr}
 812              	.LCFI8:
 813              		.cfi_def_cfa_offset 16
 814              		.cfi_offset 4, -16
 815              		.cfi_offset 5, -12
 816              		.cfi_offset 6, -8
ARM GAS  C:\Users\38164\AppData\Local\Temp\ccqRiAWJ.s 			page 15


 817              		.cfi_offset 14, -4
 818 0006 0D46     		mov	r5, r1
 819 0008 1646     		mov	r6, r2
 820 000a 0446     		mov	r4, r0
 821              		.loc 1 558 3 is_stmt 1 view .LVU212
 822              		.loc 1 561 3 view .LVU213
 823              		.loc 1 562 3 view .LVU214
 824              		.loc 1 563 3 view .LVU215
 825              		.loc 1 568 3 view .LVU216
 826              		.loc 1 568 12 is_stmt 0 view .LVU217
 827 000c 90F83930 		ldrb	r3, [r0, #57]	@ zero_extendqisi2
 828              		.loc 1 568 6 view .LVU218
 829 0010 002B     		cmp	r3, #0
 830 0012 33D0     		beq	.L70
 831              	.LVL45:
 832              	.L64:
 833              		.loc 1 589 3 is_stmt 1 view .LVU219
 834              		.loc 1 589 17 is_stmt 0 view .LVU220
 835 0014 2423     		movs	r3, #36
 836 0016 84F83930 		strb	r3, [r4, #57]
 837              		.loc 1 592 3 is_stmt 1 view .LVU221
 838 001a 2268     		ldr	r2, [r4]
 839 001c D368     		ldr	r3, [r2, #12]
 840 001e 23F40053 		bic	r3, r3, #8192
 841 0022 D360     		str	r3, [r2, #12]
 842              		.loc 1 595 3 view .LVU222
 843 0024 2046     		mov	r0, r4
 844 0026 194B     		ldr	r3, .L71
 845 0028 9847     		blx	r3
 846              	.LVL46:
 847              		.loc 1 600 3 view .LVU223
 848 002a 2268     		ldr	r2, [r4]
 849 002c 1369     		ldr	r3, [r2, #16]
 850 002e 23F49043 		bic	r3, r3, #18432
 851 0032 1361     		str	r3, [r2, #16]
 852              		.loc 1 601 3 view .LVU224
 853 0034 2268     		ldr	r2, [r4]
 854 0036 5369     		ldr	r3, [r2, #20]
 855 0038 23F02A03 		bic	r3, r3, #42
 856 003c 5361     		str	r3, [r2, #20]
 857              		.loc 1 604 3 view .LVU225
 858 003e 2268     		ldr	r2, [r4]
 859 0040 1369     		ldr	r3, [r2, #16]
 860 0042 23F00F03 		bic	r3, r3, #15
 861 0046 1361     		str	r3, [r2, #16]
 862              		.loc 1 605 3 view .LVU226
 863 0048 2368     		ldr	r3, [r4]
 864 004a 1969     		ldr	r1, [r3, #16]
 865 004c 0D43     		orrs	r5, r5, r1
 866 004e 1D61     		str	r5, [r3, #16]
 867              		.loc 1 608 3 view .LVU227
 868 0050 2268     		ldr	r2, [r4]
 869 0052 D368     		ldr	r3, [r2, #12]
 870 0054 23F40063 		bic	r3, r3, #2048
 871 0058 D360     		str	r3, [r2, #12]
 872              		.loc 1 609 3 view .LVU228
 873 005a 2368     		ldr	r3, [r4]
ARM GAS  C:\Users\38164\AppData\Local\Temp\ccqRiAWJ.s 			page 16


 874 005c DA68     		ldr	r2, [r3, #12]
 875 005e 1643     		orrs	r6, r6, r2
 876              	.LVL47:
 877              		.loc 1 609 3 is_stmt 0 view .LVU229
 878 0060 DE60     		str	r6, [r3, #12]
 879              		.loc 1 612 3 is_stmt 1 view .LVU230
 880 0062 2268     		ldr	r2, [r4]
 881 0064 D368     		ldr	r3, [r2, #12]
 882 0066 43F40053 		orr	r3, r3, #8192
 883 006a D360     		str	r3, [r2, #12]
 884              		.loc 1 615 3 view .LVU231
 885              		.loc 1 615 20 is_stmt 0 view .LVU232
 886 006c 0020     		movs	r0, #0
 887 006e E063     		str	r0, [r4, #60]
 888              		.loc 1 616 3 is_stmt 1 view .LVU233
 889              		.loc 1 616 17 is_stmt 0 view .LVU234
 890 0070 2023     		movs	r3, #32
 891 0072 84F83930 		strb	r3, [r4, #57]
 892              		.loc 1 617 3 is_stmt 1 view .LVU235
 893              		.loc 1 617 18 is_stmt 0 view .LVU236
 894 0076 84F83A30 		strb	r3, [r4, #58]
 895              		.loc 1 619 3 is_stmt 1 view .LVU237
 896              		.loc 1 620 1 is_stmt 0 view .LVU238
 897 007a 70BD     		pop	{r4, r5, r6, pc}
 898              	.LVL48:
 899              	.L70:
 900              		.loc 1 571 5 is_stmt 1 view .LVU239
 901              		.loc 1 571 17 is_stmt 0 view .LVU240
 902 007c 80F83830 		strb	r3, [r0, #56]
 903              		.loc 1 585 5 is_stmt 1 view .LVU241
 904 0080 034B     		ldr	r3, .L71+4
 905 0082 9847     		blx	r3
 906              	.LVL49:
 907              		.loc 1 585 5 is_stmt 0 view .LVU242
 908 0084 C6E7     		b	.L64
 909              	.LVL50:
 910              	.L65:
 911              	.LCFI9:
 912              		.cfi_def_cfa_offset 0
 913              		.cfi_restore 4
 914              		.cfi_restore 5
 915              		.cfi_restore 6
 916              		.cfi_restore 14
 917              		.loc 1 554 12 view .LVU243
 918 0086 0120     		movs	r0, #1
 919              	.LVL51:
 920              		.loc 1 620 1 view .LVU244
 921 0088 7047     		bx	lr
 922              	.L72:
 923 008a 00BF     		.align	2
 924              	.L71:
 925 008c 00000000 		.word	UART_SetConfig
 926 0090 00000000 		.word	HAL_UART_MspInit
 927              		.cfi_endproc
 928              	.LFE68:
 930              		.section	.text.HAL_UART_MspDeInit,"ax",%progbits
 931              		.align	1
ARM GAS  C:\Users\38164\AppData\Local\Temp\ccqRiAWJ.s 			page 17


 932              		.weak	HAL_UART_MspDeInit
 933              		.syntax unified
 934              		.thumb
 935              		.thumb_func
 936              		.fpu softvfp
 938              	HAL_UART_MspDeInit:
 939              	.LVL52:
 940              	.LFB71:
 941              		.loc 1 688 1 is_stmt 1 view -0
 942              		.cfi_startproc
 943              		@ args = 0, pretend = 0, frame = 0
 944              		@ frame_needed = 0, uses_anonymous_args = 0
 945              		@ link register save eliminated.
 946              		.loc 1 690 3 view .LVU246
 947              		.loc 1 694 1 is_stmt 0 view .LVU247
 948 0000 7047     		bx	lr
 949              		.cfi_endproc
 950              	.LFE71:
 952              		.section	.text.HAL_UART_DeInit,"ax",%progbits
 953              		.align	1
 954              		.global	HAL_UART_DeInit
 955              		.syntax unified
 956              		.thumb
 957              		.thumb_func
 958              		.fpu softvfp
 960              	HAL_UART_DeInit:
 961              	.LVL53:
 962              	.LFB69:
 963              		.loc 1 629 1 is_stmt 1 view -0
 964              		.cfi_startproc
 965              		@ args = 0, pretend = 0, frame = 0
 966              		@ frame_needed = 0, uses_anonymous_args = 0
 967              		.loc 1 631 3 view .LVU249
 968              		.loc 1 631 6 is_stmt 0 view .LVU250
 969 0000 A0B1     		cbz	r0, .L76
 970              		.loc 1 629 1 view .LVU251
 971 0002 10B5     		push	{r4, lr}
 972              	.LCFI10:
 973              		.cfi_def_cfa_offset 8
 974              		.cfi_offset 4, -8
 975              		.cfi_offset 14, -4
 976 0004 0446     		mov	r4, r0
 977              		.loc 1 637 3 is_stmt 1 view .LVU252
 978              		.loc 1 639 3 view .LVU253
 979              		.loc 1 639 17 is_stmt 0 view .LVU254
 980 0006 2423     		movs	r3, #36
 981 0008 80F83930 		strb	r3, [r0, #57]
 982              		.loc 1 642 3 is_stmt 1 view .LVU255
 983 000c 0268     		ldr	r2, [r0]
 984 000e D368     		ldr	r3, [r2, #12]
 985 0010 23F40053 		bic	r3, r3, #8192
 986 0014 D360     		str	r3, [r2, #12]
 987              		.loc 1 653 3 view .LVU256
 988 0016 064B     		ldr	r3, .L81
 989 0018 9847     		blx	r3
 990              	.LVL54:
 991              		.loc 1 656 3 view .LVU257
ARM GAS  C:\Users\38164\AppData\Local\Temp\ccqRiAWJ.s 			page 18


 992              		.loc 1 656 20 is_stmt 0 view .LVU258
 993 001a 0020     		movs	r0, #0
 994 001c E063     		str	r0, [r4, #60]
 995              		.loc 1 657 3 is_stmt 1 view .LVU259
 996              		.loc 1 657 17 is_stmt 0 view .LVU260
 997 001e 84F83900 		strb	r0, [r4, #57]
 998              		.loc 1 658 3 is_stmt 1 view .LVU261
 999              		.loc 1 658 18 is_stmt 0 view .LVU262
 1000 0022 84F83A00 		strb	r0, [r4, #58]
 1001              		.loc 1 661 3 is_stmt 1 view .LVU263
 1002              		.loc 1 661 3 view .LVU264
 1003 0026 84F83800 		strb	r0, [r4, #56]
 1004              		.loc 1 661 3 view .LVU265
 1005              		.loc 1 663 3 view .LVU266
 1006              		.loc 1 664 1 is_stmt 0 view .LVU267
 1007 002a 10BD     		pop	{r4, pc}
 1008              	.LVL55:
 1009              	.L76:
 1010              	.LCFI11:
 1011              		.cfi_def_cfa_offset 0
 1012              		.cfi_restore 4
 1013              		.cfi_restore 14
 1014              		.loc 1 633 12 view .LVU268
 1015 002c 0120     		movs	r0, #1
 1016              	.LVL56:
 1017              		.loc 1 664 1 view .LVU269
 1018 002e 7047     		bx	lr
 1019              	.L82:
 1020              		.align	2
 1021              	.L81:
 1022 0030 00000000 		.word	HAL_UART_MspDeInit
 1023              		.cfi_endproc
 1024              	.LFE69:
 1026              		.section	.text.HAL_UART_Transmit,"ax",%progbits
 1027              		.align	1
 1028              		.global	HAL_UART_Transmit
 1029              		.syntax unified
 1030              		.thumb
 1031              		.thumb_func
 1032              		.fpu softvfp
 1034              	HAL_UART_Transmit:
 1035              	.LVL57:
 1036              	.LFB72:
 1037              		.loc 1 1028 1 is_stmt 1 view -0
 1038              		.cfi_startproc
 1039              		@ args = 0, pretend = 0, frame = 0
 1040              		@ frame_needed = 0, uses_anonymous_args = 0
 1041              		.loc 1 1028 1 is_stmt 0 view .LVU271
 1042 0000 2DE9F043 		push	{r4, r5, r6, r7, r8, r9, lr}
 1043              	.LCFI12:
 1044              		.cfi_def_cfa_offset 28
 1045              		.cfi_offset 4, -28
 1046              		.cfi_offset 5, -24
 1047              		.cfi_offset 6, -20
 1048              		.cfi_offset 7, -16
 1049              		.cfi_offset 8, -12
 1050              		.cfi_offset 9, -8
ARM GAS  C:\Users\38164\AppData\Local\Temp\ccqRiAWJ.s 			page 19


 1051              		.cfi_offset 14, -4
 1052 0004 83B0     		sub	sp, sp, #12
 1053              	.LCFI13:
 1054              		.cfi_def_cfa_offset 40
 1055 0006 1E46     		mov	r6, r3
 1056              		.loc 1 1029 3 is_stmt 1 view .LVU272
 1057              		.loc 1 1030 3 view .LVU273
 1058              		.loc 1 1031 3 view .LVU274
 1059              	.LVL58:
 1060              		.loc 1 1034 3 view .LVU275
 1061              		.loc 1 1034 12 is_stmt 0 view .LVU276
 1062 0008 90F83930 		ldrb	r3, [r0, #57]	@ zero_extendqisi2
 1063              	.LVL59:
 1064              		.loc 1 1034 12 view .LVU277
 1065 000c DBB2     		uxtb	r3, r3
 1066              		.loc 1 1034 6 view .LVU278
 1067 000e 202B     		cmp	r3, #32
 1068 0010 55D1     		bne	.L90
 1069 0012 0446     		mov	r4, r0
 1070 0014 0D46     		mov	r5, r1
 1071 0016 9046     		mov	r8, r2
 1072              		.loc 1 1036 5 is_stmt 1 view .LVU279
 1073              		.loc 1 1036 8 is_stmt 0 view .LVU280
 1074 0018 0029     		cmp	r1, #0
 1075 001a 54D0     		beq	.L91
 1076              		.loc 1 1036 25 discriminator 1 view .LVU281
 1077 001c 002A     		cmp	r2, #0
 1078 001e 54D0     		beq	.L92
 1079              		.loc 1 1042 5 is_stmt 1 view .LVU282
 1080              		.loc 1 1042 5 view .LVU283
 1081 0020 90F83830 		ldrb	r3, [r0, #56]	@ zero_extendqisi2
 1082 0024 012B     		cmp	r3, #1
 1083 0026 52D0     		beq	.L93
 1084              		.loc 1 1042 5 discriminator 2 view .LVU284
 1085 0028 0123     		movs	r3, #1
 1086 002a 80F83830 		strb	r3, [r0, #56]
 1087              		.loc 1 1042 5 discriminator 2 view .LVU285
 1088              		.loc 1 1044 5 discriminator 2 view .LVU286
 1089              		.loc 1 1044 22 is_stmt 0 discriminator 2 view .LVU287
 1090 002e 0023     		movs	r3, #0
 1091 0030 C363     		str	r3, [r0, #60]
 1092              		.loc 1 1045 5 is_stmt 1 discriminator 2 view .LVU288
 1093              		.loc 1 1045 19 is_stmt 0 discriminator 2 view .LVU289
 1094 0032 2123     		movs	r3, #33
 1095 0034 80F83930 		strb	r3, [r0, #57]
 1096              		.loc 1 1048 5 is_stmt 1 discriminator 2 view .LVU290
 1097              		.loc 1 1048 17 is_stmt 0 discriminator 2 view .LVU291
 1098 0038 284B     		ldr	r3, .L102
 1099 003a 9847     		blx	r3
 1100              	.LVL60:
 1101              		.loc 1 1048 17 discriminator 2 view .LVU292
 1102 003c 0746     		mov	r7, r0
 1103              	.LVL61:
 1104              		.loc 1 1050 5 is_stmt 1 discriminator 2 view .LVU293
 1105              		.loc 1 1050 23 is_stmt 0 discriminator 2 view .LVU294
 1106 003e A4F82480 		strh	r8, [r4, #36]	@ movhi
 1107              		.loc 1 1051 5 is_stmt 1 discriminator 2 view .LVU295
ARM GAS  C:\Users\38164\AppData\Local\Temp\ccqRiAWJ.s 			page 20


 1108              		.loc 1 1051 24 is_stmt 0 discriminator 2 view .LVU296
 1109 0042 A4F82680 		strh	r8, [r4, #38]	@ movhi
 1110              		.loc 1 1054 5 is_stmt 1 discriminator 2 view .LVU297
 1111              		.loc 1 1054 21 is_stmt 0 discriminator 2 view .LVU298
 1112 0046 A368     		ldr	r3, [r4, #8]
 1113              		.loc 1 1054 8 discriminator 2 view .LVU299
 1114 0048 B3F5805F 		cmp	r3, #4096
 1115 004c 05D0     		beq	.L99
 1116              		.loc 1 1062 19 view .LVU300
 1117 004e 4FF00008 		mov	r8, #0
 1118              	.LVL62:
 1119              	.L85:
 1120              		.loc 1 1066 5 is_stmt 1 view .LVU301
 1121              		.loc 1 1066 5 view .LVU302
 1122 0052 0023     		movs	r3, #0
 1123 0054 84F83830 		strb	r3, [r4, #56]
 1124              		.loc 1 1066 5 view .LVU303
 1125              		.loc 1 1068 5 view .LVU304
 1126              		.loc 1 1068 11 is_stmt 0 view .LVU305
 1127 0058 12E0     		b	.L86
 1128              	.LVL63:
 1129              	.L99:
 1130              		.loc 1 1054 71 discriminator 1 view .LVU306
 1131 005a 2369     		ldr	r3, [r4, #16]
 1132              		.loc 1 1054 56 discriminator 1 view .LVU307
 1133 005c 13B1     		cbz	r3, .L95
 1134              		.loc 1 1062 19 view .LVU308
 1135 005e 4FF00008 		mov	r8, #0
 1136 0062 F6E7     		b	.L85
 1137              	.L95:
 1138              		.loc 1 1057 19 view .LVU309
 1139 0064 A846     		mov	r8, r5
 1140              		.loc 1 1056 19 view .LVU310
 1141 0066 0025     		movs	r5, #0
 1142              	.LVL64:
 1143              		.loc 1 1056 19 view .LVU311
 1144 0068 F3E7     		b	.L85
 1145              	.LVL65:
 1146              	.L101:
 1147              		.loc 1 1076 9 is_stmt 1 view .LVU312
 1148              		.loc 1 1076 42 is_stmt 0 view .LVU313
 1149 006a 38F8023B 		ldrh	r3, [r8], #2
 1150              	.LVL66:
 1151              		.loc 1 1076 14 view .LVU314
 1152 006e 2268     		ldr	r2, [r4]
 1153              		.loc 1 1076 31 view .LVU315
 1154 0070 C3F30803 		ubfx	r3, r3, #0, #9
 1155              		.loc 1 1076 29 view .LVU316
 1156 0074 5360     		str	r3, [r2, #4]
 1157              		.loc 1 1077 9 is_stmt 1 view .LVU317
 1158              	.LVL67:
 1159              	.L88:
 1160              		.loc 1 1084 7 view .LVU318
 1161              		.loc 1 1084 12 is_stmt 0 view .LVU319
 1162 0076 E28C     		ldrh	r2, [r4, #38]
 1163 0078 92B2     		uxth	r2, r2
 1164              		.loc 1 1084 25 view .LVU320
ARM GAS  C:\Users\38164\AppData\Local\Temp\ccqRiAWJ.s 			page 21


 1165 007a 013A     		subs	r2, r2, #1
 1166 007c 92B2     		uxth	r2, r2
 1167 007e E284     		strh	r2, [r4, #38]	@ movhi
 1168              	.L86:
 1169              		.loc 1 1068 11 is_stmt 1 view .LVU321
 1170              		.loc 1 1068 17 is_stmt 0 view .LVU322
 1171 0080 E38C     		ldrh	r3, [r4, #38]
 1172 0082 9BB2     		uxth	r3, r3
 1173              		.loc 1 1068 11 view .LVU323
 1174 0084 7BB1     		cbz	r3, .L100
 1175              		.loc 1 1070 7 is_stmt 1 view .LVU324
 1176              		.loc 1 1070 11 is_stmt 0 view .LVU325
 1177 0086 0096     		str	r6, [sp]
 1178 0088 3B46     		mov	r3, r7
 1179 008a 0022     		movs	r2, #0
 1180 008c 8021     		movs	r1, #128
 1181 008e 2046     		mov	r0, r4
 1182 0090 DFF84C90 		ldr	r9, .L102+4
 1183 0094 C847     		blx	r9
 1184              	.LVL68:
 1185              		.loc 1 1070 10 view .LVU326
 1186 0096 E0B9     		cbnz	r0, .L96
 1187              		.loc 1 1074 7 is_stmt 1 view .LVU327
 1188              		.loc 1 1074 10 is_stmt 0 view .LVU328
 1189 0098 002D     		cmp	r5, #0
 1190 009a E6D0     		beq	.L101
 1191              		.loc 1 1081 9 is_stmt 1 view .LVU329
 1192              		.loc 1 1081 41 is_stmt 0 view .LVU330
 1193 009c 15F8012B 		ldrb	r2, [r5], #1	@ zero_extendqisi2
 1194              	.LVL69:
 1195              		.loc 1 1081 14 view .LVU331
 1196 00a0 2368     		ldr	r3, [r4]
 1197              		.loc 1 1081 29 view .LVU332
 1198 00a2 5A60     		str	r2, [r3, #4]
 1199              		.loc 1 1082 9 is_stmt 1 view .LVU333
 1200              	.LVL70:
 1201              		.loc 1 1082 9 is_stmt 0 view .LVU334
 1202 00a4 E7E7     		b	.L88
 1203              	.L100:
 1204              		.loc 1 1087 5 is_stmt 1 view .LVU335
 1205              		.loc 1 1087 9 is_stmt 0 view .LVU336
 1206 00a6 0096     		str	r6, [sp]
 1207 00a8 3B46     		mov	r3, r7
 1208 00aa 0022     		movs	r2, #0
 1209 00ac 4021     		movs	r1, #64
 1210 00ae 2046     		mov	r0, r4
 1211 00b0 0B4D     		ldr	r5, .L102+4
 1212              	.LVL71:
 1213              		.loc 1 1087 9 view .LVU337
 1214 00b2 A847     		blx	r5
 1215              	.LVL72:
 1216              		.loc 1 1087 8 view .LVU338
 1217 00b4 78B9     		cbnz	r0, .L97
 1218              		.loc 1 1093 5 is_stmt 1 view .LVU339
 1219              		.loc 1 1093 19 is_stmt 0 view .LVU340
 1220 00b6 2023     		movs	r3, #32
 1221 00b8 84F83930 		strb	r3, [r4, #57]
ARM GAS  C:\Users\38164\AppData\Local\Temp\ccqRiAWJ.s 			page 22


 1222              		.loc 1 1095 5 is_stmt 1 view .LVU341
 1223              		.loc 1 1095 12 is_stmt 0 view .LVU342
 1224 00bc 00E0     		b	.L84
 1225              	.LVL73:
 1226              	.L90:
 1227              		.loc 1 1099 12 view .LVU343
 1228 00be 0220     		movs	r0, #2
 1229              	.LVL74:
 1230              	.L84:
 1231              		.loc 1 1101 1 view .LVU344
 1232 00c0 03B0     		add	sp, sp, #12
 1233              	.LCFI14:
 1234              		.cfi_remember_state
 1235              		.cfi_def_cfa_offset 28
 1236              		@ sp needed
 1237 00c2 BDE8F083 		pop	{r4, r5, r6, r7, r8, r9, pc}
 1238              	.LVL75:
 1239              	.L91:
 1240              	.LCFI15:
 1241              		.cfi_restore_state
 1242              		.loc 1 1038 15 view .LVU345
 1243 00c6 0120     		movs	r0, #1
 1244              	.LVL76:
 1245              		.loc 1 1038 15 view .LVU346
 1246 00c8 FAE7     		b	.L84
 1247              	.LVL77:
 1248              	.L92:
 1249              		.loc 1 1038 15 view .LVU347
 1250 00ca 0120     		movs	r0, #1
 1251              	.LVL78:
 1252              		.loc 1 1038 15 view .LVU348
 1253 00cc F8E7     		b	.L84
 1254              	.LVL79:
 1255              	.L93:
 1256              		.loc 1 1042 5 view .LVU349
 1257 00ce 0220     		movs	r0, #2
 1258              	.LVL80:
 1259              		.loc 1 1042 5 view .LVU350
 1260 00d0 F6E7     		b	.L84
 1261              	.LVL81:
 1262              	.L96:
 1263              		.loc 1 1072 16 view .LVU351
 1264 00d2 0320     		movs	r0, #3
 1265 00d4 F4E7     		b	.L84
 1266              	.LVL82:
 1267              	.L97:
 1268              		.loc 1 1089 14 view .LVU352
 1269 00d6 0320     		movs	r0, #3
 1270 00d8 F2E7     		b	.L84
 1271              	.L103:
 1272 00da 00BF     		.align	2
 1273              	.L102:
 1274 00dc 00000000 		.word	HAL_GetTick
 1275 00e0 00000000 		.word	UART_WaitOnFlagUntilTimeout
 1276              		.cfi_endproc
 1277              	.LFE72:
 1279              		.section	.text.HAL_UART_Receive,"ax",%progbits
ARM GAS  C:\Users\38164\AppData\Local\Temp\ccqRiAWJ.s 			page 23


 1280              		.align	1
 1281              		.global	HAL_UART_Receive
 1282              		.syntax unified
 1283              		.thumb
 1284              		.thumb_func
 1285              		.fpu softvfp
 1287              	HAL_UART_Receive:
 1288              	.LVL83:
 1289              	.LFB73:
 1290              		.loc 1 1116 1 is_stmt 1 view -0
 1291              		.cfi_startproc
 1292              		@ args = 0, pretend = 0, frame = 0
 1293              		@ frame_needed = 0, uses_anonymous_args = 0
 1294              		.loc 1 1116 1 is_stmt 0 view .LVU354
 1295 0000 2DE9F043 		push	{r4, r5, r6, r7, r8, r9, lr}
 1296              	.LCFI16:
 1297              		.cfi_def_cfa_offset 28
 1298              		.cfi_offset 4, -28
 1299              		.cfi_offset 5, -24
 1300              		.cfi_offset 6, -20
 1301              		.cfi_offset 7, -16
 1302              		.cfi_offset 8, -12
 1303              		.cfi_offset 9, -8
 1304              		.cfi_offset 14, -4
 1305 0004 83B0     		sub	sp, sp, #12
 1306              	.LCFI17:
 1307              		.cfi_def_cfa_offset 40
 1308 0006 1E46     		mov	r6, r3
 1309              		.loc 1 1117 3 is_stmt 1 view .LVU355
 1310              		.loc 1 1118 3 view .LVU356
 1311              		.loc 1 1119 3 view .LVU357
 1312              	.LVL84:
 1313              		.loc 1 1122 3 view .LVU358
 1314              		.loc 1 1122 12 is_stmt 0 view .LVU359
 1315 0008 90F83A30 		ldrb	r3, [r0, #58]	@ zero_extendqisi2
 1316              	.LVL85:
 1317              		.loc 1 1122 12 view .LVU360
 1318 000c DBB2     		uxtb	r3, r3
 1319              		.loc 1 1122 6 view .LVU361
 1320 000e 202B     		cmp	r3, #32
 1321 0010 5CD1     		bne	.L114
 1322 0012 0446     		mov	r4, r0
 1323 0014 0D46     		mov	r5, r1
 1324 0016 9046     		mov	r8, r2
 1325              		.loc 1 1124 5 is_stmt 1 view .LVU362
 1326              		.loc 1 1124 8 is_stmt 0 view .LVU363
 1327 0018 0029     		cmp	r1, #0
 1328 001a 5BD0     		beq	.L115
 1329              		.loc 1 1124 25 discriminator 1 view .LVU364
 1330 001c 002A     		cmp	r2, #0
 1331 001e 5BD0     		beq	.L116
 1332              		.loc 1 1130 5 is_stmt 1 view .LVU365
 1333              		.loc 1 1130 5 view .LVU366
 1334 0020 90F83830 		ldrb	r3, [r0, #56]	@ zero_extendqisi2
 1335 0024 012B     		cmp	r3, #1
 1336 0026 59D0     		beq	.L117
 1337              		.loc 1 1130 5 discriminator 2 view .LVU367
ARM GAS  C:\Users\38164\AppData\Local\Temp\ccqRiAWJ.s 			page 24


 1338 0028 0123     		movs	r3, #1
 1339 002a 80F83830 		strb	r3, [r0, #56]
 1340              		.loc 1 1130 5 discriminator 2 view .LVU368
 1341              		.loc 1 1132 5 discriminator 2 view .LVU369
 1342              		.loc 1 1132 22 is_stmt 0 discriminator 2 view .LVU370
 1343 002e 0023     		movs	r3, #0
 1344 0030 C363     		str	r3, [r0, #60]
 1345              		.loc 1 1133 5 is_stmt 1 discriminator 2 view .LVU371
 1346              		.loc 1 1133 20 is_stmt 0 discriminator 2 view .LVU372
 1347 0032 2223     		movs	r3, #34
 1348 0034 80F83A30 		strb	r3, [r0, #58]
 1349              		.loc 1 1136 5 is_stmt 1 discriminator 2 view .LVU373
 1350              		.loc 1 1136 17 is_stmt 0 discriminator 2 view .LVU374
 1351 0038 2A4B     		ldr	r3, .L125
 1352 003a 9847     		blx	r3
 1353              	.LVL86:
 1354              		.loc 1 1136 17 discriminator 2 view .LVU375
 1355 003c 0746     		mov	r7, r0
 1356              	.LVL87:
 1357              		.loc 1 1138 5 is_stmt 1 discriminator 2 view .LVU376
 1358              		.loc 1 1138 23 is_stmt 0 discriminator 2 view .LVU377
 1359 003e A4F82C80 		strh	r8, [r4, #44]	@ movhi
 1360              		.loc 1 1139 5 is_stmt 1 discriminator 2 view .LVU378
 1361              		.loc 1 1139 24 is_stmt 0 discriminator 2 view .LVU379
 1362 0042 A4F82E80 		strh	r8, [r4, #46]	@ movhi
 1363              		.loc 1 1142 5 is_stmt 1 discriminator 2 view .LVU380
 1364              		.loc 1 1142 21 is_stmt 0 discriminator 2 view .LVU381
 1365 0046 A368     		ldr	r3, [r4, #8]
 1366              		.loc 1 1142 8 discriminator 2 view .LVU382
 1367 0048 B3F5805F 		cmp	r3, #4096
 1368 004c 05D0     		beq	.L122
 1369              		.loc 1 1150 19 view .LVU383
 1370 004e 4FF00008 		mov	r8, #0
 1371              	.LVL88:
 1372              	.L106:
 1373              		.loc 1 1154 5 is_stmt 1 view .LVU384
 1374              		.loc 1 1154 5 view .LVU385
 1375 0052 0023     		movs	r3, #0
 1376 0054 84F83830 		strb	r3, [r4, #56]
 1377              		.loc 1 1154 5 view .LVU386
 1378              		.loc 1 1157 5 view .LVU387
 1379              		.loc 1 1157 11 is_stmt 0 view .LVU388
 1380 0058 17E0     		b	.L107
 1381              	.LVL89:
 1382              	.L122:
 1383              		.loc 1 1142 71 discriminator 1 view .LVU389
 1384 005a 2369     		ldr	r3, [r4, #16]
 1385              		.loc 1 1142 56 discriminator 1 view .LVU390
 1386 005c 13B1     		cbz	r3, .L119
 1387              		.loc 1 1150 19 view .LVU391
 1388 005e 4FF00008 		mov	r8, #0
 1389 0062 F6E7     		b	.L106
 1390              	.L119:
 1391              		.loc 1 1145 19 view .LVU392
 1392 0064 A846     		mov	r8, r5
 1393              		.loc 1 1144 19 view .LVU393
 1394 0066 0025     		movs	r5, #0
ARM GAS  C:\Users\38164\AppData\Local\Temp\ccqRiAWJ.s 			page 25


 1395              	.LVL90:
 1396              		.loc 1 1144 19 view .LVU394
 1397 0068 F3E7     		b	.L106
 1398              	.LVL91:
 1399              	.L124:
 1400              		.loc 1 1165 9 is_stmt 1 view .LVU395
 1401              		.loc 1 1165 40 is_stmt 0 view .LVU396
 1402 006a 2368     		ldr	r3, [r4]
 1403              		.loc 1 1165 50 view .LVU397
 1404 006c 5B68     		ldr	r3, [r3, #4]
 1405              		.loc 1 1165 24 view .LVU398
 1406 006e C3F30803 		ubfx	r3, r3, #0, #9
 1407              		.loc 1 1165 22 view .LVU399
 1408 0072 28F8023B 		strh	r3, [r8], #2	@ movhi
 1409              	.LVL92:
 1410              		.loc 1 1166 9 is_stmt 1 view .LVU400
 1411              		.loc 1 1166 9 is_stmt 0 view .LVU401
 1412 0076 03E0     		b	.L109
 1413              	.L110:
 1414              		.loc 1 1172 11 is_stmt 1 view .LVU402
 1415              		.loc 1 1172 40 is_stmt 0 view .LVU403
 1416 0078 2368     		ldr	r3, [r4]
 1417              		.loc 1 1172 50 view .LVU404
 1418 007a 5B68     		ldr	r3, [r3, #4]
 1419              		.loc 1 1172 23 view .LVU405
 1420 007c 2B70     		strb	r3, [r5]
 1421              	.L112:
 1422              		.loc 1 1178 9 is_stmt 1 view .LVU406
 1423              		.loc 1 1178 19 is_stmt 0 view .LVU407
 1424 007e 0135     		adds	r5, r5, #1
 1425              	.LVL93:
 1426              	.L109:
 1427              		.loc 1 1180 7 is_stmt 1 view .LVU408
 1428              		.loc 1 1180 12 is_stmt 0 view .LVU409
 1429 0080 E28D     		ldrh	r2, [r4, #46]
 1430 0082 92B2     		uxth	r2, r2
 1431              		.loc 1 1180 25 view .LVU410
 1432 0084 013A     		subs	r2, r2, #1
 1433 0086 92B2     		uxth	r2, r2
 1434 0088 E285     		strh	r2, [r4, #46]	@ movhi
 1435              	.L107:
 1436              		.loc 1 1157 11 is_stmt 1 view .LVU411
 1437              		.loc 1 1157 17 is_stmt 0 view .LVU412
 1438 008a E38D     		ldrh	r3, [r4, #46]
 1439 008c 9BB2     		uxth	r3, r3
 1440              		.loc 1 1157 11 view .LVU413
 1441 008e C3B1     		cbz	r3, .L123
 1442              		.loc 1 1159 7 is_stmt 1 view .LVU414
 1443              		.loc 1 1159 11 is_stmt 0 view .LVU415
 1444 0090 0096     		str	r6, [sp]
 1445 0092 3B46     		mov	r3, r7
 1446 0094 0022     		movs	r2, #0
 1447 0096 2021     		movs	r1, #32
 1448 0098 2046     		mov	r0, r4
 1449 009a DFF84C90 		ldr	r9, .L125+4
 1450 009e C847     		blx	r9
 1451              	.LVL94:
ARM GAS  C:\Users\38164\AppData\Local\Temp\ccqRiAWJ.s 			page 26


 1452              		.loc 1 1159 10 view .LVU416
 1453 00a0 F0B9     		cbnz	r0, .L120
 1454              		.loc 1 1163 7 is_stmt 1 view .LVU417
 1455              		.loc 1 1163 10 is_stmt 0 view .LVU418
 1456 00a2 002D     		cmp	r5, #0
 1457 00a4 E1D0     		beq	.L124
 1458              		.loc 1 1170 9 is_stmt 1 view .LVU419
 1459              		.loc 1 1170 25 is_stmt 0 view .LVU420
 1460 00a6 A368     		ldr	r3, [r4, #8]
 1461              		.loc 1 1170 12 view .LVU421
 1462 00a8 B3F5805F 		cmp	r3, #4096
 1463 00ac E4D0     		beq	.L110
 1464              		.loc 1 1170 60 discriminator 1 view .LVU422
 1465 00ae 13B9     		cbnz	r3, .L111
 1466              		.loc 1 1170 126 discriminator 2 view .LVU423
 1467 00b0 2369     		ldr	r3, [r4, #16]
 1468              		.loc 1 1170 111 discriminator 2 view .LVU424
 1469 00b2 002B     		cmp	r3, #0
 1470 00b4 E0D0     		beq	.L110
 1471              	.L111:
 1472              		.loc 1 1176 11 is_stmt 1 view .LVU425
 1473              		.loc 1 1176 40 is_stmt 0 view .LVU426
 1474 00b6 2368     		ldr	r3, [r4]
 1475              		.loc 1 1176 50 view .LVU427
 1476 00b8 5B68     		ldr	r3, [r3, #4]
 1477              		.loc 1 1176 25 view .LVU428
 1478 00ba 03F07F03 		and	r3, r3, #127
 1479              		.loc 1 1176 23 view .LVU429
 1480 00be 2B70     		strb	r3, [r5]
 1481 00c0 DDE7     		b	.L112
 1482              	.L123:
 1483              		.loc 1 1184 5 is_stmt 1 view .LVU430
 1484              		.loc 1 1184 20 is_stmt 0 view .LVU431
 1485 00c2 2023     		movs	r3, #32
 1486 00c4 84F83A30 		strb	r3, [r4, #58]
 1487              		.loc 1 1186 5 is_stmt 1 view .LVU432
 1488              		.loc 1 1186 12 is_stmt 0 view .LVU433
 1489 00c8 0020     		movs	r0, #0
 1490 00ca 00E0     		b	.L105
 1491              	.LVL95:
 1492              	.L114:
 1493              		.loc 1 1190 12 view .LVU434
 1494 00cc 0220     		movs	r0, #2
 1495              	.LVL96:
 1496              	.L105:
 1497              		.loc 1 1192 1 view .LVU435
 1498 00ce 03B0     		add	sp, sp, #12
 1499              	.LCFI18:
 1500              		.cfi_remember_state
 1501              		.cfi_def_cfa_offset 28
 1502              		@ sp needed
 1503 00d0 BDE8F083 		pop	{r4, r5, r6, r7, r8, r9, pc}
 1504              	.LVL97:
 1505              	.L115:
 1506              	.LCFI19:
 1507              		.cfi_restore_state
 1508              		.loc 1 1126 15 view .LVU436
ARM GAS  C:\Users\38164\AppData\Local\Temp\ccqRiAWJ.s 			page 27


 1509 00d4 0120     		movs	r0, #1
 1510              	.LVL98:
 1511              		.loc 1 1126 15 view .LVU437
 1512 00d6 FAE7     		b	.L105
 1513              	.LVL99:
 1514              	.L116:
 1515              		.loc 1 1126 15 view .LVU438
 1516 00d8 0120     		movs	r0, #1
 1517              	.LVL100:
 1518              		.loc 1 1126 15 view .LVU439
 1519 00da F8E7     		b	.L105
 1520              	.LVL101:
 1521              	.L117:
 1522              		.loc 1 1130 5 view .LVU440
 1523 00dc 0220     		movs	r0, #2
 1524              	.LVL102:
 1525              		.loc 1 1130 5 view .LVU441
 1526 00de F6E7     		b	.L105
 1527              	.LVL103:
 1528              	.L120:
 1529              		.loc 1 1161 16 view .LVU442
 1530 00e0 0320     		movs	r0, #3
 1531 00e2 F4E7     		b	.L105
 1532              	.L126:
 1533              		.align	2
 1534              	.L125:
 1535 00e4 00000000 		.word	HAL_GetTick
 1536 00e8 00000000 		.word	UART_WaitOnFlagUntilTimeout
 1537              		.cfi_endproc
 1538              	.LFE73:
 1540              		.section	.text.HAL_UART_Transmit_IT,"ax",%progbits
 1541              		.align	1
 1542              		.global	HAL_UART_Transmit_IT
 1543              		.syntax unified
 1544              		.thumb
 1545              		.thumb_func
 1546              		.fpu softvfp
 1548              	HAL_UART_Transmit_IT:
 1549              	.LVL104:
 1550              	.LFB74:
 1551              		.loc 1 1206 1 is_stmt 1 view -0
 1552              		.cfi_startproc
 1553              		@ args = 0, pretend = 0, frame = 0
 1554              		@ frame_needed = 0, uses_anonymous_args = 0
 1555              		@ link register save eliminated.
 1556              		.loc 1 1208 3 view .LVU444
 1557              		.loc 1 1208 12 is_stmt 0 view .LVU445
 1558 0000 90F83930 		ldrb	r3, [r0, #57]	@ zero_extendqisi2
 1559 0004 DBB2     		uxtb	r3, r3
 1560              		.loc 1 1208 6 view .LVU446
 1561 0006 202B     		cmp	r3, #32
 1562 0008 16D1     		bne	.L129
 1563              		.loc 1 1210 5 is_stmt 1 view .LVU447
 1564              		.loc 1 1210 8 is_stmt 0 view .LVU448
 1565 000a B9B1     		cbz	r1, .L130
 1566              		.loc 1 1210 25 discriminator 1 view .LVU449
 1567 000c C2B1     		cbz	r2, .L131
ARM GAS  C:\Users\38164\AppData\Local\Temp\ccqRiAWJ.s 			page 28


 1568              		.loc 1 1216 5 is_stmt 1 view .LVU450
 1569              		.loc 1 1216 5 view .LVU451
 1570 000e 90F83830 		ldrb	r3, [r0, #56]	@ zero_extendqisi2
 1571 0012 012B     		cmp	r3, #1
 1572 0014 16D0     		beq	.L132
 1573              		.loc 1 1216 5 discriminator 2 view .LVU452
 1574              		.loc 1 1216 5 discriminator 2 view .LVU453
 1575              		.loc 1 1218 5 discriminator 2 view .LVU454
 1576              		.loc 1 1218 23 is_stmt 0 discriminator 2 view .LVU455
 1577 0016 0162     		str	r1, [r0, #32]
 1578              		.loc 1 1219 5 is_stmt 1 discriminator 2 view .LVU456
 1579              		.loc 1 1219 23 is_stmt 0 discriminator 2 view .LVU457
 1580 0018 8284     		strh	r2, [r0, #36]	@ movhi
 1581              		.loc 1 1220 5 is_stmt 1 discriminator 2 view .LVU458
 1582              		.loc 1 1220 24 is_stmt 0 discriminator 2 view .LVU459
 1583 001a C284     		strh	r2, [r0, #38]	@ movhi
 1584              		.loc 1 1222 5 is_stmt 1 discriminator 2 view .LVU460
 1585              		.loc 1 1222 22 is_stmt 0 discriminator 2 view .LVU461
 1586 001c 0023     		movs	r3, #0
 1587 001e C363     		str	r3, [r0, #60]
 1588              		.loc 1 1223 5 is_stmt 1 discriminator 2 view .LVU462
 1589              		.loc 1 1223 19 is_stmt 0 discriminator 2 view .LVU463
 1590 0020 2122     		movs	r2, #33
 1591              	.LVL105:
 1592              		.loc 1 1223 19 discriminator 2 view .LVU464
 1593 0022 80F83920 		strb	r2, [r0, #57]
 1594              		.loc 1 1226 5 is_stmt 1 discriminator 2 view .LVU465
 1595              		.loc 1 1226 5 discriminator 2 view .LVU466
 1596 0026 80F83830 		strb	r3, [r0, #56]
 1597              		.loc 1 1226 5 discriminator 2 view .LVU467
 1598              		.loc 1 1229 5 discriminator 2 view .LVU468
 1599 002a 0168     		ldr	r1, [r0]
 1600              	.LVL106:
 1601              		.loc 1 1229 5 is_stmt 0 discriminator 2 view .LVU469
 1602 002c CA68     		ldr	r2, [r1, #12]
 1603 002e 42F08002 		orr	r2, r2, #128
 1604 0032 CA60     		str	r2, [r1, #12]
 1605              	.LVL107:
 1606              		.loc 1 1231 5 is_stmt 1 discriminator 2 view .LVU470
 1607              		.loc 1 1231 12 is_stmt 0 discriminator 2 view .LVU471
 1608 0034 1846     		mov	r0, r3
 1609              	.LVL108:
 1610              		.loc 1 1231 12 discriminator 2 view .LVU472
 1611 0036 7047     		bx	lr
 1612              	.LVL109:
 1613              	.L129:
 1614              		.loc 1 1235 12 view .LVU473
 1615 0038 0220     		movs	r0, #2
 1616              	.LVL110:
 1617              		.loc 1 1235 12 view .LVU474
 1618 003a 7047     		bx	lr
 1619              	.LVL111:
 1620              	.L130:
 1621              		.loc 1 1212 14 view .LVU475
 1622 003c 0120     		movs	r0, #1
 1623              	.LVL112:
 1624              		.loc 1 1212 14 view .LVU476
ARM GAS  C:\Users\38164\AppData\Local\Temp\ccqRiAWJ.s 			page 29


 1625 003e 7047     		bx	lr
 1626              	.LVL113:
 1627              	.L131:
 1628              		.loc 1 1212 14 view .LVU477
 1629 0040 0120     		movs	r0, #1
 1630              	.LVL114:
 1631              		.loc 1 1212 14 view .LVU478
 1632 0042 7047     		bx	lr
 1633              	.LVL115:
 1634              	.L132:
 1635              		.loc 1 1216 5 view .LVU479
 1636 0044 0220     		movs	r0, #2
 1637              	.LVL116:
 1638              		.loc 1 1237 1 view .LVU480
 1639 0046 7047     		bx	lr
 1640              		.cfi_endproc
 1641              	.LFE74:
 1643              		.section	.text.HAL_UART_Receive_IT,"ax",%progbits
 1644              		.align	1
 1645              		.global	HAL_UART_Receive_IT
 1646              		.syntax unified
 1647              		.thumb
 1648              		.thumb_func
 1649              		.fpu softvfp
 1651              	HAL_UART_Receive_IT:
 1652              	.LVL117:
 1653              	.LFB75:
 1654              		.loc 1 1251 1 is_stmt 1 view -0
 1655              		.cfi_startproc
 1656              		@ args = 0, pretend = 0, frame = 0
 1657              		@ frame_needed = 0, uses_anonymous_args = 0
 1658              		@ link register save eliminated.
 1659              		.loc 1 1253 3 view .LVU482
 1660              		.loc 1 1253 12 is_stmt 0 view .LVU483
 1661 0000 90F83A30 		ldrb	r3, [r0, #58]	@ zero_extendqisi2
 1662 0004 DBB2     		uxtb	r3, r3
 1663              		.loc 1 1253 6 view .LVU484
 1664 0006 202B     		cmp	r3, #32
 1665 0008 20D1     		bne	.L135
 1666              		.loc 1 1255 5 is_stmt 1 view .LVU485
 1667              		.loc 1 1255 8 is_stmt 0 view .LVU486
 1668 000a 09B3     		cbz	r1, .L136
 1669              		.loc 1 1255 25 discriminator 1 view .LVU487
 1670 000c 12B3     		cbz	r2, .L137
 1671              		.loc 1 1261 5 is_stmt 1 view .LVU488
 1672              		.loc 1 1261 5 view .LVU489
 1673 000e 90F83830 		ldrb	r3, [r0, #56]	@ zero_extendqisi2
 1674 0012 012B     		cmp	r3, #1
 1675 0014 20D0     		beq	.L138
 1676              		.loc 1 1261 5 discriminator 2 view .LVU490
 1677              		.loc 1 1261 5 discriminator 2 view .LVU491
 1678              		.loc 1 1263 5 discriminator 2 view .LVU492
 1679              		.loc 1 1263 23 is_stmt 0 discriminator 2 view .LVU493
 1680 0016 8162     		str	r1, [r0, #40]
 1681              		.loc 1 1264 5 is_stmt 1 discriminator 2 view .LVU494
 1682              		.loc 1 1264 23 is_stmt 0 discriminator 2 view .LVU495
 1683 0018 8285     		strh	r2, [r0, #44]	@ movhi
ARM GAS  C:\Users\38164\AppData\Local\Temp\ccqRiAWJ.s 			page 30


 1684              		.loc 1 1265 5 is_stmt 1 discriminator 2 view .LVU496
 1685              		.loc 1 1265 24 is_stmt 0 discriminator 2 view .LVU497
 1686 001a C285     		strh	r2, [r0, #46]	@ movhi
 1687              		.loc 1 1267 5 is_stmt 1 discriminator 2 view .LVU498
 1688              		.loc 1 1267 22 is_stmt 0 discriminator 2 view .LVU499
 1689 001c 0023     		movs	r3, #0
 1690 001e C363     		str	r3, [r0, #60]
 1691              		.loc 1 1268 5 is_stmt 1 discriminator 2 view .LVU500
 1692              		.loc 1 1268 20 is_stmt 0 discriminator 2 view .LVU501
 1693 0020 2222     		movs	r2, #34
 1694              	.LVL118:
 1695              		.loc 1 1268 20 discriminator 2 view .LVU502
 1696 0022 80F83A20 		strb	r2, [r0, #58]
 1697              		.loc 1 1271 5 is_stmt 1 discriminator 2 view .LVU503
 1698              		.loc 1 1271 5 discriminator 2 view .LVU504
 1699 0026 80F83830 		strb	r3, [r0, #56]
 1700              		.loc 1 1271 5 discriminator 2 view .LVU505
 1701              		.loc 1 1274 5 discriminator 2 view .LVU506
 1702 002a 0168     		ldr	r1, [r0]
 1703              	.LVL119:
 1704              		.loc 1 1274 5 is_stmt 0 discriminator 2 view .LVU507
 1705 002c CA68     		ldr	r2, [r1, #12]
 1706 002e 42F48072 		orr	r2, r2, #256
 1707 0032 CA60     		str	r2, [r1, #12]
 1708              	.LVL120:
 1709              		.loc 1 1277 5 is_stmt 1 discriminator 2 view .LVU508
 1710 0034 0168     		ldr	r1, [r0]
 1711 0036 4A69     		ldr	r2, [r1, #20]
 1712 0038 42F00102 		orr	r2, r2, #1
 1713 003c 4A61     		str	r2, [r1, #20]
 1714              		.loc 1 1280 5 discriminator 2 view .LVU509
 1715 003e 0168     		ldr	r1, [r0]
 1716 0040 CA68     		ldr	r2, [r1, #12]
 1717 0042 42F02002 		orr	r2, r2, #32
 1718 0046 CA60     		str	r2, [r1, #12]
 1719              		.loc 1 1282 5 discriminator 2 view .LVU510
 1720              		.loc 1 1282 12 is_stmt 0 discriminator 2 view .LVU511
 1721 0048 1846     		mov	r0, r3
 1722              	.LVL121:
 1723              		.loc 1 1282 12 discriminator 2 view .LVU512
 1724 004a 7047     		bx	lr
 1725              	.LVL122:
 1726              	.L135:
 1727              		.loc 1 1286 12 view .LVU513
 1728 004c 0220     		movs	r0, #2
 1729              	.LVL123:
 1730              		.loc 1 1286 12 view .LVU514
 1731 004e 7047     		bx	lr
 1732              	.LVL124:
 1733              	.L136:
 1734              		.loc 1 1257 14 view .LVU515
 1735 0050 0120     		movs	r0, #1
 1736              	.LVL125:
 1737              		.loc 1 1257 14 view .LVU516
 1738 0052 7047     		bx	lr
 1739              	.LVL126:
 1740              	.L137:
ARM GAS  C:\Users\38164\AppData\Local\Temp\ccqRiAWJ.s 			page 31


 1741              		.loc 1 1257 14 view .LVU517
 1742 0054 0120     		movs	r0, #1
 1743              	.LVL127:
 1744              		.loc 1 1257 14 view .LVU518
 1745 0056 7047     		bx	lr
 1746              	.LVL128:
 1747              	.L138:
 1748              		.loc 1 1261 5 view .LVU519
 1749 0058 0220     		movs	r0, #2
 1750              	.LVL129:
 1751              		.loc 1 1288 1 view .LVU520
 1752 005a 7047     		bx	lr
 1753              		.cfi_endproc
 1754              	.LFE75:
 1756              		.section	.text.HAL_UART_Transmit_DMA,"ax",%progbits
 1757              		.align	1
 1758              		.global	HAL_UART_Transmit_DMA
 1759              		.syntax unified
 1760              		.thumb
 1761              		.thumb_func
 1762              		.fpu softvfp
 1764              	HAL_UART_Transmit_DMA:
 1765              	.LVL130:
 1766              	.LFB76:
 1767              		.loc 1 1302 1 is_stmt 1 view -0
 1768              		.cfi_startproc
 1769              		@ args = 0, pretend = 0, frame = 0
 1770              		@ frame_needed = 0, uses_anonymous_args = 0
 1771              		.loc 1 1303 3 view .LVU522
 1772              		.loc 1 1306 3 view .LVU523
 1773              		.loc 1 1306 12 is_stmt 0 view .LVU524
 1774 0000 90F83930 		ldrb	r3, [r0, #57]	@ zero_extendqisi2
 1775 0004 DBB2     		uxtb	r3, r3
 1776              		.loc 1 1306 6 view .LVU525
 1777 0006 202B     		cmp	r3, #32
 1778 0008 32D1     		bne	.L141
 1779              		.loc 1 1302 1 view .LVU526
 1780 000a 70B5     		push	{r4, r5, r6, lr}
 1781              	.LCFI20:
 1782              		.cfi_def_cfa_offset 16
 1783              		.cfi_offset 4, -16
 1784              		.cfi_offset 5, -12
 1785              		.cfi_offset 6, -8
 1786              		.cfi_offset 14, -4
 1787 000c 0446     		mov	r4, r0
 1788              		.loc 1 1308 5 is_stmt 1 view .LVU527
 1789              		.loc 1 1308 8 is_stmt 0 view .LVU528
 1790 000e 0029     		cmp	r1, #0
 1791 0010 30D0     		beq	.L142
 1792              		.loc 1 1308 25 discriminator 1 view .LVU529
 1793 0012 002A     		cmp	r2, #0
 1794 0014 30D0     		beq	.L143
 1795              		.loc 1 1314 5 is_stmt 1 view .LVU530
 1796              		.loc 1 1314 5 view .LVU531
 1797 0016 90F83830 		ldrb	r3, [r0, #56]	@ zero_extendqisi2
 1798 001a 012B     		cmp	r3, #1
 1799 001c 2ED0     		beq	.L144
ARM GAS  C:\Users\38164\AppData\Local\Temp\ccqRiAWJ.s 			page 32


 1800              		.loc 1 1314 5 discriminator 2 view .LVU532
 1801 001e 0123     		movs	r3, #1
 1802 0020 80F83830 		strb	r3, [r0, #56]
 1803              		.loc 1 1314 5 discriminator 2 view .LVU533
 1804              		.loc 1 1316 5 discriminator 2 view .LVU534
 1805              		.loc 1 1316 23 is_stmt 0 discriminator 2 view .LVU535
 1806 0024 0162     		str	r1, [r0, #32]
 1807              		.loc 1 1317 5 is_stmt 1 discriminator 2 view .LVU536
 1808              		.loc 1 1317 23 is_stmt 0 discriminator 2 view .LVU537
 1809 0026 8284     		strh	r2, [r0, #36]	@ movhi
 1810              		.loc 1 1318 5 is_stmt 1 discriminator 2 view .LVU538
 1811              		.loc 1 1318 24 is_stmt 0 discriminator 2 view .LVU539
 1812 0028 C284     		strh	r2, [r0, #38]	@ movhi
 1813              		.loc 1 1320 5 is_stmt 1 discriminator 2 view .LVU540
 1814              		.loc 1 1320 22 is_stmt 0 discriminator 2 view .LVU541
 1815 002a 0025     		movs	r5, #0
 1816 002c C563     		str	r5, [r0, #60]
 1817              		.loc 1 1321 5 is_stmt 1 discriminator 2 view .LVU542
 1818              		.loc 1 1321 19 is_stmt 0 discriminator 2 view .LVU543
 1819 002e 2123     		movs	r3, #33
 1820 0030 80F83930 		strb	r3, [r0, #57]
 1821              		.loc 1 1324 5 is_stmt 1 discriminator 2 view .LVU544
 1822              		.loc 1 1324 10 is_stmt 0 discriminator 2 view .LVU545
 1823 0034 036B     		ldr	r3, [r0, #48]
 1824              		.loc 1 1324 37 discriminator 2 view .LVU546
 1825 0036 1248     		ldr	r0, .L149
 1826              	.LVL131:
 1827              		.loc 1 1324 37 discriminator 2 view .LVU547
 1828 0038 9862     		str	r0, [r3, #40]
 1829              		.loc 1 1327 5 is_stmt 1 discriminator 2 view .LVU548
 1830              		.loc 1 1327 10 is_stmt 0 discriminator 2 view .LVU549
 1831 003a 236B     		ldr	r3, [r4, #48]
 1832              		.loc 1 1327 41 discriminator 2 view .LVU550
 1833 003c 1148     		ldr	r0, .L149+4
 1834 003e D862     		str	r0, [r3, #44]
 1835              		.loc 1 1330 5 is_stmt 1 discriminator 2 view .LVU551
 1836              		.loc 1 1330 10 is_stmt 0 discriminator 2 view .LVU552
 1837 0040 236B     		ldr	r3, [r4, #48]
 1838              		.loc 1 1330 38 discriminator 2 view .LVU553
 1839 0042 1148     		ldr	r0, .L149+8
 1840 0044 1863     		str	r0, [r3, #48]
 1841              		.loc 1 1333 5 is_stmt 1 discriminator 2 view .LVU554
 1842              		.loc 1 1333 10 is_stmt 0 discriminator 2 view .LVU555
 1843 0046 236B     		ldr	r3, [r4, #48]
 1844              		.loc 1 1333 38 discriminator 2 view .LVU556
 1845 0048 5D63     		str	r5, [r3, #52]
 1846              		.loc 1 1336 5 is_stmt 1 discriminator 2 view .LVU557
 1847              	.LVL132:
 1848              		.loc 1 1337 5 discriminator 2 view .LVU558
 1849              		.loc 1 1337 71 is_stmt 0 discriminator 2 view .LVU559
 1850 004a 2068     		ldr	r0, [r4]
 1851              		.loc 1 1337 5 discriminator 2 view .LVU560
 1852 004c 1346     		mov	r3, r2
 1853 004e 021D     		adds	r2, r0, #4
 1854              	.LVL133:
 1855              		.loc 1 1337 5 discriminator 2 view .LVU561
 1856 0050 206B     		ldr	r0, [r4, #48]
ARM GAS  C:\Users\38164\AppData\Local\Temp\ccqRiAWJ.s 			page 33


 1857 0052 0E4E     		ldr	r6, .L149+12
 1858 0054 B047     		blx	r6
 1859              	.LVL134:
 1860              		.loc 1 1340 5 is_stmt 1 discriminator 2 view .LVU562
 1861 0056 2368     		ldr	r3, [r4]
 1862 0058 6FF04002 		mvn	r2, #64
 1863 005c 1A60     		str	r2, [r3]
 1864              		.loc 1 1343 5 discriminator 2 view .LVU563
 1865              		.loc 1 1343 5 discriminator 2 view .LVU564
 1866 005e 84F83850 		strb	r5, [r4, #56]
 1867              		.loc 1 1343 5 discriminator 2 view .LVU565
 1868              		.loc 1 1347 5 discriminator 2 view .LVU566
 1869 0062 2268     		ldr	r2, [r4]
 1870 0064 5369     		ldr	r3, [r2, #20]
 1871 0066 43F08003 		orr	r3, r3, #128
 1872 006a 5361     		str	r3, [r2, #20]
 1873              		.loc 1 1349 5 discriminator 2 view .LVU567
 1874              		.loc 1 1349 12 is_stmt 0 discriminator 2 view .LVU568
 1875 006c 2846     		mov	r0, r5
 1876              	.LVL135:
 1877              	.L140:
 1878              		.loc 1 1355 1 view .LVU569
 1879 006e 70BD     		pop	{r4, r5, r6, pc}
 1880              	.LVL136:
 1881              	.L141:
 1882              	.LCFI21:
 1883              		.cfi_def_cfa_offset 0
 1884              		.cfi_restore 4
 1885              		.cfi_restore 5
 1886              		.cfi_restore 6
 1887              		.cfi_restore 14
 1888              		.loc 1 1353 12 view .LVU570
 1889 0070 0220     		movs	r0, #2
 1890              	.LVL137:
 1891              		.loc 1 1355 1 view .LVU571
 1892 0072 7047     		bx	lr
 1893              	.LVL138:
 1894              	.L142:
 1895              	.LCFI22:
 1896              		.cfi_def_cfa_offset 16
 1897              		.cfi_offset 4, -16
 1898              		.cfi_offset 5, -12
 1899              		.cfi_offset 6, -8
 1900              		.cfi_offset 14, -4
 1901              		.loc 1 1310 14 view .LVU572
 1902 0074 0120     		movs	r0, #1
 1903              	.LVL139:
 1904              		.loc 1 1310 14 view .LVU573
 1905 0076 FAE7     		b	.L140
 1906              	.LVL140:
 1907              	.L143:
 1908              		.loc 1 1310 14 view .LVU574
 1909 0078 0120     		movs	r0, #1
 1910              	.LVL141:
 1911              		.loc 1 1310 14 view .LVU575
 1912 007a F8E7     		b	.L140
 1913              	.LVL142:
ARM GAS  C:\Users\38164\AppData\Local\Temp\ccqRiAWJ.s 			page 34


 1914              	.L144:
 1915              		.loc 1 1314 5 view .LVU576
 1916 007c 0220     		movs	r0, #2
 1917              	.LVL143:
 1918              		.loc 1 1314 5 view .LVU577
 1919 007e F6E7     		b	.L140
 1920              	.L150:
 1921              		.align	2
 1922              	.L149:
 1923 0080 00000000 		.word	UART_DMATransmitCplt
 1924 0084 00000000 		.word	UART_DMATxHalfCplt
 1925 0088 00000000 		.word	UART_DMAError
 1926 008c 00000000 		.word	HAL_DMA_Start_IT
 1927              		.cfi_endproc
 1928              	.LFE76:
 1930              		.section	.text.HAL_UART_Receive_DMA,"ax",%progbits
 1931              		.align	1
 1932              		.global	HAL_UART_Receive_DMA
 1933              		.syntax unified
 1934              		.thumb
 1935              		.thumb_func
 1936              		.fpu softvfp
 1938              	HAL_UART_Receive_DMA:
 1939              	.LVL144:
 1940              	.LFB77:
 1941              		.loc 1 1370 1 is_stmt 1 view -0
 1942              		.cfi_startproc
 1943              		@ args = 0, pretend = 0, frame = 8
 1944              		@ frame_needed = 0, uses_anonymous_args = 0
 1945              		.loc 1 1370 1 is_stmt 0 view .LVU579
 1946 0000 70B5     		push	{r4, r5, r6, lr}
 1947              	.LCFI23:
 1948              		.cfi_def_cfa_offset 16
 1949              		.cfi_offset 4, -16
 1950              		.cfi_offset 5, -12
 1951              		.cfi_offset 6, -8
 1952              		.cfi_offset 14, -4
 1953 0002 82B0     		sub	sp, sp, #8
 1954              	.LCFI24:
 1955              		.cfi_def_cfa_offset 24
 1956 0004 0446     		mov	r4, r0
 1957              		.loc 1 1371 3 is_stmt 1 view .LVU580
 1958              		.loc 1 1374 3 view .LVU581
 1959              		.loc 1 1374 12 is_stmt 0 view .LVU582
 1960 0006 90F83A00 		ldrb	r0, [r0, #58]	@ zero_extendqisi2
 1961              	.LVL145:
 1962              		.loc 1 1374 12 view .LVU583
 1963 000a C0B2     		uxtb	r0, r0
 1964              		.loc 1 1374 6 view .LVU584
 1965 000c 2028     		cmp	r0, #32
 1966 000e 3CD1     		bne	.L153
 1967              		.loc 1 1376 5 is_stmt 1 view .LVU585
 1968              		.loc 1 1376 8 is_stmt 0 view .LVU586
 1969 0010 0029     		cmp	r1, #0
 1970 0012 3DD0     		beq	.L154
 1971              		.loc 1 1376 25 discriminator 1 view .LVU587
 1972 0014 002A     		cmp	r2, #0
ARM GAS  C:\Users\38164\AppData\Local\Temp\ccqRiAWJ.s 			page 35


 1973 0016 3DD0     		beq	.L155
 1974              		.loc 1 1382 5 is_stmt 1 view .LVU588
 1975              		.loc 1 1382 5 view .LVU589
 1976 0018 94F83830 		ldrb	r3, [r4, #56]	@ zero_extendqisi2
 1977 001c 012B     		cmp	r3, #1
 1978 001e 3BD0     		beq	.L156
 1979              		.loc 1 1382 5 discriminator 2 view .LVU590
 1980 0020 0123     		movs	r3, #1
 1981 0022 84F83830 		strb	r3, [r4, #56]
 1982              		.loc 1 1382 5 discriminator 2 view .LVU591
 1983              		.loc 1 1384 5 discriminator 2 view .LVU592
 1984              		.loc 1 1384 23 is_stmt 0 discriminator 2 view .LVU593
 1985 0026 A162     		str	r1, [r4, #40]
 1986              		.loc 1 1385 5 is_stmt 1 discriminator 2 view .LVU594
 1987              		.loc 1 1385 23 is_stmt 0 discriminator 2 view .LVU595
 1988 0028 A285     		strh	r2, [r4, #44]	@ movhi
 1989              		.loc 1 1387 5 is_stmt 1 discriminator 2 view .LVU596
 1990              		.loc 1 1387 22 is_stmt 0 discriminator 2 view .LVU597
 1991 002a 0025     		movs	r5, #0
 1992 002c E563     		str	r5, [r4, #60]
 1993              		.loc 1 1388 5 is_stmt 1 discriminator 2 view .LVU598
 1994              		.loc 1 1388 20 is_stmt 0 discriminator 2 view .LVU599
 1995 002e 2223     		movs	r3, #34
 1996 0030 84F83A30 		strb	r3, [r4, #58]
 1997              		.loc 1 1391 5 is_stmt 1 discriminator 2 view .LVU600
 1998              		.loc 1 1391 10 is_stmt 0 discriminator 2 view .LVU601
 1999 0034 636B     		ldr	r3, [r4, #52]
 2000              		.loc 1 1391 37 discriminator 2 view .LVU602
 2001 0036 1948     		ldr	r0, .L158
 2002 0038 9862     		str	r0, [r3, #40]
 2003              		.loc 1 1394 5 is_stmt 1 discriminator 2 view .LVU603
 2004              		.loc 1 1394 10 is_stmt 0 discriminator 2 view .LVU604
 2005 003a 636B     		ldr	r3, [r4, #52]
 2006              		.loc 1 1394 41 discriminator 2 view .LVU605
 2007 003c 1848     		ldr	r0, .L158+4
 2008 003e D862     		str	r0, [r3, #44]
 2009              		.loc 1 1397 5 is_stmt 1 discriminator 2 view .LVU606
 2010              		.loc 1 1397 10 is_stmt 0 discriminator 2 view .LVU607
 2011 0040 636B     		ldr	r3, [r4, #52]
 2012              		.loc 1 1397 38 discriminator 2 view .LVU608
 2013 0042 1848     		ldr	r0, .L158+8
 2014 0044 1863     		str	r0, [r3, #48]
 2015              		.loc 1 1400 5 is_stmt 1 discriminator 2 view .LVU609
 2016              		.loc 1 1400 10 is_stmt 0 discriminator 2 view .LVU610
 2017 0046 636B     		ldr	r3, [r4, #52]
 2018              		.loc 1 1400 38 discriminator 2 view .LVU611
 2019 0048 5D63     		str	r5, [r3, #52]
 2020              		.loc 1 1403 5 is_stmt 1 discriminator 2 view .LVU612
 2021              	.LVL146:
 2022              		.loc 1 1404 5 discriminator 2 view .LVU613
 2023              		.loc 1 1404 53 is_stmt 0 discriminator 2 view .LVU614
 2024 004a 2068     		ldr	r0, [r4]
 2025              		.loc 1 1404 5 discriminator 2 view .LVU615
 2026 004c 1346     		mov	r3, r2
 2027 004e 0A46     		mov	r2, r1
 2028              	.LVL147:
 2029              		.loc 1 1404 5 discriminator 2 view .LVU616
ARM GAS  C:\Users\38164\AppData\Local\Temp\ccqRiAWJ.s 			page 36


 2030 0050 011D     		adds	r1, r0, #4
 2031              	.LVL148:
 2032              		.loc 1 1404 5 discriminator 2 view .LVU617
 2033 0052 606B     		ldr	r0, [r4, #52]
 2034 0054 144E     		ldr	r6, .L158+12
 2035 0056 B047     		blx	r6
 2036              	.LVL149:
 2037              		.loc 1 1407 5 is_stmt 1 discriminator 2 view .LVU618
 2038              	.LBB2:
 2039              		.loc 1 1407 5 discriminator 2 view .LVU619
 2040 0058 0195     		str	r5, [sp, #4]
 2041              		.loc 1 1407 5 discriminator 2 view .LVU620
 2042 005a 2368     		ldr	r3, [r4]
 2043 005c 1A68     		ldr	r2, [r3]
 2044 005e 0192     		str	r2, [sp, #4]
 2045              		.loc 1 1407 5 discriminator 2 view .LVU621
 2046 0060 5A68     		ldr	r2, [r3, #4]
 2047 0062 0192     		str	r2, [sp, #4]
 2048              		.loc 1 1407 5 discriminator 2 view .LVU622
 2049 0064 019A     		ldr	r2, [sp, #4]
 2050              	.LBE2:
 2051              		.loc 1 1407 5 discriminator 2 view .LVU623
 2052              		.loc 1 1410 5 discriminator 2 view .LVU624
 2053              		.loc 1 1410 5 discriminator 2 view .LVU625
 2054 0066 84F83850 		strb	r5, [r4, #56]
 2055              		.loc 1 1410 5 discriminator 2 view .LVU626
 2056              		.loc 1 1413 5 discriminator 2 view .LVU627
 2057 006a DA68     		ldr	r2, [r3, #12]
 2058 006c 42F48072 		orr	r2, r2, #256
 2059 0070 DA60     		str	r2, [r3, #12]
 2060              		.loc 1 1416 5 discriminator 2 view .LVU628
 2061 0072 2268     		ldr	r2, [r4]
 2062 0074 5369     		ldr	r3, [r2, #20]
 2063 0076 43F00103 		orr	r3, r3, #1
 2064 007a 5361     		str	r3, [r2, #20]
 2065              		.loc 1 1420 5 discriminator 2 view .LVU629
 2066 007c 2268     		ldr	r2, [r4]
 2067 007e 5369     		ldr	r3, [r2, #20]
 2068 0080 43F04003 		orr	r3, r3, #64
 2069 0084 5361     		str	r3, [r2, #20]
 2070              		.loc 1 1422 5 discriminator 2 view .LVU630
 2071              		.loc 1 1422 12 is_stmt 0 discriminator 2 view .LVU631
 2072 0086 2846     		mov	r0, r5
 2073 0088 00E0     		b	.L152
 2074              	.LVL150:
 2075              	.L153:
 2076              		.loc 1 1426 12 view .LVU632
 2077 008a 0220     		movs	r0, #2
 2078              	.LVL151:
 2079              	.L152:
 2080              		.loc 1 1428 1 view .LVU633
 2081 008c 02B0     		add	sp, sp, #8
 2082              	.LCFI25:
 2083              		.cfi_remember_state
 2084              		.cfi_def_cfa_offset 16
 2085              		@ sp needed
 2086 008e 70BD     		pop	{r4, r5, r6, pc}
ARM GAS  C:\Users\38164\AppData\Local\Temp\ccqRiAWJ.s 			page 37


 2087              	.LVL152:
 2088              	.L154:
 2089              	.LCFI26:
 2090              		.cfi_restore_state
 2091              		.loc 1 1378 14 view .LVU634
 2092 0090 0120     		movs	r0, #1
 2093 0092 FBE7     		b	.L152
 2094              	.L155:
 2095 0094 0120     		movs	r0, #1
 2096 0096 F9E7     		b	.L152
 2097              	.L156:
 2098              		.loc 1 1382 5 view .LVU635
 2099 0098 0220     		movs	r0, #2
 2100 009a F7E7     		b	.L152
 2101              	.L159:
 2102              		.align	2
 2103              	.L158:
 2104 009c 00000000 		.word	UART_DMAReceiveCplt
 2105 00a0 00000000 		.word	UART_DMARxHalfCplt
 2106 00a4 00000000 		.word	UART_DMAError
 2107 00a8 00000000 		.word	HAL_DMA_Start_IT
 2108              		.cfi_endproc
 2109              	.LFE77:
 2111              		.section	.text.HAL_UART_DMAPause,"ax",%progbits
 2112              		.align	1
 2113              		.global	HAL_UART_DMAPause
 2114              		.syntax unified
 2115              		.thumb
 2116              		.thumb_func
 2117              		.fpu softvfp
 2119              	HAL_UART_DMAPause:
 2120              	.LVL153:
 2121              	.LFB78:
 2122              		.loc 1 1437 1 is_stmt 1 view -0
 2123              		.cfi_startproc
 2124              		@ args = 0, pretend = 0, frame = 0
 2125              		@ frame_needed = 0, uses_anonymous_args = 0
 2126              		@ link register save eliminated.
 2127              		.loc 1 1438 3 view .LVU637
 2128              		.loc 1 1441 3 view .LVU638
 2129              		.loc 1 1441 3 view .LVU639
 2130 0000 90F83830 		ldrb	r3, [r0, #56]	@ zero_extendqisi2
 2131 0004 012B     		cmp	r3, #1
 2132 0006 31D0     		beq	.L164
 2133              		.loc 1 1441 3 discriminator 2 view .LVU640
 2134 0008 0123     		movs	r3, #1
 2135 000a 80F83830 		strb	r3, [r0, #56]
 2136              		.loc 1 1441 3 discriminator 2 view .LVU641
 2137              		.loc 1 1443 3 discriminator 2 view .LVU642
 2138              		.loc 1 1443 16 is_stmt 0 discriminator 2 view .LVU643
 2139 000e 0168     		ldr	r1, [r0]
 2140 0010 4A69     		ldr	r2, [r1, #20]
 2141 0012 02F08002 		and	r2, r2, #128
 2142              	.LVL154:
 2143              		.loc 1 1444 3 is_stmt 1 discriminator 2 view .LVU644
 2144              		.loc 1 1444 13 is_stmt 0 discriminator 2 view .LVU645
 2145 0016 90F83930 		ldrb	r3, [r0, #57]	@ zero_extendqisi2
ARM GAS  C:\Users\38164\AppData\Local\Temp\ccqRiAWJ.s 			page 38


 2146 001a DBB2     		uxtb	r3, r3
 2147              		.loc 1 1444 6 discriminator 2 view .LVU646
 2148 001c 212B     		cmp	r3, #33
 2149 001e 0DD0     		beq	.L165
 2150              	.L162:
 2151              		.loc 1 1450 3 is_stmt 1 view .LVU647
 2152              		.loc 1 1450 16 is_stmt 0 view .LVU648
 2153 0020 0168     		ldr	r1, [r0]
 2154 0022 4A69     		ldr	r2, [r1, #20]
 2155              	.LVL155:
 2156              		.loc 1 1450 16 view .LVU649
 2157 0024 02F04002 		and	r2, r2, #64
 2158              	.LVL156:
 2159              		.loc 1 1451 3 is_stmt 1 view .LVU650
 2160              		.loc 1 1451 13 is_stmt 0 view .LVU651
 2161 0028 90F83A30 		ldrb	r3, [r0, #58]	@ zero_extendqisi2
 2162 002c DBB2     		uxtb	r3, r3
 2163              		.loc 1 1451 6 view .LVU652
 2164 002e 222B     		cmp	r3, #34
 2165 0030 0BD0     		beq	.L166
 2166              	.LVL157:
 2167              	.L163:
 2168              		.loc 1 1462 3 is_stmt 1 view .LVU653
 2169              		.loc 1 1462 3 view .LVU654
 2170 0032 0023     		movs	r3, #0
 2171 0034 80F83830 		strb	r3, [r0, #56]
 2172              		.loc 1 1462 3 view .LVU655
 2173              		.loc 1 1464 3 view .LVU656
 2174              		.loc 1 1464 10 is_stmt 0 view .LVU657
 2175 0038 1846     		mov	r0, r3
 2176              	.LVL158:
 2177              		.loc 1 1464 10 view .LVU658
 2178 003a 7047     		bx	lr
 2179              	.LVL159:
 2180              	.L165:
 2181              		.loc 1 1444 49 discriminator 1 view .LVU659
 2182 003c 002A     		cmp	r2, #0
 2183 003e EFD0     		beq	.L162
 2184              		.loc 1 1447 5 is_stmt 1 view .LVU660
 2185 0040 4B69     		ldr	r3, [r1, #20]
 2186 0042 23F08003 		bic	r3, r3, #128
 2187 0046 4B61     		str	r3, [r1, #20]
 2188 0048 EAE7     		b	.L162
 2189              	.L166:
 2190              		.loc 1 1451 50 is_stmt 0 discriminator 1 view .LVU661
 2191 004a 002A     		cmp	r2, #0
 2192 004c F1D0     		beq	.L163
 2193              		.loc 1 1454 5 is_stmt 1 view .LVU662
 2194 004e CB68     		ldr	r3, [r1, #12]
 2195 0050 23F48073 		bic	r3, r3, #256
 2196 0054 CB60     		str	r3, [r1, #12]
 2197              		.loc 1 1455 5 view .LVU663
 2198 0056 0268     		ldr	r2, [r0]
 2199              	.LVL160:
 2200              		.loc 1 1455 5 is_stmt 0 view .LVU664
 2201 0058 5369     		ldr	r3, [r2, #20]
 2202 005a 23F00103 		bic	r3, r3, #1
ARM GAS  C:\Users\38164\AppData\Local\Temp\ccqRiAWJ.s 			page 39


 2203 005e 5361     		str	r3, [r2, #20]
 2204              		.loc 1 1458 5 is_stmt 1 view .LVU665
 2205 0060 0268     		ldr	r2, [r0]
 2206 0062 5369     		ldr	r3, [r2, #20]
 2207 0064 23F04003 		bic	r3, r3, #64
 2208 0068 5361     		str	r3, [r2, #20]
 2209 006a E2E7     		b	.L163
 2210              	.LVL161:
 2211              	.L164:
 2212              		.loc 1 1441 3 is_stmt 0 view .LVU666
 2213 006c 0220     		movs	r0, #2
 2214              	.LVL162:
 2215              		.loc 1 1465 1 view .LVU667
 2216 006e 7047     		bx	lr
 2217              		.cfi_endproc
 2218              	.LFE78:
 2220              		.section	.text.HAL_UART_DMAResume,"ax",%progbits
 2221              		.align	1
 2222              		.global	HAL_UART_DMAResume
 2223              		.syntax unified
 2224              		.thumb
 2225              		.thumb_func
 2226              		.fpu softvfp
 2228              	HAL_UART_DMAResume:
 2229              	.LVL163:
 2230              	.LFB79:
 2231              		.loc 1 1474 1 is_stmt 1 view -0
 2232              		.cfi_startproc
 2233              		@ args = 0, pretend = 0, frame = 8
 2234              		@ frame_needed = 0, uses_anonymous_args = 0
 2235              		@ link register save eliminated.
 2236              		.loc 1 1476 3 view .LVU669
 2237              		.loc 1 1476 3 view .LVU670
 2238 0000 90F83830 		ldrb	r3, [r0, #56]	@ zero_extendqisi2
 2239 0004 012B     		cmp	r3, #1
 2240 0006 34D0     		beq	.L171
 2241              		.loc 1 1476 3 discriminator 2 view .LVU671
 2242 0008 0123     		movs	r3, #1
 2243 000a 80F83830 		strb	r3, [r0, #56]
 2244              		.loc 1 1476 3 discriminator 2 view .LVU672
 2245              		.loc 1 1478 3 discriminator 2 view .LVU673
 2246              		.loc 1 1478 12 is_stmt 0 discriminator 2 view .LVU674
 2247 000e 90F83930 		ldrb	r3, [r0, #57]	@ zero_extendqisi2
 2248 0012 DBB2     		uxtb	r3, r3
 2249              		.loc 1 1478 6 discriminator 2 view .LVU675
 2250 0014 212B     		cmp	r3, #33
 2251 0016 09D0     		beq	.L177
 2252              	.L169:
 2253              		.loc 1 1484 3 is_stmt 1 view .LVU676
 2254              		.loc 1 1484 12 is_stmt 0 view .LVU677
 2255 0018 90F83A30 		ldrb	r3, [r0, #58]	@ zero_extendqisi2
 2256 001c DBB2     		uxtb	r3, r3
 2257              		.loc 1 1484 6 view .LVU678
 2258 001e 222B     		cmp	r3, #34
 2259 0020 0AD0     		beq	.L178
 2260              		.loc 1 1498 3 is_stmt 1 view .LVU679
 2261              		.loc 1 1498 3 view .LVU680
ARM GAS  C:\Users\38164\AppData\Local\Temp\ccqRiAWJ.s 			page 40


 2262 0022 0023     		movs	r3, #0
 2263 0024 80F83830 		strb	r3, [r0, #56]
 2264              		.loc 1 1498 3 view .LVU681
 2265              		.loc 1 1500 3 view .LVU682
 2266              		.loc 1 1500 10 is_stmt 0 view .LVU683
 2267 0028 1846     		mov	r0, r3
 2268              	.LVL164:
 2269              		.loc 1 1501 1 view .LVU684
 2270 002a 7047     		bx	lr
 2271              	.LVL165:
 2272              	.L177:
 2273              		.loc 1 1481 5 is_stmt 1 view .LVU685
 2274 002c 0268     		ldr	r2, [r0]
 2275 002e 5369     		ldr	r3, [r2, #20]
 2276 0030 43F08003 		orr	r3, r3, #128
 2277 0034 5361     		str	r3, [r2, #20]
 2278 0036 EFE7     		b	.L169
 2279              	.L178:
 2280              		.loc 1 1474 1 is_stmt 0 view .LVU686
 2281 0038 82B0     		sub	sp, sp, #8
 2282              	.LCFI27:
 2283              		.cfi_def_cfa_offset 8
 2284              		.loc 1 1487 5 is_stmt 1 view .LVU687
 2285              	.LBB3:
 2286              		.loc 1 1487 5 view .LVU688
 2287 003a 0023     		movs	r3, #0
 2288 003c 0193     		str	r3, [sp, #4]
 2289              		.loc 1 1487 5 view .LVU689
 2290 003e 0368     		ldr	r3, [r0]
 2291 0040 1A68     		ldr	r2, [r3]
 2292 0042 0192     		str	r2, [sp, #4]
 2293              		.loc 1 1487 5 view .LVU690
 2294 0044 5A68     		ldr	r2, [r3, #4]
 2295 0046 0192     		str	r2, [sp, #4]
 2296              		.loc 1 1487 5 view .LVU691
 2297 0048 019A     		ldr	r2, [sp, #4]
 2298              	.LBE3:
 2299              		.loc 1 1487 5 view .LVU692
 2300              		.loc 1 1490 5 view .LVU693
 2301 004a DA68     		ldr	r2, [r3, #12]
 2302 004c 42F48072 		orr	r2, r2, #256
 2303 0050 DA60     		str	r2, [r3, #12]
 2304              		.loc 1 1491 5 view .LVU694
 2305 0052 0268     		ldr	r2, [r0]
 2306 0054 5369     		ldr	r3, [r2, #20]
 2307 0056 43F00103 		orr	r3, r3, #1
 2308 005a 5361     		str	r3, [r2, #20]
 2309              		.loc 1 1494 5 view .LVU695
 2310 005c 0268     		ldr	r2, [r0]
 2311 005e 5369     		ldr	r3, [r2, #20]
 2312 0060 43F04003 		orr	r3, r3, #64
 2313 0064 5361     		str	r3, [r2, #20]
 2314              		.loc 1 1498 3 view .LVU696
 2315              		.loc 1 1498 3 view .LVU697
 2316 0066 0023     		movs	r3, #0
 2317 0068 80F83830 		strb	r3, [r0, #56]
 2318              		.loc 1 1498 3 view .LVU698
ARM GAS  C:\Users\38164\AppData\Local\Temp\ccqRiAWJ.s 			page 41


 2319              		.loc 1 1500 3 view .LVU699
 2320              		.loc 1 1500 10 is_stmt 0 view .LVU700
 2321 006c 1846     		mov	r0, r3
 2322              	.LVL166:
 2323              		.loc 1 1501 1 view .LVU701
 2324 006e 02B0     		add	sp, sp, #8
 2325              	.LCFI28:
 2326              		.cfi_def_cfa_offset 0
 2327              		@ sp needed
 2328 0070 7047     		bx	lr
 2329              	.LVL167:
 2330              	.L171:
 2331              		.loc 1 1476 3 view .LVU702
 2332 0072 0220     		movs	r0, #2
 2333              	.LVL168:
 2334              		.loc 1 1476 3 view .LVU703
 2335 0074 7047     		bx	lr
 2336              		.cfi_endproc
 2337              	.LFE79:
 2339              		.section	.text.HAL_UART_DMAStop,"ax",%progbits
 2340              		.align	1
 2341              		.global	HAL_UART_DMAStop
 2342              		.syntax unified
 2343              		.thumb
 2344              		.thumb_func
 2345              		.fpu softvfp
 2347              	HAL_UART_DMAStop:
 2348              	.LVL169:
 2349              	.LFB80:
 2350              		.loc 1 1510 1 is_stmt 1 view -0
 2351              		.cfi_startproc
 2352              		@ args = 0, pretend = 0, frame = 0
 2353              		@ frame_needed = 0, uses_anonymous_args = 0
 2354              		.loc 1 1510 1 is_stmt 0 view .LVU705
 2355 0000 10B5     		push	{r4, lr}
 2356              	.LCFI29:
 2357              		.cfi_def_cfa_offset 8
 2358              		.cfi_offset 4, -8
 2359              		.cfi_offset 14, -4
 2360 0002 0446     		mov	r4, r0
 2361              		.loc 1 1511 3 is_stmt 1 view .LVU706
 2362              	.LVL170:
 2363              		.loc 1 1519 3 view .LVU707
 2364              		.loc 1 1519 16 is_stmt 0 view .LVU708
 2365 0004 0168     		ldr	r1, [r0]
 2366 0006 4A69     		ldr	r2, [r1, #20]
 2367              	.LVL171:
 2368              		.loc 1 1520 3 is_stmt 1 view .LVU709
 2369              		.loc 1 1520 13 is_stmt 0 view .LVU710
 2370 0008 90F83930 		ldrb	r3, [r0, #57]	@ zero_extendqisi2
 2371 000c DBB2     		uxtb	r3, r3
 2372              		.loc 1 1520 6 view .LVU711
 2373 000e 212B     		cmp	r3, #33
 2374 0010 0AD0     		beq	.L185
 2375              	.LVL172:
 2376              	.L180:
 2377              		.loc 1 1533 3 is_stmt 1 view .LVU712
ARM GAS  C:\Users\38164\AppData\Local\Temp\ccqRiAWJ.s 			page 42


 2378              		.loc 1 1533 16 is_stmt 0 view .LVU713
 2379 0012 2168     		ldr	r1, [r4]
 2380 0014 4A69     		ldr	r2, [r1, #20]
 2381 0016 02F04002 		and	r2, r2, #64
 2382              	.LVL173:
 2383              		.loc 1 1534 3 is_stmt 1 view .LVU714
 2384              		.loc 1 1534 13 is_stmt 0 view .LVU715
 2385 001a 94F83A30 		ldrb	r3, [r4, #58]	@ zero_extendqisi2
 2386 001e DBB2     		uxtb	r3, r3
 2387              		.loc 1 1534 6 view .LVU716
 2388 0020 222B     		cmp	r3, #34
 2389 0022 11D0     		beq	.L186
 2390              	.LVL174:
 2391              	.L182:
 2392              		.loc 1 1546 3 is_stmt 1 view .LVU717
 2393              		.loc 1 1547 1 is_stmt 0 view .LVU718
 2394 0024 0020     		movs	r0, #0
 2395 0026 10BD     		pop	{r4, pc}
 2396              	.LVL175:
 2397              	.L185:
 2398              		.loc 1 1547 1 view .LVU719
 2399 0028 02F08002 		and	r2, r2, #128
 2400              	.LVL176:
 2401              		.loc 1 1520 49 discriminator 1 view .LVU720
 2402 002c 002A     		cmp	r2, #0
 2403 002e F0D0     		beq	.L180
 2404              		.loc 1 1522 5 is_stmt 1 view .LVU721
 2405 0030 4B69     		ldr	r3, [r1, #20]
 2406 0032 23F08003 		bic	r3, r3, #128
 2407 0036 4B61     		str	r3, [r1, #20]
 2408              		.loc 1 1525 5 view .LVU722
 2409              		.loc 1 1525 14 is_stmt 0 view .LVU723
 2410 0038 006B     		ldr	r0, [r0, #48]
 2411              	.LVL177:
 2412              		.loc 1 1525 8 view .LVU724
 2413 003a 08B1     		cbz	r0, .L181
 2414              		.loc 1 1527 7 is_stmt 1 view .LVU725
 2415 003c 094B     		ldr	r3, .L187
 2416 003e 9847     		blx	r3
 2417              	.LVL178:
 2418              	.L181:
 2419              		.loc 1 1529 5 view .LVU726
 2420 0040 2046     		mov	r0, r4
 2421 0042 094B     		ldr	r3, .L187+4
 2422 0044 9847     		blx	r3
 2423              	.LVL179:
 2424 0046 E4E7     		b	.L180
 2425              	.LVL180:
 2426              	.L186:
 2427              		.loc 1 1534 50 is_stmt 0 discriminator 1 view .LVU727
 2428 0048 002A     		cmp	r2, #0
 2429 004a EBD0     		beq	.L182
 2430              		.loc 1 1536 5 is_stmt 1 view .LVU728
 2431 004c 4B69     		ldr	r3, [r1, #20]
 2432 004e 23F04003 		bic	r3, r3, #64
 2433 0052 4B61     		str	r3, [r1, #20]
 2434              		.loc 1 1539 5 view .LVU729
ARM GAS  C:\Users\38164\AppData\Local\Temp\ccqRiAWJ.s 			page 43


 2435              		.loc 1 1539 14 is_stmt 0 view .LVU730
 2436 0054 606B     		ldr	r0, [r4, #52]
 2437              		.loc 1 1539 8 view .LVU731
 2438 0056 08B1     		cbz	r0, .L183
 2439              		.loc 1 1541 7 is_stmt 1 view .LVU732
 2440 0058 024B     		ldr	r3, .L187
 2441 005a 9847     		blx	r3
 2442              	.LVL181:
 2443              	.L183:
 2444              		.loc 1 1543 5 view .LVU733
 2445 005c 2046     		mov	r0, r4
 2446 005e 034B     		ldr	r3, .L187+8
 2447 0060 9847     		blx	r3
 2448              	.LVL182:
 2449 0062 DFE7     		b	.L182
 2450              	.L188:
 2451              		.align	2
 2452              	.L187:
 2453 0064 00000000 		.word	HAL_DMA_Abort
 2454 0068 00000000 		.word	UART_EndTxTransfer
 2455 006c 00000000 		.word	UART_EndRxTransfer
 2456              		.cfi_endproc
 2457              	.LFE80:
 2459              		.section	.text.HAL_UART_Abort,"ax",%progbits
 2460              		.align	1
 2461              		.global	HAL_UART_Abort
 2462              		.syntax unified
 2463              		.thumb
 2464              		.thumb_func
 2465              		.fpu softvfp
 2467              	HAL_UART_Abort:
 2468              	.LVL183:
 2469              	.LFB81:
 2470              		.loc 1 1562 1 view -0
 2471              		.cfi_startproc
 2472              		@ args = 0, pretend = 0, frame = 0
 2473              		@ frame_needed = 0, uses_anonymous_args = 0
 2474              		.loc 1 1562 1 is_stmt 0 view .LVU735
 2475 0000 10B5     		push	{r4, lr}
 2476              	.LCFI30:
 2477              		.cfi_def_cfa_offset 8
 2478              		.cfi_offset 4, -8
 2479              		.cfi_offset 14, -4
 2480 0002 0446     		mov	r4, r0
 2481              		.loc 1 1564 3 is_stmt 1 view .LVU736
 2482 0004 0268     		ldr	r2, [r0]
 2483 0006 D368     		ldr	r3, [r2, #12]
 2484 0008 23F4F073 		bic	r3, r3, #480
 2485 000c D360     		str	r3, [r2, #12]
 2486              		.loc 1 1565 3 view .LVU737
 2487 000e 0268     		ldr	r2, [r0]
 2488 0010 5369     		ldr	r3, [r2, #20]
 2489 0012 23F00103 		bic	r3, r3, #1
 2490 0016 5361     		str	r3, [r2, #20]
 2491              		.loc 1 1568 3 view .LVU738
 2492              		.loc 1 1568 7 is_stmt 0 view .LVU739
 2493 0018 0368     		ldr	r3, [r0]
ARM GAS  C:\Users\38164\AppData\Local\Temp\ccqRiAWJ.s 			page 44


 2494 001a 5A69     		ldr	r2, [r3, #20]
 2495              		.loc 1 1568 6 view .LVU740
 2496 001c 12F0800F 		tst	r2, #128
 2497 0020 0BD0     		beq	.L190
 2498              		.loc 1 1570 5 is_stmt 1 view .LVU741
 2499 0022 5A69     		ldr	r2, [r3, #20]
 2500 0024 22F08002 		bic	r2, r2, #128
 2501 0028 5A61     		str	r2, [r3, #20]
 2502              		.loc 1 1573 5 view .LVU742
 2503              		.loc 1 1573 14 is_stmt 0 view .LVU743
 2504 002a 036B     		ldr	r3, [r0, #48]
 2505              		.loc 1 1573 8 view .LVU744
 2506 002c 2BB1     		cbz	r3, .L190
 2507              		.loc 1 1577 7 is_stmt 1 view .LVU745
 2508              		.loc 1 1577 40 is_stmt 0 view .LVU746
 2509 002e 0022     		movs	r2, #0
 2510 0030 5A63     		str	r2, [r3, #52]
 2511              		.loc 1 1579 7 is_stmt 1 view .LVU747
 2512              		.loc 1 1579 11 is_stmt 0 view .LVU748
 2513 0032 006B     		ldr	r0, [r0, #48]
 2514              	.LVL184:
 2515              		.loc 1 1579 11 view .LVU749
 2516 0034 174B     		ldr	r3, .L196
 2517 0036 9847     		blx	r3
 2518              	.LVL185:
 2519              		.loc 1 1579 10 view .LVU750
 2520 0038 D0B9     		cbnz	r0, .L194
 2521              	.L190:
 2522              		.loc 1 1593 3 is_stmt 1 view .LVU751
 2523              		.loc 1 1593 7 is_stmt 0 view .LVU752
 2524 003a 2368     		ldr	r3, [r4]
 2525 003c 5A69     		ldr	r2, [r3, #20]
 2526              		.loc 1 1593 6 view .LVU753
 2527 003e 12F0400F 		tst	r2, #64
 2528 0042 0BD0     		beq	.L192
 2529              		.loc 1 1595 5 is_stmt 1 view .LVU754
 2530 0044 5A69     		ldr	r2, [r3, #20]
 2531 0046 22F04002 		bic	r2, r2, #64
 2532 004a 5A61     		str	r2, [r3, #20]
 2533              		.loc 1 1598 5 view .LVU755
 2534              		.loc 1 1598 14 is_stmt 0 view .LVU756
 2535 004c 636B     		ldr	r3, [r4, #52]
 2536              		.loc 1 1598 8 view .LVU757
 2537 004e 2BB1     		cbz	r3, .L192
 2538              		.loc 1 1602 7 is_stmt 1 view .LVU758
 2539              		.loc 1 1602 40 is_stmt 0 view .LVU759
 2540 0050 0022     		movs	r2, #0
 2541 0052 5A63     		str	r2, [r3, #52]
 2542              		.loc 1 1604 7 is_stmt 1 view .LVU760
 2543              		.loc 1 1604 11 is_stmt 0 view .LVU761
 2544 0054 606B     		ldr	r0, [r4, #52]
 2545 0056 0F4B     		ldr	r3, .L196
 2546 0058 9847     		blx	r3
 2547              	.LVL186:
 2548              		.loc 1 1604 10 view .LVU762
 2549 005a 90B9     		cbnz	r0, .L195
 2550              	.L192:
ARM GAS  C:\Users\38164\AppData\Local\Temp\ccqRiAWJ.s 			page 45


 2551              		.loc 1 1618 3 is_stmt 1 view .LVU763
 2552              		.loc 1 1618 22 is_stmt 0 view .LVU764
 2553 005c 0020     		movs	r0, #0
 2554 005e E084     		strh	r0, [r4, #38]	@ movhi
 2555              		.loc 1 1619 3 is_stmt 1 view .LVU765
 2556              		.loc 1 1619 22 is_stmt 0 view .LVU766
 2557 0060 E085     		strh	r0, [r4, #46]	@ movhi
 2558              		.loc 1 1622 3 is_stmt 1 view .LVU767
 2559              		.loc 1 1622 20 is_stmt 0 view .LVU768
 2560 0062 E063     		str	r0, [r4, #60]
 2561              		.loc 1 1625 3 is_stmt 1 view .LVU769
 2562              		.loc 1 1625 18 is_stmt 0 view .LVU770
 2563 0064 2023     		movs	r3, #32
 2564 0066 84F83A30 		strb	r3, [r4, #58]
 2565              		.loc 1 1626 3 is_stmt 1 view .LVU771
 2566              		.loc 1 1626 17 is_stmt 0 view .LVU772
 2567 006a 84F83930 		strb	r3, [r4, #57]
 2568              		.loc 1 1628 3 is_stmt 1 view .LVU773
 2569              	.L191:
 2570              		.loc 1 1629 1 is_stmt 0 view .LVU774
 2571 006e 10BD     		pop	{r4, pc}
 2572              	.LVL187:
 2573              	.L194:
 2574              		.loc 1 1581 9 is_stmt 1 view .LVU775
 2575              		.loc 1 1581 13 is_stmt 0 view .LVU776
 2576 0070 206B     		ldr	r0, [r4, #48]
 2577 0072 094B     		ldr	r3, .L196+4
 2578 0074 9847     		blx	r3
 2579              	.LVL188:
 2580              		.loc 1 1581 12 view .LVU777
 2581 0076 2028     		cmp	r0, #32
 2582 0078 DFD1     		bne	.L190
 2583              		.loc 1 1584 11 is_stmt 1 view .LVU778
 2584              		.loc 1 1584 28 is_stmt 0 view .LVU779
 2585 007a 1023     		movs	r3, #16
 2586 007c E363     		str	r3, [r4, #60]
 2587              		.loc 1 1586 11 is_stmt 1 view .LVU780
 2588              		.loc 1 1586 18 is_stmt 0 view .LVU781
 2589 007e 0320     		movs	r0, #3
 2590 0080 F5E7     		b	.L191
 2591              	.L195:
 2592              		.loc 1 1606 9 is_stmt 1 view .LVU782
 2593              		.loc 1 1606 13 is_stmt 0 view .LVU783
 2594 0082 606B     		ldr	r0, [r4, #52]
 2595 0084 044B     		ldr	r3, .L196+4
 2596 0086 9847     		blx	r3
 2597              	.LVL189:
 2598              		.loc 1 1606 12 view .LVU784
 2599 0088 2028     		cmp	r0, #32
 2600 008a E7D1     		bne	.L192
 2601              		.loc 1 1609 11 is_stmt 1 view .LVU785
 2602              		.loc 1 1609 28 is_stmt 0 view .LVU786
 2603 008c 1023     		movs	r3, #16
 2604 008e E363     		str	r3, [r4, #60]
 2605              		.loc 1 1611 11 is_stmt 1 view .LVU787
 2606              		.loc 1 1611 18 is_stmt 0 view .LVU788
 2607 0090 0320     		movs	r0, #3
ARM GAS  C:\Users\38164\AppData\Local\Temp\ccqRiAWJ.s 			page 46


 2608 0092 ECE7     		b	.L191
 2609              	.L197:
 2610              		.align	2
 2611              	.L196:
 2612 0094 00000000 		.word	HAL_DMA_Abort
 2613 0098 00000000 		.word	HAL_DMA_GetError
 2614              		.cfi_endproc
 2615              	.LFE81:
 2617              		.section	.text.HAL_UART_AbortTransmit,"ax",%progbits
 2618              		.align	1
 2619              		.global	HAL_UART_AbortTransmit
 2620              		.syntax unified
 2621              		.thumb
 2622              		.thumb_func
 2623              		.fpu softvfp
 2625              	HAL_UART_AbortTransmit:
 2626              	.LVL190:
 2627              	.LFB82:
 2628              		.loc 1 1644 1 is_stmt 1 view -0
 2629              		.cfi_startproc
 2630              		@ args = 0, pretend = 0, frame = 0
 2631              		@ frame_needed = 0, uses_anonymous_args = 0
 2632              		.loc 1 1644 1 is_stmt 0 view .LVU790
 2633 0000 10B5     		push	{r4, lr}
 2634              	.LCFI31:
 2635              		.cfi_def_cfa_offset 8
 2636              		.cfi_offset 4, -8
 2637              		.cfi_offset 14, -4
 2638 0002 0446     		mov	r4, r0
 2639              		.loc 1 1646 3 is_stmt 1 view .LVU791
 2640 0004 0268     		ldr	r2, [r0]
 2641 0006 D368     		ldr	r3, [r2, #12]
 2642 0008 23F0C003 		bic	r3, r3, #192
 2643 000c D360     		str	r3, [r2, #12]
 2644              		.loc 1 1649 3 view .LVU792
 2645              		.loc 1 1649 7 is_stmt 0 view .LVU793
 2646 000e 0368     		ldr	r3, [r0]
 2647 0010 5A69     		ldr	r2, [r3, #20]
 2648              		.loc 1 1649 6 view .LVU794
 2649 0012 12F0800F 		tst	r2, #128
 2650 0016 0BD0     		beq	.L199
 2651              		.loc 1 1651 5 is_stmt 1 view .LVU795
 2652 0018 5A69     		ldr	r2, [r3, #20]
 2653 001a 22F08002 		bic	r2, r2, #128
 2654 001e 5A61     		str	r2, [r3, #20]
 2655              		.loc 1 1654 5 view .LVU796
 2656              		.loc 1 1654 14 is_stmt 0 view .LVU797
 2657 0020 036B     		ldr	r3, [r0, #48]
 2658              		.loc 1 1654 8 view .LVU798
 2659 0022 2BB1     		cbz	r3, .L199
 2660              		.loc 1 1658 7 is_stmt 1 view .LVU799
 2661              		.loc 1 1658 40 is_stmt 0 view .LVU800
 2662 0024 0022     		movs	r2, #0
 2663 0026 5A63     		str	r2, [r3, #52]
 2664              		.loc 1 1660 7 is_stmt 1 view .LVU801
 2665              		.loc 1 1660 11 is_stmt 0 view .LVU802
 2666 0028 006B     		ldr	r0, [r0, #48]
ARM GAS  C:\Users\38164\AppData\Local\Temp\ccqRiAWJ.s 			page 47


 2667              	.LVL191:
 2668              		.loc 1 1660 11 view .LVU803
 2669 002a 094B     		ldr	r3, .L203
 2670 002c 9847     		blx	r3
 2671              	.LVL192:
 2672              		.loc 1 1660 10 view .LVU804
 2673 002e 28B9     		cbnz	r0, .L202
 2674              	.L199:
 2675              		.loc 1 1674 3 is_stmt 1 view .LVU805
 2676              		.loc 1 1674 22 is_stmt 0 view .LVU806
 2677 0030 0020     		movs	r0, #0
 2678 0032 E084     		strh	r0, [r4, #38]	@ movhi
 2679              		.loc 1 1677 3 is_stmt 1 view .LVU807
 2680              		.loc 1 1677 17 is_stmt 0 view .LVU808
 2681 0034 2023     		movs	r3, #32
 2682 0036 84F83930 		strb	r3, [r4, #57]
 2683              		.loc 1 1679 3 is_stmt 1 view .LVU809
 2684              	.L200:
 2685              		.loc 1 1680 1 is_stmt 0 view .LVU810
 2686 003a 10BD     		pop	{r4, pc}
 2687              	.LVL193:
 2688              	.L202:
 2689              		.loc 1 1662 9 is_stmt 1 view .LVU811
 2690              		.loc 1 1662 13 is_stmt 0 view .LVU812
 2691 003c 206B     		ldr	r0, [r4, #48]
 2692 003e 054B     		ldr	r3, .L203+4
 2693 0040 9847     		blx	r3
 2694              	.LVL194:
 2695              		.loc 1 1662 12 view .LVU813
 2696 0042 2028     		cmp	r0, #32
 2697 0044 F4D1     		bne	.L199
 2698              		.loc 1 1665 11 is_stmt 1 view .LVU814
 2699              		.loc 1 1665 28 is_stmt 0 view .LVU815
 2700 0046 1023     		movs	r3, #16
 2701 0048 E363     		str	r3, [r4, #60]
 2702              		.loc 1 1667 11 is_stmt 1 view .LVU816
 2703              		.loc 1 1667 18 is_stmt 0 view .LVU817
 2704 004a 0320     		movs	r0, #3
 2705 004c F5E7     		b	.L200
 2706              	.L204:
 2707 004e 00BF     		.align	2
 2708              	.L203:
 2709 0050 00000000 		.word	HAL_DMA_Abort
 2710 0054 00000000 		.word	HAL_DMA_GetError
 2711              		.cfi_endproc
 2712              	.LFE82:
 2714              		.section	.text.HAL_UART_AbortReceive,"ax",%progbits
 2715              		.align	1
 2716              		.global	HAL_UART_AbortReceive
 2717              		.syntax unified
 2718              		.thumb
 2719              		.thumb_func
 2720              		.fpu softvfp
 2722              	HAL_UART_AbortReceive:
 2723              	.LVL195:
 2724              	.LFB83:
 2725              		.loc 1 1695 1 is_stmt 1 view -0
ARM GAS  C:\Users\38164\AppData\Local\Temp\ccqRiAWJ.s 			page 48


 2726              		.cfi_startproc
 2727              		@ args = 0, pretend = 0, frame = 0
 2728              		@ frame_needed = 0, uses_anonymous_args = 0
 2729              		.loc 1 1695 1 is_stmt 0 view .LVU819
 2730 0000 10B5     		push	{r4, lr}
 2731              	.LCFI32:
 2732              		.cfi_def_cfa_offset 8
 2733              		.cfi_offset 4, -8
 2734              		.cfi_offset 14, -4
 2735 0002 0446     		mov	r4, r0
 2736              		.loc 1 1697 3 is_stmt 1 view .LVU820
 2737 0004 0268     		ldr	r2, [r0]
 2738 0006 D368     		ldr	r3, [r2, #12]
 2739 0008 23F49073 		bic	r3, r3, #288
 2740 000c D360     		str	r3, [r2, #12]
 2741              		.loc 1 1698 3 view .LVU821
 2742 000e 0268     		ldr	r2, [r0]
 2743 0010 5369     		ldr	r3, [r2, #20]
 2744 0012 23F00103 		bic	r3, r3, #1
 2745 0016 5361     		str	r3, [r2, #20]
 2746              		.loc 1 1701 3 view .LVU822
 2747              		.loc 1 1701 7 is_stmt 0 view .LVU823
 2748 0018 0368     		ldr	r3, [r0]
 2749 001a 5A69     		ldr	r2, [r3, #20]
 2750              		.loc 1 1701 6 view .LVU824
 2751 001c 12F0400F 		tst	r2, #64
 2752 0020 0BD0     		beq	.L206
 2753              		.loc 1 1703 5 is_stmt 1 view .LVU825
 2754 0022 5A69     		ldr	r2, [r3, #20]
 2755 0024 22F04002 		bic	r2, r2, #64
 2756 0028 5A61     		str	r2, [r3, #20]
 2757              		.loc 1 1706 5 view .LVU826
 2758              		.loc 1 1706 14 is_stmt 0 view .LVU827
 2759 002a 436B     		ldr	r3, [r0, #52]
 2760              		.loc 1 1706 8 view .LVU828
 2761 002c 2BB1     		cbz	r3, .L206
 2762              		.loc 1 1710 7 is_stmt 1 view .LVU829
 2763              		.loc 1 1710 40 is_stmt 0 view .LVU830
 2764 002e 0022     		movs	r2, #0
 2765 0030 5A63     		str	r2, [r3, #52]
 2766              		.loc 1 1712 7 is_stmt 1 view .LVU831
 2767              		.loc 1 1712 11 is_stmt 0 view .LVU832
 2768 0032 406B     		ldr	r0, [r0, #52]
 2769              	.LVL196:
 2770              		.loc 1 1712 11 view .LVU833
 2771 0034 084B     		ldr	r3, .L210
 2772 0036 9847     		blx	r3
 2773              	.LVL197:
 2774              		.loc 1 1712 10 view .LVU834
 2775 0038 28B9     		cbnz	r0, .L209
 2776              	.L206:
 2777              		.loc 1 1726 3 is_stmt 1 view .LVU835
 2778              		.loc 1 1726 22 is_stmt 0 view .LVU836
 2779 003a 0020     		movs	r0, #0
 2780 003c E085     		strh	r0, [r4, #46]	@ movhi
 2781              		.loc 1 1729 3 is_stmt 1 view .LVU837
 2782              		.loc 1 1729 18 is_stmt 0 view .LVU838
ARM GAS  C:\Users\38164\AppData\Local\Temp\ccqRiAWJ.s 			page 49


 2783 003e 2023     		movs	r3, #32
 2784 0040 84F83A30 		strb	r3, [r4, #58]
 2785              		.loc 1 1731 3 is_stmt 1 view .LVU839
 2786              	.L207:
 2787              		.loc 1 1732 1 is_stmt 0 view .LVU840
 2788 0044 10BD     		pop	{r4, pc}
 2789              	.LVL198:
 2790              	.L209:
 2791              		.loc 1 1714 9 is_stmt 1 view .LVU841
 2792              		.loc 1 1714 13 is_stmt 0 view .LVU842
 2793 0046 606B     		ldr	r0, [r4, #52]
 2794 0048 044B     		ldr	r3, .L210+4
 2795 004a 9847     		blx	r3
 2796              	.LVL199:
 2797              		.loc 1 1714 12 view .LVU843
 2798 004c 2028     		cmp	r0, #32
 2799 004e F4D1     		bne	.L206
 2800              		.loc 1 1717 11 is_stmt 1 view .LVU844
 2801              		.loc 1 1717 28 is_stmt 0 view .LVU845
 2802 0050 1023     		movs	r3, #16
 2803 0052 E363     		str	r3, [r4, #60]
 2804              		.loc 1 1719 11 is_stmt 1 view .LVU846
 2805              		.loc 1 1719 18 is_stmt 0 view .LVU847
 2806 0054 0320     		movs	r0, #3
 2807 0056 F5E7     		b	.L207
 2808              	.L211:
 2809              		.align	2
 2810              	.L210:
 2811 0058 00000000 		.word	HAL_DMA_Abort
 2812 005c 00000000 		.word	HAL_DMA_GetError
 2813              		.cfi_endproc
 2814              	.LFE83:
 2816              		.section	.text.HAL_UART_TxCpltCallback,"ax",%progbits
 2817              		.align	1
 2818              		.weak	HAL_UART_TxCpltCallback
 2819              		.syntax unified
 2820              		.thumb
 2821              		.thumb_func
 2822              		.fpu softvfp
 2824              	HAL_UART_TxCpltCallback:
 2825              	.LVL200:
 2826              	.LFB88:
 2827              		.loc 1 2170 1 is_stmt 1 view -0
 2828              		.cfi_startproc
 2829              		@ args = 0, pretend = 0, frame = 0
 2830              		@ frame_needed = 0, uses_anonymous_args = 0
 2831              		@ link register save eliminated.
 2832              		.loc 1 2172 3 view .LVU849
 2833              		.loc 1 2176 1 is_stmt 0 view .LVU850
 2834 0000 7047     		bx	lr
 2835              		.cfi_endproc
 2836              	.LFE88:
 2838              		.section	.text.UART_DMATransmitCplt,"ax",%progbits
 2839              		.align	1
 2840              		.syntax unified
 2841              		.thumb
 2842              		.thumb_func
ARM GAS  C:\Users\38164\AppData\Local\Temp\ccqRiAWJ.s 			page 50


 2843              		.fpu softvfp
 2845              	UART_DMATransmitCplt:
 2846              	.LVL201:
 2847              	.LFB103:
 2848              		.loc 1 2545 1 is_stmt 1 view -0
 2849              		.cfi_startproc
 2850              		@ args = 0, pretend = 0, frame = 0
 2851              		@ frame_needed = 0, uses_anonymous_args = 0
 2852              		.loc 1 2545 1 is_stmt 0 view .LVU852
 2853 0000 08B5     		push	{r3, lr}
 2854              	.LCFI33:
 2855              		.cfi_def_cfa_offset 8
 2856              		.cfi_offset 3, -8
 2857              		.cfi_offset 14, -4
 2858 0002 0346     		mov	r3, r0
 2859              		.loc 1 2546 3 is_stmt 1 view .LVU853
 2860              		.loc 1 2546 23 is_stmt 0 view .LVU854
 2861 0004 406A     		ldr	r0, [r0, #36]
 2862              	.LVL202:
 2863              		.loc 1 2548 3 is_stmt 1 view .LVU855
 2864              		.loc 1 2548 12 is_stmt 0 view .LVU856
 2865 0006 1B68     		ldr	r3, [r3]
 2866              	.LVL203:
 2867              		.loc 1 2548 22 view .LVU857
 2868 0008 1B68     		ldr	r3, [r3]
 2869              		.loc 1 2548 6 view .LVU858
 2870 000a 13F0200F 		tst	r3, #32
 2871 000e 0CD1     		bne	.L214
 2872              		.loc 1 2550 5 is_stmt 1 view .LVU859
 2873              		.loc 1 2550 24 is_stmt 0 view .LVU860
 2874 0010 0023     		movs	r3, #0
 2875 0012 C384     		strh	r3, [r0, #38]	@ movhi
 2876              		.loc 1 2554 5 is_stmt 1 view .LVU861
 2877 0014 0268     		ldr	r2, [r0]
 2878 0016 5369     		ldr	r3, [r2, #20]
 2879 0018 23F08003 		bic	r3, r3, #128
 2880 001c 5361     		str	r3, [r2, #20]
 2881              		.loc 1 2557 5 view .LVU862
 2882 001e 0268     		ldr	r2, [r0]
 2883 0020 D368     		ldr	r3, [r2, #12]
 2884 0022 43F04003 		orr	r3, r3, #64
 2885 0026 D360     		str	r3, [r2, #12]
 2886              	.LVL204:
 2887              	.L213:
 2888              		.loc 1 2571 1 is_stmt 0 view .LVU863
 2889 0028 08BD     		pop	{r3, pc}
 2890              	.LVL205:
 2891              	.L214:
 2892              		.loc 1 2568 5 is_stmt 1 view .LVU864
 2893 002a 014B     		ldr	r3, .L217
 2894 002c 9847     		blx	r3
 2895              	.LVL206:
 2896              		.loc 1 2571 1 is_stmt 0 view .LVU865
 2897 002e FBE7     		b	.L213
 2898              	.L218:
 2899              		.align	2
 2900              	.L217:
ARM GAS  C:\Users\38164\AppData\Local\Temp\ccqRiAWJ.s 			page 51


 2901 0030 00000000 		.word	HAL_UART_TxCpltCallback
 2902              		.cfi_endproc
 2903              	.LFE103:
 2905              		.section	.text.UART_EndTransmit_IT,"ax",%progbits
 2906              		.align	1
 2907              		.syntax unified
 2908              		.thumb
 2909              		.thumb_func
 2910              		.fpu softvfp
 2912              	UART_EndTransmit_IT:
 2913              	.LVL207:
 2914              	.LFB117:
 2915              		.loc 1 2963 1 is_stmt 1 view -0
 2916              		.cfi_startproc
 2917              		@ args = 0, pretend = 0, frame = 0
 2918              		@ frame_needed = 0, uses_anonymous_args = 0
 2919              		.loc 1 2963 1 is_stmt 0 view .LVU867
 2920 0000 08B5     		push	{r3, lr}
 2921              	.LCFI34:
 2922              		.cfi_def_cfa_offset 8
 2923              		.cfi_offset 3, -8
 2924              		.cfi_offset 14, -4
 2925              		.loc 1 2965 3 is_stmt 1 view .LVU868
 2926 0002 0168     		ldr	r1, [r0]
 2927 0004 CA68     		ldr	r2, [r1, #12]
 2928 0006 22F04002 		bic	r2, r2, #64
 2929 000a CA60     		str	r2, [r1, #12]
 2930              		.loc 1 2968 3 view .LVU869
 2931              		.loc 1 2968 17 is_stmt 0 view .LVU870
 2932 000c 2022     		movs	r2, #32
 2933 000e 80F83920 		strb	r2, [r0, #57]
 2934              		.loc 1 2975 3 is_stmt 1 view .LVU871
 2935 0012 024B     		ldr	r3, .L221
 2936 0014 9847     		blx	r3
 2937              	.LVL208:
 2938              		.loc 1 2978 3 view .LVU872
 2939              		.loc 1 2979 1 is_stmt 0 view .LVU873
 2940 0016 0020     		movs	r0, #0
 2941 0018 08BD     		pop	{r3, pc}
 2942              	.L222:
 2943 001a 00BF     		.align	2
 2944              	.L221:
 2945 001c 00000000 		.word	HAL_UART_TxCpltCallback
 2946              		.cfi_endproc
 2947              	.LFE117:
 2949              		.section	.text.HAL_UART_TxHalfCpltCallback,"ax",%progbits
 2950              		.align	1
 2951              		.weak	HAL_UART_TxHalfCpltCallback
 2952              		.syntax unified
 2953              		.thumb
 2954              		.thumb_func
 2955              		.fpu softvfp
 2957              	HAL_UART_TxHalfCpltCallback:
 2958              	.LVL209:
 2959              	.LFB89:
 2960              		.loc 1 2185 1 is_stmt 1 view -0
 2961              		.cfi_startproc
ARM GAS  C:\Users\38164\AppData\Local\Temp\ccqRiAWJ.s 			page 52


 2962              		@ args = 0, pretend = 0, frame = 0
 2963              		@ frame_needed = 0, uses_anonymous_args = 0
 2964              		@ link register save eliminated.
 2965              		.loc 1 2187 3 view .LVU875
 2966              		.loc 1 2191 1 is_stmt 0 view .LVU876
 2967 0000 7047     		bx	lr
 2968              		.cfi_endproc
 2969              	.LFE89:
 2971              		.section	.text.UART_DMATxHalfCplt,"ax",%progbits
 2972              		.align	1
 2973              		.syntax unified
 2974              		.thumb
 2975              		.thumb_func
 2976              		.fpu softvfp
 2978              	UART_DMATxHalfCplt:
 2979              	.LVL210:
 2980              	.LFB104:
 2981              		.loc 1 2580 1 is_stmt 1 view -0
 2982              		.cfi_startproc
 2983              		@ args = 0, pretend = 0, frame = 0
 2984              		@ frame_needed = 0, uses_anonymous_args = 0
 2985              		.loc 1 2580 1 is_stmt 0 view .LVU878
 2986 0000 08B5     		push	{r3, lr}
 2987              	.LCFI35:
 2988              		.cfi_def_cfa_offset 8
 2989              		.cfi_offset 3, -8
 2990              		.cfi_offset 14, -4
 2991              		.loc 1 2581 3 is_stmt 1 view .LVU879
 2992              	.LVL211:
 2993              		.loc 1 2588 3 view .LVU880
 2994 0002 406A     		ldr	r0, [r0, #36]
 2995              	.LVL212:
 2996              		.loc 1 2588 3 is_stmt 0 view .LVU881
 2997 0004 014B     		ldr	r3, .L226
 2998 0006 9847     		blx	r3
 2999              	.LVL213:
 3000              		.loc 1 2590 1 view .LVU882
 3001 0008 08BD     		pop	{r3, pc}
 3002              	.L227:
 3003 000a 00BF     		.align	2
 3004              	.L226:
 3005 000c 00000000 		.word	HAL_UART_TxHalfCpltCallback
 3006              		.cfi_endproc
 3007              	.LFE104:
 3009              		.section	.text.HAL_UART_RxCpltCallback,"ax",%progbits
 3010              		.align	1
 3011              		.weak	HAL_UART_RxCpltCallback
 3012              		.syntax unified
 3013              		.thumb
 3014              		.thumb_func
 3015              		.fpu softvfp
 3017              	HAL_UART_RxCpltCallback:
 3018              	.LVL214:
 3019              	.LFB90:
 3020              		.loc 1 2200 1 is_stmt 1 view -0
 3021              		.cfi_startproc
 3022              		@ args = 0, pretend = 0, frame = 0
ARM GAS  C:\Users\38164\AppData\Local\Temp\ccqRiAWJ.s 			page 53


 3023              		@ frame_needed = 0, uses_anonymous_args = 0
 3024              		@ link register save eliminated.
 3025              		.loc 1 2202 3 view .LVU884
 3026              		.loc 1 2206 1 is_stmt 0 view .LVU885
 3027 0000 7047     		bx	lr
 3028              		.cfi_endproc
 3029              	.LFE90:
 3031              		.section	.text.UART_DMAReceiveCplt,"ax",%progbits
 3032              		.align	1
 3033              		.syntax unified
 3034              		.thumb
 3035              		.thumb_func
 3036              		.fpu softvfp
 3038              	UART_DMAReceiveCplt:
 3039              	.LVL215:
 3040              	.LFB105:
 3041              		.loc 1 2599 1 is_stmt 1 view -0
 3042              		.cfi_startproc
 3043              		@ args = 0, pretend = 0, frame = 0
 3044              		@ frame_needed = 0, uses_anonymous_args = 0
 3045              		.loc 1 2599 1 is_stmt 0 view .LVU887
 3046 0000 08B5     		push	{r3, lr}
 3047              	.LCFI36:
 3048              		.cfi_def_cfa_offset 8
 3049              		.cfi_offset 3, -8
 3050              		.cfi_offset 14, -4
 3051 0002 0346     		mov	r3, r0
 3052              		.loc 1 2600 3 is_stmt 1 view .LVU888
 3053              		.loc 1 2600 23 is_stmt 0 view .LVU889
 3054 0004 406A     		ldr	r0, [r0, #36]
 3055              	.LVL216:
 3056              		.loc 1 2602 3 is_stmt 1 view .LVU890
 3057              		.loc 1 2602 12 is_stmt 0 view .LVU891
 3058 0006 1B68     		ldr	r3, [r3]
 3059              	.LVL217:
 3060              		.loc 1 2602 22 view .LVU892
 3061 0008 1B68     		ldr	r3, [r3]
 3062              		.loc 1 2602 6 view .LVU893
 3063 000a 13F0200F 		tst	r3, #32
 3064 000e 13D1     		bne	.L230
 3065              		.loc 1 2604 5 is_stmt 1 view .LVU894
 3066              		.loc 1 2604 24 is_stmt 0 view .LVU895
 3067 0010 0023     		movs	r3, #0
 3068 0012 C385     		strh	r3, [r0, #46]	@ movhi
 3069              		.loc 1 2607 5 is_stmt 1 view .LVU896
 3070 0014 0268     		ldr	r2, [r0]
 3071 0016 D368     		ldr	r3, [r2, #12]
 3072 0018 23F48073 		bic	r3, r3, #256
 3073 001c D360     		str	r3, [r2, #12]
 3074              		.loc 1 2608 5 view .LVU897
 3075 001e 0268     		ldr	r2, [r0]
 3076 0020 5369     		ldr	r3, [r2, #20]
 3077 0022 23F00103 		bic	r3, r3, #1
 3078 0026 5361     		str	r3, [r2, #20]
 3079              		.loc 1 2612 5 view .LVU898
 3080 0028 0268     		ldr	r2, [r0]
 3081 002a 5369     		ldr	r3, [r2, #20]
ARM GAS  C:\Users\38164\AppData\Local\Temp\ccqRiAWJ.s 			page 54


 3082 002c 23F04003 		bic	r3, r3, #64
 3083 0030 5361     		str	r3, [r2, #20]
 3084              		.loc 1 2615 5 view .LVU899
 3085              		.loc 1 2615 20 is_stmt 0 view .LVU900
 3086 0032 2023     		movs	r3, #32
 3087 0034 80F83A30 		strb	r3, [r0, #58]
 3088              	.L230:
 3089              		.loc 1 2622 3 is_stmt 1 view .LVU901
 3090 0038 014B     		ldr	r3, .L232
 3091 003a 9847     		blx	r3
 3092              	.LVL218:
 3093              		.loc 1 2624 1 is_stmt 0 view .LVU902
 3094 003c 08BD     		pop	{r3, pc}
 3095              	.L233:
 3096 003e 00BF     		.align	2
 3097              	.L232:
 3098 0040 00000000 		.word	HAL_UART_RxCpltCallback
 3099              		.cfi_endproc
 3100              	.LFE105:
 3102              		.section	.text.UART_Receive_IT,"ax",%progbits
 3103              		.align	1
 3104              		.syntax unified
 3105              		.thumb
 3106              		.thumb_func
 3107              		.fpu softvfp
 3109              	UART_Receive_IT:
 3110              	.LVL219:
 3111              	.LFB118:
 3112              		.loc 1 2988 1 is_stmt 1 view -0
 3113              		.cfi_startproc
 3114              		@ args = 0, pretend = 0, frame = 0
 3115              		@ frame_needed = 0, uses_anonymous_args = 0
 3116              		.loc 1 2988 1 is_stmt 0 view .LVU904
 3117 0000 08B5     		push	{r3, lr}
 3118              	.LCFI37:
 3119              		.cfi_def_cfa_offset 8
 3120              		.cfi_offset 3, -8
 3121              		.cfi_offset 14, -4
 3122              		.loc 1 2989 3 is_stmt 1 view .LVU905
 3123              		.loc 1 2990 3 view .LVU906
 3124              		.loc 1 2993 3 view .LVU907
 3125              		.loc 1 2993 12 is_stmt 0 view .LVU908
 3126 0002 90F83A30 		ldrb	r3, [r0, #58]	@ zero_extendqisi2
 3127 0006 DBB2     		uxtb	r3, r3
 3128              		.loc 1 2993 6 view .LVU909
 3129 0008 222B     		cmp	r3, #34
 3130 000a 41D1     		bne	.L241
 3131              		.loc 1 2995 5 is_stmt 1 view .LVU910
 3132              		.loc 1 2995 21 is_stmt 0 view .LVU911
 3133 000c 8368     		ldr	r3, [r0, #8]
 3134              		.loc 1 2995 8 view .LVU912
 3135 000e B3F5805F 		cmp	r3, #4096
 3136 0012 14D0     		beq	.L244
 3137              	.L236:
 3138              		.loc 1 3004 7 is_stmt 1 view .LVU913
 3139              		.loc 1 3004 18 is_stmt 0 view .LVU914
 3140 0014 826A     		ldr	r2, [r0, #40]
ARM GAS  C:\Users\38164\AppData\Local\Temp\ccqRiAWJ.s 			page 55


 3141              	.LVL220:
 3142              		.loc 1 3005 7 is_stmt 1 view .LVU915
 3143              		.loc 1 3007 7 view .LVU916
 3144              		.loc 1 3007 10 is_stmt 0 view .LVU917
 3145 0016 B3F5805F 		cmp	r3, #4096
 3146 001a 02D0     		beq	.L238
 3147              		.loc 1 3007 58 discriminator 1 view .LVU918
 3148 001c E3B9     		cbnz	r3, .L239
 3149              		.loc 1 3007 124 discriminator 2 view .LVU919
 3150 001e 0369     		ldr	r3, [r0, #16]
 3151              		.loc 1 3007 109 discriminator 2 view .LVU920
 3152 0020 D3B9     		cbnz	r3, .L239
 3153              	.L238:
 3154              		.loc 1 3009 9 is_stmt 1 view .LVU921
 3155              		.loc 1 3009 38 is_stmt 0 view .LVU922
 3156 0022 0368     		ldr	r3, [r0]
 3157              		.loc 1 3009 48 view .LVU923
 3158 0024 5B68     		ldr	r3, [r3, #4]
 3159              		.loc 1 3009 21 view .LVU924
 3160 0026 1370     		strb	r3, [r2]
 3161              	.L240:
 3162              		.loc 1 3015 7 is_stmt 1 view .LVU925
 3163              		.loc 1 3015 25 is_stmt 0 view .LVU926
 3164 0028 836A     		ldr	r3, [r0, #40]
 3165 002a 0133     		adds	r3, r3, #1
 3166 002c 8362     		str	r3, [r0, #40]
 3167              	.LVL221:
 3168              	.L237:
 3169              		.loc 1 3018 5 is_stmt 1 view .LVU927
 3170              		.loc 1 3018 16 is_stmt 0 view .LVU928
 3171 002e C38D     		ldrh	r3, [r0, #46]
 3172 0030 9BB2     		uxth	r3, r3
 3173              		.loc 1 3018 9 view .LVU929
 3174 0032 013B     		subs	r3, r3, #1
 3175 0034 9BB2     		uxth	r3, r3
 3176              		.loc 1 3018 8 view .LVU930
 3177 0036 C385     		strh	r3, [r0, #46]	@ movhi
 3178 0038 A3B1     		cbz	r3, .L245
 3179              		.loc 1 3042 12 view .LVU931
 3180 003a 0020     		movs	r0, #0
 3181              	.LVL222:
 3182              	.L235:
 3183              		.loc 1 3048 1 view .LVU932
 3184 003c 08BD     		pop	{r3, pc}
 3185              	.LVL223:
 3186              	.L244:
 3187              		.loc 1 2995 71 discriminator 1 view .LVU933
 3188 003e 0269     		ldr	r2, [r0, #16]
 3189              		.loc 1 2995 56 discriminator 1 view .LVU934
 3190 0040 002A     		cmp	r2, #0
 3191 0042 E7D1     		bne	.L236
 3192              		.loc 1 2997 7 is_stmt 1 view .LVU935
 3193              	.LVL224:
 3194              		.loc 1 2998 7 view .LVU936
 3195              		.loc 1 2998 19 is_stmt 0 view .LVU937
 3196 0044 826A     		ldr	r2, [r0, #40]
 3197              	.LVL225:
ARM GAS  C:\Users\38164\AppData\Local\Temp\ccqRiAWJ.s 			page 56


 3198              		.loc 1 2999 7 is_stmt 1 view .LVU938
 3199              		.loc 1 2999 38 is_stmt 0 view .LVU939
 3200 0046 0368     		ldr	r3, [r0]
 3201              		.loc 1 2999 48 view .LVU940
 3202 0048 5B68     		ldr	r3, [r3, #4]
 3203              		.loc 1 2999 22 view .LVU941
 3204 004a C3F30803 		ubfx	r3, r3, #0, #9
 3205              		.loc 1 2999 20 view .LVU942
 3206 004e 1380     		strh	r3, [r2]	@ movhi
 3207              		.loc 1 3000 7 is_stmt 1 view .LVU943
 3208              		.loc 1 3000 25 is_stmt 0 view .LVU944
 3209 0050 836A     		ldr	r3, [r0, #40]
 3210 0052 0233     		adds	r3, r3, #2
 3211 0054 8362     		str	r3, [r0, #40]
 3212 0056 EAE7     		b	.L237
 3213              	.LVL226:
 3214              	.L239:
 3215              		.loc 1 3013 9 is_stmt 1 view .LVU945
 3216              		.loc 1 3013 38 is_stmt 0 view .LVU946
 3217 0058 0368     		ldr	r3, [r0]
 3218              		.loc 1 3013 48 view .LVU947
 3219 005a 5B68     		ldr	r3, [r3, #4]
 3220              		.loc 1 3013 23 view .LVU948
 3221 005c 03F07F03 		and	r3, r3, #127
 3222              		.loc 1 3013 21 view .LVU949
 3223 0060 1370     		strb	r3, [r2]
 3224 0062 E1E7     		b	.L240
 3225              	.LVL227:
 3226              	.L245:
 3227              		.loc 1 3021 7 is_stmt 1 view .LVU950
 3228 0064 0268     		ldr	r2, [r0]
 3229 0066 D368     		ldr	r3, [r2, #12]
 3230 0068 23F02003 		bic	r3, r3, #32
 3231 006c D360     		str	r3, [r2, #12]
 3232              		.loc 1 3024 7 view .LVU951
 3233 006e 0268     		ldr	r2, [r0]
 3234 0070 D368     		ldr	r3, [r2, #12]
 3235 0072 23F48073 		bic	r3, r3, #256
 3236 0076 D360     		str	r3, [r2, #12]
 3237              		.loc 1 3027 7 view .LVU952
 3238 0078 0268     		ldr	r2, [r0]
 3239 007a 5369     		ldr	r3, [r2, #20]
 3240 007c 23F00103 		bic	r3, r3, #1
 3241 0080 5361     		str	r3, [r2, #20]
 3242              		.loc 1 3030 7 view .LVU953
 3243              		.loc 1 3030 22 is_stmt 0 view .LVU954
 3244 0082 2023     		movs	r3, #32
 3245 0084 80F83A30 		strb	r3, [r0, #58]
 3246              		.loc 1 3037 7 is_stmt 1 view .LVU955
 3247 0088 024B     		ldr	r3, .L246
 3248 008a 9847     		blx	r3
 3249              	.LVL228:
 3250              		.loc 1 3040 7 view .LVU956
 3251              		.loc 1 3040 14 is_stmt 0 view .LVU957
 3252 008c 0020     		movs	r0, #0
 3253 008e D5E7     		b	.L235
 3254              	.LVL229:
ARM GAS  C:\Users\38164\AppData\Local\Temp\ccqRiAWJ.s 			page 57


 3255              	.L241:
 3256              		.loc 1 3046 12 view .LVU958
 3257 0090 0220     		movs	r0, #2
 3258              	.LVL230:
 3259              		.loc 1 3046 12 view .LVU959
 3260 0092 D3E7     		b	.L235
 3261              	.L247:
 3262              		.align	2
 3263              	.L246:
 3264 0094 00000000 		.word	HAL_UART_RxCpltCallback
 3265              		.cfi_endproc
 3266              	.LFE118:
 3268              		.section	.text.HAL_UART_RxHalfCpltCallback,"ax",%progbits
 3269              		.align	1
 3270              		.weak	HAL_UART_RxHalfCpltCallback
 3271              		.syntax unified
 3272              		.thumb
 3273              		.thumb_func
 3274              		.fpu softvfp
 3276              	HAL_UART_RxHalfCpltCallback:
 3277              	.LVL231:
 3278              	.LFB91:
 3279              		.loc 1 2215 1 is_stmt 1 view -0
 3280              		.cfi_startproc
 3281              		@ args = 0, pretend = 0, frame = 0
 3282              		@ frame_needed = 0, uses_anonymous_args = 0
 3283              		@ link register save eliminated.
 3284              		.loc 1 2217 3 view .LVU961
 3285              		.loc 1 2221 1 is_stmt 0 view .LVU962
 3286 0000 7047     		bx	lr
 3287              		.cfi_endproc
 3288              	.LFE91:
 3290              		.section	.text.UART_DMARxHalfCplt,"ax",%progbits
 3291              		.align	1
 3292              		.syntax unified
 3293              		.thumb
 3294              		.thumb_func
 3295              		.fpu softvfp
 3297              	UART_DMARxHalfCplt:
 3298              	.LVL232:
 3299              	.LFB106:
 3300              		.loc 1 2633 1 is_stmt 1 view -0
 3301              		.cfi_startproc
 3302              		@ args = 0, pretend = 0, frame = 0
 3303              		@ frame_needed = 0, uses_anonymous_args = 0
 3304              		.loc 1 2633 1 is_stmt 0 view .LVU964
 3305 0000 08B5     		push	{r3, lr}
 3306              	.LCFI38:
 3307              		.cfi_def_cfa_offset 8
 3308              		.cfi_offset 3, -8
 3309              		.cfi_offset 14, -4
 3310              		.loc 1 2634 3 is_stmt 1 view .LVU965
 3311              	.LVL233:
 3312              		.loc 1 2641 3 view .LVU966
 3313 0002 406A     		ldr	r0, [r0, #36]
 3314              	.LVL234:
 3315              		.loc 1 2641 3 is_stmt 0 view .LVU967
ARM GAS  C:\Users\38164\AppData\Local\Temp\ccqRiAWJ.s 			page 58


 3316 0004 014B     		ldr	r3, .L251
 3317 0006 9847     		blx	r3
 3318              	.LVL235:
 3319              		.loc 1 2643 1 view .LVU968
 3320 0008 08BD     		pop	{r3, pc}
 3321              	.L252:
 3322 000a 00BF     		.align	2
 3323              	.L251:
 3324 000c 00000000 		.word	HAL_UART_RxHalfCpltCallback
 3325              		.cfi_endproc
 3326              	.LFE106:
 3328              		.section	.text.HAL_UART_ErrorCallback,"ax",%progbits
 3329              		.align	1
 3330              		.weak	HAL_UART_ErrorCallback
 3331              		.syntax unified
 3332              		.thumb
 3333              		.thumb_func
 3334              		.fpu softvfp
 3336              	HAL_UART_ErrorCallback:
 3337              	.LVL236:
 3338              	.LFB92:
 3339              		.loc 1 2230 1 is_stmt 1 view -0
 3340              		.cfi_startproc
 3341              		@ args = 0, pretend = 0, frame = 0
 3342              		@ frame_needed = 0, uses_anonymous_args = 0
 3343              		@ link register save eliminated.
 3344              		.loc 1 2232 3 view .LVU970
 3345              		.loc 1 2236 1 is_stmt 0 view .LVU971
 3346 0000 7047     		bx	lr
 3347              		.cfi_endproc
 3348              	.LFE92:
 3350              		.section	.text.UART_DMAError,"ax",%progbits
 3351              		.align	1
 3352              		.syntax unified
 3353              		.thumb
 3354              		.thumb_func
 3355              		.fpu softvfp
 3357              	UART_DMAError:
 3358              	.LVL237:
 3359              	.LFB107:
 3360              		.loc 1 2652 1 is_stmt 1 view -0
 3361              		.cfi_startproc
 3362              		@ args = 0, pretend = 0, frame = 0
 3363              		@ frame_needed = 0, uses_anonymous_args = 0
 3364              		.loc 1 2652 1 is_stmt 0 view .LVU973
 3365 0000 10B5     		push	{r4, lr}
 3366              	.LCFI39:
 3367              		.cfi_def_cfa_offset 8
 3368              		.cfi_offset 4, -8
 3369              		.cfi_offset 14, -4
 3370              		.loc 1 2653 3 is_stmt 1 view .LVU974
 3371              	.LVL238:
 3372              		.loc 1 2654 3 view .LVU975
 3373              		.loc 1 2654 23 is_stmt 0 view .LVU976
 3374 0002 446A     		ldr	r4, [r0, #36]
 3375              	.LVL239:
 3376              		.loc 1 2657 3 is_stmt 1 view .LVU977
ARM GAS  C:\Users\38164\AppData\Local\Temp\ccqRiAWJ.s 			page 59


 3377              		.loc 1 2657 16 is_stmt 0 view .LVU978
 3378 0004 2368     		ldr	r3, [r4]
 3379 0006 5A69     		ldr	r2, [r3, #20]
 3380              	.LVL240:
 3381              		.loc 1 2658 3 is_stmt 1 view .LVU979
 3382              		.loc 1 2658 13 is_stmt 0 view .LVU980
 3383 0008 94F83930 		ldrb	r3, [r4, #57]	@ zero_extendqisi2
 3384 000c DBB2     		uxtb	r3, r3
 3385              		.loc 1 2658 6 view .LVU981
 3386 000e 212B     		cmp	r3, #33
 3387 0010 10D0     		beq	.L258
 3388              	.LVL241:
 3389              	.L255:
 3390              		.loc 1 2665 3 is_stmt 1 view .LVU982
 3391              		.loc 1 2665 16 is_stmt 0 view .LVU983
 3392 0012 2368     		ldr	r3, [r4]
 3393 0014 5A69     		ldr	r2, [r3, #20]
 3394 0016 02F04002 		and	r2, r2, #64
 3395              	.LVL242:
 3396              		.loc 1 2666 3 is_stmt 1 view .LVU984
 3397              		.loc 1 2666 13 is_stmt 0 view .LVU985
 3398 001a 94F83A30 		ldrb	r3, [r4, #58]	@ zero_extendqisi2
 3399 001e DBB2     		uxtb	r3, r3
 3400              		.loc 1 2666 6 view .LVU986
 3401 0020 222B     		cmp	r3, #34
 3402 0022 11D0     		beq	.L259
 3403              	.LVL243:
 3404              	.L256:
 3405              		.loc 1 2672 3 is_stmt 1 view .LVU987
 3406              		.loc 1 2672 20 is_stmt 0 view .LVU988
 3407 0024 E36B     		ldr	r3, [r4, #60]
 3408 0026 43F01003 		orr	r3, r3, #16
 3409 002a E363     		str	r3, [r4, #60]
 3410              		.loc 1 2678 3 is_stmt 1 view .LVU989
 3411 002c 2046     		mov	r0, r4
 3412 002e 0A4B     		ldr	r3, .L260
 3413 0030 9847     		blx	r3
 3414              	.LVL244:
 3415              		.loc 1 2680 1 is_stmt 0 view .LVU990
 3416 0032 10BD     		pop	{r4, pc}
 3417              	.LVL245:
 3418              	.L258:
 3419              		.loc 1 2680 1 view .LVU991
 3420 0034 02F08002 		and	r2, r2, #128
 3421              	.LVL246:
 3422              		.loc 1 2658 49 discriminator 1 view .LVU992
 3423 0038 002A     		cmp	r2, #0
 3424 003a EAD0     		beq	.L255
 3425              		.loc 1 2660 5 is_stmt 1 view .LVU993
 3426              		.loc 1 2660 24 is_stmt 0 view .LVU994
 3427 003c 0023     		movs	r3, #0
 3428 003e E384     		strh	r3, [r4, #38]	@ movhi
 3429              		.loc 1 2661 5 is_stmt 1 view .LVU995
 3430 0040 2046     		mov	r0, r4
 3431              	.LVL247:
 3432              		.loc 1 2661 5 is_stmt 0 view .LVU996
 3433 0042 064B     		ldr	r3, .L260+4
ARM GAS  C:\Users\38164\AppData\Local\Temp\ccqRiAWJ.s 			page 60


 3434 0044 9847     		blx	r3
 3435              	.LVL248:
 3436 0046 E4E7     		b	.L255
 3437              	.LVL249:
 3438              	.L259:
 3439              		.loc 1 2666 50 discriminator 1 view .LVU997
 3440 0048 002A     		cmp	r2, #0
 3441 004a EBD0     		beq	.L256
 3442              		.loc 1 2668 5 is_stmt 1 view .LVU998
 3443              		.loc 1 2668 24 is_stmt 0 view .LVU999
 3444 004c 0023     		movs	r3, #0
 3445 004e E385     		strh	r3, [r4, #46]	@ movhi
 3446              		.loc 1 2669 5 is_stmt 1 view .LVU1000
 3447 0050 2046     		mov	r0, r4
 3448 0052 034B     		ldr	r3, .L260+8
 3449 0054 9847     		blx	r3
 3450              	.LVL250:
 3451              		.loc 1 2669 5 is_stmt 0 view .LVU1001
 3452 0056 E5E7     		b	.L256
 3453              	.L261:
 3454              		.align	2
 3455              	.L260:
 3456 0058 00000000 		.word	HAL_UART_ErrorCallback
 3457 005c 00000000 		.word	UART_EndTxTransfer
 3458 0060 00000000 		.word	UART_EndRxTransfer
 3459              		.cfi_endproc
 3460              	.LFE107:
 3462              		.section	.text.HAL_UART_IRQHandler,"ax",%progbits
 3463              		.align	1
 3464              		.global	HAL_UART_IRQHandler
 3465              		.syntax unified
 3466              		.thumb
 3467              		.thumb_func
 3468              		.fpu softvfp
 3470              	HAL_UART_IRQHandler:
 3471              	.LVL251:
 3472              	.LFB87:
 3473              		.loc 1 2024 1 is_stmt 1 view -0
 3474              		.cfi_startproc
 3475              		@ args = 0, pretend = 0, frame = 0
 3476              		@ frame_needed = 0, uses_anonymous_args = 0
 3477              		.loc 1 2024 1 is_stmt 0 view .LVU1003
 3478 0000 10B5     		push	{r4, lr}
 3479              	.LCFI40:
 3480              		.cfi_def_cfa_offset 8
 3481              		.cfi_offset 4, -8
 3482              		.cfi_offset 14, -4
 3483 0002 0446     		mov	r4, r0
 3484              		.loc 1 2025 3 is_stmt 1 view .LVU1004
 3485              		.loc 1 2025 25 is_stmt 0 view .LVU1005
 3486 0004 0268     		ldr	r2, [r0]
 3487              		.loc 1 2025 12 view .LVU1006
 3488 0006 1368     		ldr	r3, [r2]
 3489              	.LVL252:
 3490              		.loc 1 2026 3 is_stmt 1 view .LVU1007
 3491              		.loc 1 2026 12 is_stmt 0 view .LVU1008
 3492 0008 D168     		ldr	r1, [r2, #12]
ARM GAS  C:\Users\38164\AppData\Local\Temp\ccqRiAWJ.s 			page 61


 3493              	.LVL253:
 3494              		.loc 1 2027 3 is_stmt 1 view .LVU1009
 3495              		.loc 1 2027 12 is_stmt 0 view .LVU1010
 3496 000a 5269     		ldr	r2, [r2, #20]
 3497              	.LVL254:
 3498              		.loc 1 2028 3 is_stmt 1 view .LVU1011
 3499              		.loc 1 2029 3 view .LVU1012
 3500              		.loc 1 2032 3 view .LVU1013
 3501              		.loc 1 2033 3 view .LVU1014
 3502              		.loc 1 2033 6 is_stmt 0 view .LVU1015
 3503 000c 13F00F00 		ands	r0, r3, #15
 3504              	.LVL255:
 3505              		.loc 1 2033 6 view .LVU1016
 3506 0010 05D1     		bne	.L263
 3507              		.loc 1 2036 5 is_stmt 1 view .LVU1017
 3508              		.loc 1 2036 8 is_stmt 0 view .LVU1018
 3509 0012 13F0200F 		tst	r3, #32
 3510 0016 02D0     		beq	.L263
 3511              		.loc 1 2036 47 discriminator 1 view .LVU1019
 3512 0018 11F0200F 		tst	r1, #32
 3513 001c 13D1     		bne	.L280
 3514              	.L263:
 3515              		.loc 1 2044 3 is_stmt 1 view .LVU1020
 3516              		.loc 1 2044 6 is_stmt 0 view .LVU1021
 3517 001e 28B1     		cbz	r0, .L265
 3518              		.loc 1 2044 29 discriminator 1 view .LVU1022
 3519 0020 12F00102 		ands	r2, r2, #1
 3520              	.LVL256:
 3521              		.loc 1 2044 29 discriminator 1 view .LVU1023
 3522 0024 13D1     		bne	.L266
 3523              		.loc 1 2044 69 discriminator 2 view .LVU1024
 3524 0026 11F4907F 		tst	r1, #288
 3525 002a 10D1     		bne	.L266
 3526              	.L265:
 3527              		.loc 1 2149 3 is_stmt 1 view .LVU1025
 3528              		.loc 1 2149 6 is_stmt 0 view .LVU1026
 3529 002c 13F0800F 		tst	r3, #128
 3530 0030 02D0     		beq	.L278
 3531              		.loc 1 2149 44 discriminator 1 view .LVU1027
 3532 0032 11F0800F 		tst	r1, #128
 3533 0036 6CD1     		bne	.L281
 3534              	.L278:
 3535              		.loc 1 2156 3 is_stmt 1 view .LVU1028
 3536              		.loc 1 2156 6 is_stmt 0 view .LVU1029
 3537 0038 13F0400F 		tst	r3, #64
 3538 003c 02D0     		beq	.L262
 3539              		.loc 1 2156 43 discriminator 1 view .LVU1030
 3540 003e 11F0400F 		tst	r1, #64
 3541 0042 6AD1     		bne	.L282
 3542              	.LVL257:
 3543              	.L262:
 3544              		.loc 1 2161 1 view .LVU1031
 3545 0044 10BD     		pop	{r4, pc}
 3546              	.LVL258:
 3547              	.L280:
 3548              		.loc 1 2038 7 is_stmt 1 view .LVU1032
 3549 0046 2046     		mov	r0, r4
ARM GAS  C:\Users\38164\AppData\Local\Temp\ccqRiAWJ.s 			page 62


 3550              	.LVL259:
 3551              		.loc 1 2038 7 is_stmt 0 view .LVU1033
 3552 0048 364B     		ldr	r3, .L284
 3553              	.LVL260:
 3554              		.loc 1 2038 7 view .LVU1034
 3555 004a 9847     		blx	r3
 3556              	.LVL261:
 3557              		.loc 1 2039 7 is_stmt 1 view .LVU1035
 3558 004c FAE7     		b	.L262
 3559              	.LVL262:
 3560              	.L266:
 3561              		.loc 1 2047 5 view .LVU1036
 3562              		.loc 1 2047 8 is_stmt 0 view .LVU1037
 3563 004e 13F0010F 		tst	r3, #1
 3564 0052 06D0     		beq	.L267
 3565              		.loc 1 2047 45 discriminator 1 view .LVU1038
 3566 0054 11F4807F 		tst	r1, #256
 3567 0058 03D0     		beq	.L267
 3568              		.loc 1 2049 7 is_stmt 1 view .LVU1039
 3569              		.loc 1 2049 24 is_stmt 0 view .LVU1040
 3570 005a E06B     		ldr	r0, [r4, #60]
 3571              	.LVL263:
 3572              		.loc 1 2049 24 view .LVU1041
 3573 005c 40F00100 		orr	r0, r0, #1
 3574 0060 E063     		str	r0, [r4, #60]
 3575              	.L267:
 3576              		.loc 1 2053 5 is_stmt 1 view .LVU1042
 3577              		.loc 1 2053 8 is_stmt 0 view .LVU1043
 3578 0062 13F0040F 		tst	r3, #4
 3579 0066 04D0     		beq	.L268
 3580              		.loc 1 2053 45 discriminator 1 view .LVU1044
 3581 0068 1AB1     		cbz	r2, .L268
 3582              		.loc 1 2055 7 is_stmt 1 view .LVU1045
 3583              		.loc 1 2055 24 is_stmt 0 view .LVU1046
 3584 006a E06B     		ldr	r0, [r4, #60]
 3585 006c 40F00200 		orr	r0, r0, #2
 3586 0070 E063     		str	r0, [r4, #60]
 3587              	.L268:
 3588              		.loc 1 2059 5 is_stmt 1 view .LVU1047
 3589              		.loc 1 2059 8 is_stmt 0 view .LVU1048
 3590 0072 13F0020F 		tst	r3, #2
 3591 0076 04D0     		beq	.L269
 3592              		.loc 1 2059 45 discriminator 1 view .LVU1049
 3593 0078 1AB1     		cbz	r2, .L269
 3594              		.loc 1 2061 7 is_stmt 1 view .LVU1050
 3595              		.loc 1 2061 24 is_stmt 0 view .LVU1051
 3596 007a E06B     		ldr	r0, [r4, #60]
 3597 007c 40F00400 		orr	r0, r0, #4
 3598 0080 E063     		str	r0, [r4, #60]
 3599              	.L269:
 3600              		.loc 1 2065 5 is_stmt 1 view .LVU1052
 3601              		.loc 1 2065 8 is_stmt 0 view .LVU1053
 3602 0082 13F0080F 		tst	r3, #8
 3603 0086 07D0     		beq	.L270
 3604              		.loc 1 2065 46 discriminator 1 view .LVU1054
 3605 0088 11F0200F 		tst	r1, #32
 3606 008c 00D1     		bne	.L271
ARM GAS  C:\Users\38164\AppData\Local\Temp\ccqRiAWJ.s 			page 63


 3607              		.loc 1 2065 89 discriminator 2 view .LVU1055
 3608 008e 1AB1     		cbz	r2, .L270
 3609              	.L271:
 3610              		.loc 1 2067 7 is_stmt 1 view .LVU1056
 3611              		.loc 1 2067 24 is_stmt 0 view .LVU1057
 3612 0090 E26B     		ldr	r2, [r4, #60]
 3613 0092 42F00802 		orr	r2, r2, #8
 3614 0096 E263     		str	r2, [r4, #60]
 3615              	.L270:
 3616              		.loc 1 2071 5 is_stmt 1 view .LVU1058
 3617              		.loc 1 2071 14 is_stmt 0 view .LVU1059
 3618 0098 E26B     		ldr	r2, [r4, #60]
 3619              		.loc 1 2071 8 view .LVU1060
 3620 009a 002A     		cmp	r2, #0
 3621 009c D2D0     		beq	.L262
 3622              		.loc 1 2074 7 is_stmt 1 view .LVU1061
 3623              		.loc 1 2074 10 is_stmt 0 view .LVU1062
 3624 009e 13F0200F 		tst	r3, #32
 3625 00a2 02D0     		beq	.L273
 3626              		.loc 1 2074 49 discriminator 1 view .LVU1063
 3627 00a4 11F0200F 		tst	r1, #32
 3628 00a8 21D1     		bne	.L283
 3629              	.LVL264:
 3630              	.L273:
 3631              		.loc 1 2081 7 is_stmt 1 view .LVU1064
 3632              		.loc 1 2081 20 is_stmt 0 view .LVU1065
 3633 00aa 2368     		ldr	r3, [r4]
 3634 00ac 5B69     		ldr	r3, [r3, #20]
 3635 00ae 03F04003 		and	r3, r3, #64
 3636              	.LVL265:
 3637              		.loc 1 2082 7 is_stmt 1 view .LVU1066
 3638              		.loc 1 2082 18 is_stmt 0 view .LVU1067
 3639 00b2 E26B     		ldr	r2, [r4, #60]
 3640              		.loc 1 2082 10 view .LVU1068
 3641 00b4 12F0080F 		tst	r2, #8
 3642 00b8 00D1     		bne	.L274
 3643              		.loc 1 2082 62 discriminator 1 view .LVU1069
 3644 00ba 23B3     		cbz	r3, .L275
 3645              	.L274:
 3646              		.loc 1 2087 9 is_stmt 1 view .LVU1070
 3647 00bc 2046     		mov	r0, r4
 3648 00be 1A4B     		ldr	r3, .L284+4
 3649              	.LVL266:
 3650              		.loc 1 2087 9 is_stmt 0 view .LVU1071
 3651 00c0 9847     		blx	r3
 3652              	.LVL267:
 3653              		.loc 1 2090 9 is_stmt 1 view .LVU1072
 3654              		.loc 1 2090 13 is_stmt 0 view .LVU1073
 3655 00c2 2368     		ldr	r3, [r4]
 3656 00c4 5A69     		ldr	r2, [r3, #20]
 3657              		.loc 1 2090 12 view .LVU1074
 3658 00c6 12F0400F 		tst	r2, #64
 3659 00ca 18D0     		beq	.L276
 3660              		.loc 1 2092 11 is_stmt 1 view .LVU1075
 3661 00cc 5A69     		ldr	r2, [r3, #20]
 3662 00ce 22F04002 		bic	r2, r2, #64
 3663 00d2 5A61     		str	r2, [r3, #20]
ARM GAS  C:\Users\38164\AppData\Local\Temp\ccqRiAWJ.s 			page 64


 3664              		.loc 1 2095 11 view .LVU1076
 3665              		.loc 1 2095 20 is_stmt 0 view .LVU1077
 3666 00d4 636B     		ldr	r3, [r4, #52]
 3667              		.loc 1 2095 14 view .LVU1078
 3668 00d6 73B1     		cbz	r3, .L277
 3669              		.loc 1 2099 13 is_stmt 1 view .LVU1079
 3670              		.loc 1 2099 46 is_stmt 0 view .LVU1080
 3671 00d8 144A     		ldr	r2, .L284+8
 3672 00da 5A63     		str	r2, [r3, #52]
 3673              		.loc 1 2100 13 is_stmt 1 view .LVU1081
 3674              		.loc 1 2100 17 is_stmt 0 view .LVU1082
 3675 00dc 606B     		ldr	r0, [r4, #52]
 3676 00de 144B     		ldr	r3, .L284+12
 3677 00e0 9847     		blx	r3
 3678              	.LVL268:
 3679              		.loc 1 2100 16 view .LVU1083
 3680 00e2 0028     		cmp	r0, #0
 3681 00e4 AED0     		beq	.L262
 3682              		.loc 1 2103 15 is_stmt 1 view .LVU1084
 3683              		.loc 1 2103 20 is_stmt 0 view .LVU1085
 3684 00e6 606B     		ldr	r0, [r4, #52]
 3685              		.loc 1 2103 28 view .LVU1086
 3686 00e8 436B     		ldr	r3, [r0, #52]
 3687              		.loc 1 2103 15 view .LVU1087
 3688 00ea 9847     		blx	r3
 3689              	.LVL269:
 3690 00ec AAE7     		b	.L262
 3691              	.LVL270:
 3692              	.L283:
 3693              		.loc 1 2076 9 is_stmt 1 view .LVU1088
 3694 00ee 2046     		mov	r0, r4
 3695 00f0 0C4B     		ldr	r3, .L284
 3696              	.LVL271:
 3697              		.loc 1 2076 9 is_stmt 0 view .LVU1089
 3698 00f2 9847     		blx	r3
 3699              	.LVL272:
 3700              		.loc 1 2076 9 view .LVU1090
 3701 00f4 D9E7     		b	.L273
 3702              	.LVL273:
 3703              	.L277:
 3704              		.loc 1 2114 13 is_stmt 1 view .LVU1091
 3705 00f6 2046     		mov	r0, r4
 3706 00f8 0E4B     		ldr	r3, .L284+16
 3707 00fa 9847     		blx	r3
 3708              	.LVL274:
 3709 00fc A2E7     		b	.L262
 3710              	.L276:
 3711              		.loc 1 2126 11 view .LVU1092
 3712 00fe 2046     		mov	r0, r4
 3713 0100 0C4B     		ldr	r3, .L284+16
 3714 0102 9847     		blx	r3
 3715              	.LVL275:
 3716 0104 9EE7     		b	.L262
 3717              	.LVL276:
 3718              	.L275:
 3719              		.loc 1 2139 9 view .LVU1093
 3720 0106 2046     		mov	r0, r4
ARM GAS  C:\Users\38164\AppData\Local\Temp\ccqRiAWJ.s 			page 65


 3721 0108 0A4B     		ldr	r3, .L284+16
 3722              	.LVL277:
 3723              		.loc 1 2139 9 is_stmt 0 view .LVU1094
 3724 010a 9847     		blx	r3
 3725              	.LVL278:
 3726              		.loc 1 2142 9 is_stmt 1 view .LVU1095
 3727              		.loc 1 2142 26 is_stmt 0 view .LVU1096
 3728 010c 0023     		movs	r3, #0
 3729 010e E363     		str	r3, [r4, #60]
 3730              		.loc 1 2145 5 is_stmt 1 view .LVU1097
 3731 0110 98E7     		b	.L262
 3732              	.LVL279:
 3733              	.L281:
 3734              		.loc 1 2151 5 view .LVU1098
 3735 0112 2046     		mov	r0, r4
 3736              	.LVL280:
 3737              		.loc 1 2151 5 is_stmt 0 view .LVU1099
 3738 0114 084B     		ldr	r3, .L284+20
 3739              	.LVL281:
 3740              		.loc 1 2151 5 view .LVU1100
 3741 0116 9847     		blx	r3
 3742              	.LVL282:
 3743              		.loc 1 2152 5 is_stmt 1 view .LVU1101
 3744 0118 94E7     		b	.L262
 3745              	.LVL283:
 3746              	.L282:
 3747              		.loc 1 2158 5 view .LVU1102
 3748 011a 2046     		mov	r0, r4
 3749              	.LVL284:
 3750              		.loc 1 2158 5 is_stmt 0 view .LVU1103
 3751 011c 074B     		ldr	r3, .L284+24
 3752              	.LVL285:
 3753              		.loc 1 2158 5 view .LVU1104
 3754 011e 9847     		blx	r3
 3755              	.LVL286:
 3756              		.loc 1 2159 5 is_stmt 1 view .LVU1105
 3757 0120 90E7     		b	.L262
 3758              	.L285:
 3759 0122 00BF     		.align	2
 3760              	.L284:
 3761 0124 00000000 		.word	UART_Receive_IT
 3762 0128 00000000 		.word	UART_EndRxTransfer
 3763 012c 00000000 		.word	UART_DMAAbortOnError
 3764 0130 00000000 		.word	HAL_DMA_Abort_IT
 3765 0134 00000000 		.word	HAL_UART_ErrorCallback
 3766 0138 00000000 		.word	UART_Transmit_IT
 3767 013c 00000000 		.word	UART_EndTransmit_IT
 3768              		.cfi_endproc
 3769              	.LFE87:
 3771              		.section	.text.UART_DMAAbortOnError,"ax",%progbits
 3772              		.align	1
 3773              		.syntax unified
 3774              		.thumb
 3775              		.thumb_func
 3776              		.fpu softvfp
 3778              	UART_DMAAbortOnError:
 3779              	.LVL287:
ARM GAS  C:\Users\38164\AppData\Local\Temp\ccqRiAWJ.s 			page 66


 3780              	.LFB111:
 3781              		.loc 1 2756 1 view -0
 3782              		.cfi_startproc
 3783              		@ args = 0, pretend = 0, frame = 0
 3784              		@ frame_needed = 0, uses_anonymous_args = 0
 3785              		.loc 1 2756 1 is_stmt 0 view .LVU1107
 3786 0000 08B5     		push	{r3, lr}
 3787              	.LCFI41:
 3788              		.cfi_def_cfa_offset 8
 3789              		.cfi_offset 3, -8
 3790              		.cfi_offset 14, -4
 3791              		.loc 1 2757 3 is_stmt 1 view .LVU1108
 3792              		.loc 1 2757 23 is_stmt 0 view .LVU1109
 3793 0002 406A     		ldr	r0, [r0, #36]
 3794              	.LVL288:
 3795              		.loc 1 2758 3 is_stmt 1 view .LVU1110
 3796              		.loc 1 2758 22 is_stmt 0 view .LVU1111
 3797 0004 0023     		movs	r3, #0
 3798 0006 C385     		strh	r3, [r0, #46]	@ movhi
 3799              		.loc 1 2759 3 is_stmt 1 view .LVU1112
 3800              		.loc 1 2759 22 is_stmt 0 view .LVU1113
 3801 0008 C384     		strh	r3, [r0, #38]	@ movhi
 3802              		.loc 1 2766 3 is_stmt 1 view .LVU1114
 3803 000a 014B     		ldr	r3, .L288
 3804 000c 9847     		blx	r3
 3805              	.LVL289:
 3806              		.loc 1 2768 1 is_stmt 0 view .LVU1115
 3807 000e 08BD     		pop	{r3, pc}
 3808              	.L289:
 3809              		.align	2
 3810              	.L288:
 3811 0010 00000000 		.word	HAL_UART_ErrorCallback
 3812              		.cfi_endproc
 3813              	.LFE111:
 3815              		.section	.text.HAL_UART_AbortCpltCallback,"ax",%progbits
 3816              		.align	1
 3817              		.weak	HAL_UART_AbortCpltCallback
 3818              		.syntax unified
 3819              		.thumb
 3820              		.thumb_func
 3821              		.fpu softvfp
 3823              	HAL_UART_AbortCpltCallback:
 3824              	.LVL290:
 3825              	.LFB93:
 3826              		.loc 1 2244 1 is_stmt 1 view -0
 3827              		.cfi_startproc
 3828              		@ args = 0, pretend = 0, frame = 0
 3829              		@ frame_needed = 0, uses_anonymous_args = 0
 3830              		@ link register save eliminated.
 3831              		.loc 1 2246 3 view .LVU1117
 3832              		.loc 1 2251 1 is_stmt 0 view .LVU1118
 3833 0000 7047     		bx	lr
 3834              		.cfi_endproc
 3835              	.LFE93:
 3837              		.section	.text.HAL_UART_Abort_IT,"ax",%progbits
 3838              		.align	1
 3839              		.global	HAL_UART_Abort_IT
ARM GAS  C:\Users\38164\AppData\Local\Temp\ccqRiAWJ.s 			page 67


 3840              		.syntax unified
 3841              		.thumb
 3842              		.thumb_func
 3843              		.fpu softvfp
 3845              	HAL_UART_Abort_IT:
 3846              	.LVL291:
 3847              	.LFB84:
 3848              		.loc 1 1749 1 is_stmt 1 view -0
 3849              		.cfi_startproc
 3850              		@ args = 0, pretend = 0, frame = 0
 3851              		@ frame_needed = 0, uses_anonymous_args = 0
 3852              		.loc 1 1749 1 is_stmt 0 view .LVU1120
 3853 0000 10B5     		push	{r4, lr}
 3854              	.LCFI42:
 3855              		.cfi_def_cfa_offset 8
 3856              		.cfi_offset 4, -8
 3857              		.cfi_offset 14, -4
 3858 0002 0446     		mov	r4, r0
 3859              		.loc 1 1750 3 is_stmt 1 view .LVU1121
 3860              	.LVL292:
 3861              		.loc 1 1753 3 view .LVU1122
 3862 0004 0268     		ldr	r2, [r0]
 3863 0006 D368     		ldr	r3, [r2, #12]
 3864 0008 23F4F073 		bic	r3, r3, #480
 3865 000c D360     		str	r3, [r2, #12]
 3866              		.loc 1 1754 3 view .LVU1123
 3867 000e 0268     		ldr	r2, [r0]
 3868 0010 5369     		ldr	r3, [r2, #20]
 3869 0012 23F00103 		bic	r3, r3, #1
 3870 0016 5361     		str	r3, [r2, #20]
 3871              		.loc 1 1759 3 view .LVU1124
 3872              		.loc 1 1759 12 is_stmt 0 view .LVU1125
 3873 0018 036B     		ldr	r3, [r0, #48]
 3874              		.loc 1 1759 6 view .LVU1126
 3875 001a 33B1     		cbz	r3, .L292
 3876              		.loc 1 1763 5 is_stmt 1 view .LVU1127
 3877              		.loc 1 1763 9 is_stmt 0 view .LVU1128
 3878 001c 0268     		ldr	r2, [r0]
 3879 001e 5269     		ldr	r2, [r2, #20]
 3880              		.loc 1 1763 8 view .LVU1129
 3881 0020 12F0800F 		tst	r2, #128
 3882 0024 1ED0     		beq	.L293
 3883              		.loc 1 1765 7 is_stmt 1 view .LVU1130
 3884              		.loc 1 1765 40 is_stmt 0 view .LVU1131
 3885 0026 264A     		ldr	r2, .L304
 3886 0028 5A63     		str	r2, [r3, #52]
 3887              	.L292:
 3888              		.loc 1 1773 3 is_stmt 1 view .LVU1132
 3889              		.loc 1 1773 12 is_stmt 0 view .LVU1133
 3890 002a 636B     		ldr	r3, [r4, #52]
 3891              		.loc 1 1773 6 view .LVU1134
 3892 002c 33B1     		cbz	r3, .L294
 3893              		.loc 1 1777 5 is_stmt 1 view .LVU1135
 3894              		.loc 1 1777 9 is_stmt 0 view .LVU1136
 3895 002e 2268     		ldr	r2, [r4]
 3896 0030 5269     		ldr	r2, [r2, #20]
 3897              		.loc 1 1777 8 view .LVU1137
ARM GAS  C:\Users\38164\AppData\Local\Temp\ccqRiAWJ.s 			page 68


 3898 0032 12F0400F 		tst	r2, #64
 3899 0036 18D0     		beq	.L295
 3900              		.loc 1 1779 7 is_stmt 1 view .LVU1138
 3901              		.loc 1 1779 40 is_stmt 0 view .LVU1139
 3902 0038 224A     		ldr	r2, .L304+4
 3903 003a 5A63     		str	r2, [r3, #52]
 3904              	.L294:
 3905              		.loc 1 1788 3 is_stmt 1 view .LVU1140
 3906              		.loc 1 1788 7 is_stmt 0 view .LVU1141
 3907 003c 2368     		ldr	r3, [r4]
 3908 003e 5A69     		ldr	r2, [r3, #20]
 3909              		.loc 1 1788 6 view .LVU1142
 3910 0040 12F0800F 		tst	r2, #128
 3911 0044 14D0     		beq	.L300
 3912              		.loc 1 1791 5 is_stmt 1 view .LVU1143
 3913 0046 5A69     		ldr	r2, [r3, #20]
 3914 0048 22F08002 		bic	r2, r2, #128
 3915 004c 5A61     		str	r2, [r3, #20]
 3916              		.loc 1 1794 5 view .LVU1144
 3917              		.loc 1 1794 14 is_stmt 0 view .LVU1145
 3918 004e 206B     		ldr	r0, [r4, #48]
 3919              	.LVL293:
 3920              		.loc 1 1794 8 view .LVU1146
 3921 0050 0028     		cmp	r0, #0
 3922 0052 2CD0     		beq	.L301
 3923              		.loc 1 1800 7 is_stmt 1 view .LVU1147
 3924              		.loc 1 1800 11 is_stmt 0 view .LVU1148
 3925 0054 1C4B     		ldr	r3, .L304+8
 3926 0056 9847     		blx	r3
 3927              	.LVL294:
 3928              		.loc 1 1800 10 view .LVU1149
 3929 0058 58B3     		cbz	r0, .L302
 3930              		.loc 1 1802 9 is_stmt 1 view .LVU1150
 3931              		.loc 1 1802 14 is_stmt 0 view .LVU1151
 3932 005a 236B     		ldr	r3, [r4, #48]
 3933              		.loc 1 1802 42 view .LVU1152
 3934 005c 0022     		movs	r2, #0
 3935 005e 5A63     		str	r2, [r3, #52]
 3936              		.loc 1 1750 12 view .LVU1153
 3937 0060 0121     		movs	r1, #1
 3938 0062 06E0     		b	.L296
 3939              	.LVL295:
 3940              	.L293:
 3941              		.loc 1 1769 7 is_stmt 1 view .LVU1154
 3942              		.loc 1 1769 40 is_stmt 0 view .LVU1155
 3943 0064 0022     		movs	r2, #0
 3944 0066 5A63     		str	r2, [r3, #52]
 3945 0068 DFE7     		b	.L292
 3946              	.L295:
 3947              		.loc 1 1783 7 is_stmt 1 view .LVU1156
 3948              		.loc 1 1783 40 is_stmt 0 view .LVU1157
 3949 006a 0022     		movs	r2, #0
 3950 006c 5A63     		str	r2, [r3, #52]
 3951 006e E5E7     		b	.L294
 3952              	.L300:
 3953              		.loc 1 1750 12 view .LVU1158
 3954 0070 0121     		movs	r1, #1
ARM GAS  C:\Users\38164\AppData\Local\Temp\ccqRiAWJ.s 			page 69


 3955              	.LVL296:
 3956              	.L296:
 3957              		.loc 1 1812 3 is_stmt 1 view .LVU1159
 3958              		.loc 1 1812 7 is_stmt 0 view .LVU1160
 3959 0072 2368     		ldr	r3, [r4]
 3960 0074 5A69     		ldr	r2, [r3, #20]
 3961              		.loc 1 1812 6 view .LVU1161
 3962 0076 12F0400F 		tst	r2, #64
 3963 007a 1CD0     		beq	.L297
 3964              		.loc 1 1814 5 is_stmt 1 view .LVU1162
 3965 007c 5A69     		ldr	r2, [r3, #20]
 3966 007e 22F04002 		bic	r2, r2, #64
 3967 0082 5A61     		str	r2, [r3, #20]
 3968              		.loc 1 1817 5 view .LVU1163
 3969              		.loc 1 1817 14 is_stmt 0 view .LVU1164
 3970 0084 606B     		ldr	r0, [r4, #52]
 3971              		.loc 1 1817 8 view .LVU1165
 3972 0086 B0B1     		cbz	r0, .L297
 3973              		.loc 1 1823 7 is_stmt 1 view .LVU1166
 3974              		.loc 1 1823 11 is_stmt 0 view .LVU1167
 3975 0088 0F4B     		ldr	r3, .L304+8
 3976 008a 9847     		blx	r3
 3977              	.LVL297:
 3978              		.loc 1 1823 10 view .LVU1168
 3979 008c A8B1     		cbz	r0, .L298
 3980              		.loc 1 1825 9 is_stmt 1 view .LVU1169
 3981              		.loc 1 1825 14 is_stmt 0 view .LVU1170
 3982 008e 636B     		ldr	r3, [r4, #52]
 3983              		.loc 1 1825 42 view .LVU1171
 3984 0090 0022     		movs	r2, #0
 3985 0092 5A63     		str	r2, [r3, #52]
 3986              		.loc 1 1826 9 is_stmt 1 view .LVU1172
 3987              	.LVL298:
 3988              		.loc 1 1836 3 view .LVU1173
 3989              	.L299:
 3990              		.loc 1 1839 5 view .LVU1174
 3991              		.loc 1 1839 24 is_stmt 0 view .LVU1175
 3992 0094 0023     		movs	r3, #0
 3993 0096 E384     		strh	r3, [r4, #38]	@ movhi
 3994              		.loc 1 1840 5 is_stmt 1 view .LVU1176
 3995              		.loc 1 1840 24 is_stmt 0 view .LVU1177
 3996 0098 E385     		strh	r3, [r4, #46]	@ movhi
 3997              		.loc 1 1843 5 is_stmt 1 view .LVU1178
 3998              		.loc 1 1843 22 is_stmt 0 view .LVU1179
 3999 009a E363     		str	r3, [r4, #60]
 4000              		.loc 1 1846 5 is_stmt 1 view .LVU1180
 4001              		.loc 1 1846 20 is_stmt 0 view .LVU1181
 4002 009c 2023     		movs	r3, #32
 4003 009e 84F83930 		strb	r3, [r4, #57]
 4004              		.loc 1 1847 5 is_stmt 1 view .LVU1182
 4005              		.loc 1 1847 20 is_stmt 0 view .LVU1183
 4006 00a2 84F83A30 		strb	r3, [r4, #58]
 4007              		.loc 1 1855 5 is_stmt 1 view .LVU1184
 4008 00a6 2046     		mov	r0, r4
 4009 00a8 084B     		ldr	r3, .L304+12
 4010 00aa 9847     		blx	r3
 4011              	.LVL299:
ARM GAS  C:\Users\38164\AppData\Local\Temp\ccqRiAWJ.s 			page 70


 4012 00ac 05E0     		b	.L298
 4013              	.LVL300:
 4014              	.L301:
 4015              		.loc 1 1750 12 is_stmt 0 view .LVU1185
 4016 00ae 0121     		movs	r1, #1
 4017 00b0 DFE7     		b	.L296
 4018              	.L302:
 4019              		.loc 1 1806 19 view .LVU1186
 4020 00b2 0021     		movs	r1, #0
 4021 00b4 DDE7     		b	.L296
 4022              	.LVL301:
 4023              	.L297:
 4024              		.loc 1 1836 3 is_stmt 1 view .LVU1187
 4025              		.loc 1 1836 6 is_stmt 0 view .LVU1188
 4026 00b6 0029     		cmp	r1, #0
 4027 00b8 ECD1     		bne	.L299
 4028              	.LVL302:
 4029              	.L298:
 4030              		.loc 1 1859 3 is_stmt 1 view .LVU1189
 4031              		.loc 1 1860 1 is_stmt 0 view .LVU1190
 4032 00ba 0020     		movs	r0, #0
 4033 00bc 10BD     		pop	{r4, pc}
 4034              	.LVL303:
 4035              	.L305:
 4036              		.loc 1 1860 1 view .LVU1191
 4037 00be 00BF     		.align	2
 4038              	.L304:
 4039 00c0 00000000 		.word	UART_DMATxAbortCallback
 4040 00c4 00000000 		.word	UART_DMARxAbortCallback
 4041 00c8 00000000 		.word	HAL_DMA_Abort_IT
 4042 00cc 00000000 		.word	HAL_UART_AbortCpltCallback
 4043              		.cfi_endproc
 4044              	.LFE84:
 4046              		.section	.text.UART_DMARxAbortCallback,"ax",%progbits
 4047              		.align	1
 4048              		.syntax unified
 4049              		.thumb
 4050              		.thumb_func
 4051              		.fpu softvfp
 4053              	UART_DMARxAbortCallback:
 4054              	.LVL304:
 4055              	.LFB113:
 4056              		.loc 1 2825 1 is_stmt 1 view -0
 4057              		.cfi_startproc
 4058              		@ args = 0, pretend = 0, frame = 0
 4059              		@ frame_needed = 0, uses_anonymous_args = 0
 4060              		.loc 1 2825 1 is_stmt 0 view .LVU1193
 4061 0000 08B5     		push	{r3, lr}
 4062              	.LCFI43:
 4063              		.cfi_def_cfa_offset 8
 4064              		.cfi_offset 3, -8
 4065              		.cfi_offset 14, -4
 4066              		.loc 1 2826 3 is_stmt 1 view .LVU1194
 4067              		.loc 1 2826 23 is_stmt 0 view .LVU1195
 4068 0002 406A     		ldr	r0, [r0, #36]
 4069              	.LVL305:
 4070              		.loc 1 2828 3 is_stmt 1 view .LVU1196
ARM GAS  C:\Users\38164\AppData\Local\Temp\ccqRiAWJ.s 			page 71


 4071              		.loc 1 2828 8 is_stmt 0 view .LVU1197
 4072 0004 436B     		ldr	r3, [r0, #52]
 4073              		.loc 1 2828 36 view .LVU1198
 4074 0006 0022     		movs	r2, #0
 4075 0008 5A63     		str	r2, [r3, #52]
 4076              		.loc 1 2831 3 is_stmt 1 view .LVU1199
 4077              		.loc 1 2831 12 is_stmt 0 view .LVU1200
 4078 000a 036B     		ldr	r3, [r0, #48]
 4079              		.loc 1 2831 6 view .LVU1201
 4080 000c 0BB1     		cbz	r3, .L307
 4081              		.loc 1 2833 5 is_stmt 1 view .LVU1202
 4082              		.loc 1 2833 22 is_stmt 0 view .LVU1203
 4083 000e 5B6B     		ldr	r3, [r3, #52]
 4084              		.loc 1 2833 8 view .LVU1204
 4085 0010 53B9     		cbnz	r3, .L306
 4086              	.L307:
 4087              		.loc 1 2840 3 is_stmt 1 view .LVU1205
 4088              		.loc 1 2840 22 is_stmt 0 view .LVU1206
 4089 0012 0023     		movs	r3, #0
 4090 0014 C384     		strh	r3, [r0, #38]	@ movhi
 4091              		.loc 1 2841 3 is_stmt 1 view .LVU1207
 4092              		.loc 1 2841 22 is_stmt 0 view .LVU1208
 4093 0016 C385     		strh	r3, [r0, #46]	@ movhi
 4094              		.loc 1 2844 3 is_stmt 1 view .LVU1209
 4095              		.loc 1 2844 20 is_stmt 0 view .LVU1210
 4096 0018 C363     		str	r3, [r0, #60]
 4097              		.loc 1 2847 3 is_stmt 1 view .LVU1211
 4098              		.loc 1 2847 18 is_stmt 0 view .LVU1212
 4099 001a 2023     		movs	r3, #32
 4100 001c 80F83930 		strb	r3, [r0, #57]
 4101              		.loc 1 2848 3 is_stmt 1 view .LVU1213
 4102              		.loc 1 2848 18 is_stmt 0 view .LVU1214
 4103 0020 80F83A30 		strb	r3, [r0, #58]
 4104              		.loc 1 2856 3 is_stmt 1 view .LVU1215
 4105 0024 014B     		ldr	r3, .L310
 4106 0026 9847     		blx	r3
 4107              	.LVL306:
 4108              	.L306:
 4109              		.loc 1 2858 1 is_stmt 0 view .LVU1216
 4110 0028 08BD     		pop	{r3, pc}
 4111              	.L311:
 4112 002a 00BF     		.align	2
 4113              	.L310:
 4114 002c 00000000 		.word	HAL_UART_AbortCpltCallback
 4115              		.cfi_endproc
 4116              	.LFE113:
 4118              		.section	.text.UART_DMATxAbortCallback,"ax",%progbits
 4119              		.align	1
 4120              		.syntax unified
 4121              		.thumb
 4122              		.thumb_func
 4123              		.fpu softvfp
 4125              	UART_DMATxAbortCallback:
 4126              	.LVL307:
 4127              	.LFB112:
 4128              		.loc 1 2780 1 is_stmt 1 view -0
 4129              		.cfi_startproc
ARM GAS  C:\Users\38164\AppData\Local\Temp\ccqRiAWJ.s 			page 72


 4130              		@ args = 0, pretend = 0, frame = 0
 4131              		@ frame_needed = 0, uses_anonymous_args = 0
 4132              		.loc 1 2780 1 is_stmt 0 view .LVU1218
 4133 0000 08B5     		push	{r3, lr}
 4134              	.LCFI44:
 4135              		.cfi_def_cfa_offset 8
 4136              		.cfi_offset 3, -8
 4137              		.cfi_offset 14, -4
 4138              		.loc 1 2781 3 is_stmt 1 view .LVU1219
 4139              		.loc 1 2781 23 is_stmt 0 view .LVU1220
 4140 0002 406A     		ldr	r0, [r0, #36]
 4141              	.LVL308:
 4142              		.loc 1 2783 3 is_stmt 1 view .LVU1221
 4143              		.loc 1 2783 8 is_stmt 0 view .LVU1222
 4144 0004 036B     		ldr	r3, [r0, #48]
 4145              		.loc 1 2783 36 view .LVU1223
 4146 0006 0022     		movs	r2, #0
 4147 0008 5A63     		str	r2, [r3, #52]
 4148              		.loc 1 2786 3 is_stmt 1 view .LVU1224
 4149              		.loc 1 2786 12 is_stmt 0 view .LVU1225
 4150 000a 436B     		ldr	r3, [r0, #52]
 4151              		.loc 1 2786 6 view .LVU1226
 4152 000c 0BB1     		cbz	r3, .L313
 4153              		.loc 1 2788 5 is_stmt 1 view .LVU1227
 4154              		.loc 1 2788 22 is_stmt 0 view .LVU1228
 4155 000e 5B6B     		ldr	r3, [r3, #52]
 4156              		.loc 1 2788 8 view .LVU1229
 4157 0010 53B9     		cbnz	r3, .L312
 4158              	.L313:
 4159              		.loc 1 2795 3 is_stmt 1 view .LVU1230
 4160              		.loc 1 2795 22 is_stmt 0 view .LVU1231
 4161 0012 0023     		movs	r3, #0
 4162 0014 C384     		strh	r3, [r0, #38]	@ movhi
 4163              		.loc 1 2796 3 is_stmt 1 view .LVU1232
 4164              		.loc 1 2796 22 is_stmt 0 view .LVU1233
 4165 0016 C385     		strh	r3, [r0, #46]	@ movhi
 4166              		.loc 1 2799 3 is_stmt 1 view .LVU1234
 4167              		.loc 1 2799 20 is_stmt 0 view .LVU1235
 4168 0018 C363     		str	r3, [r0, #60]
 4169              		.loc 1 2802 3 is_stmt 1 view .LVU1236
 4170              		.loc 1 2802 18 is_stmt 0 view .LVU1237
 4171 001a 2023     		movs	r3, #32
 4172 001c 80F83930 		strb	r3, [r0, #57]
 4173              		.loc 1 2803 3 is_stmt 1 view .LVU1238
 4174              		.loc 1 2803 18 is_stmt 0 view .LVU1239
 4175 0020 80F83A30 		strb	r3, [r0, #58]
 4176              		.loc 1 2811 3 is_stmt 1 view .LVU1240
 4177 0024 014B     		ldr	r3, .L316
 4178 0026 9847     		blx	r3
 4179              	.LVL309:
 4180              	.L312:
 4181              		.loc 1 2813 1 is_stmt 0 view .LVU1241
 4182 0028 08BD     		pop	{r3, pc}
 4183              	.L317:
 4184 002a 00BF     		.align	2
 4185              	.L316:
 4186 002c 00000000 		.word	HAL_UART_AbortCpltCallback
ARM GAS  C:\Users\38164\AppData\Local\Temp\ccqRiAWJ.s 			page 73


 4187              		.cfi_endproc
 4188              	.LFE112:
 4190              		.section	.text.HAL_UART_AbortTransmitCpltCallback,"ax",%progbits
 4191              		.align	1
 4192              		.weak	HAL_UART_AbortTransmitCpltCallback
 4193              		.syntax unified
 4194              		.thumb
 4195              		.thumb_func
 4196              		.fpu softvfp
 4198              	HAL_UART_AbortTransmitCpltCallback:
 4199              	.LVL310:
 4200              	.LFB94:
 4201              		.loc 1 2259 1 is_stmt 1 view -0
 4202              		.cfi_startproc
 4203              		@ args = 0, pretend = 0, frame = 0
 4204              		@ frame_needed = 0, uses_anonymous_args = 0
 4205              		@ link register save eliminated.
 4206              		.loc 1 2261 3 view .LVU1243
 4207              		.loc 1 2266 1 is_stmt 0 view .LVU1244
 4208 0000 7047     		bx	lr
 4209              		.cfi_endproc
 4210              	.LFE94:
 4212              		.section	.text.HAL_UART_AbortTransmit_IT,"ax",%progbits
 4213              		.align	1
 4214              		.global	HAL_UART_AbortTransmit_IT
 4215              		.syntax unified
 4216              		.thumb
 4217              		.thumb_func
 4218              		.fpu softvfp
 4220              	HAL_UART_AbortTransmit_IT:
 4221              	.LVL311:
 4222              	.LFB85:
 4223              		.loc 1 1877 1 is_stmt 1 view -0
 4224              		.cfi_startproc
 4225              		@ args = 0, pretend = 0, frame = 0
 4226              		@ frame_needed = 0, uses_anonymous_args = 0
 4227              		.loc 1 1877 1 is_stmt 0 view .LVU1246
 4228 0000 10B5     		push	{r4, lr}
 4229              	.LCFI45:
 4230              		.cfi_def_cfa_offset 8
 4231              		.cfi_offset 4, -8
 4232              		.cfi_offset 14, -4
 4233 0002 0446     		mov	r4, r0
 4234              		.loc 1 1879 3 is_stmt 1 view .LVU1247
 4235 0004 0268     		ldr	r2, [r0]
 4236 0006 D368     		ldr	r3, [r2, #12]
 4237 0008 23F0C003 		bic	r3, r3, #192
 4238 000c D360     		str	r3, [r2, #12]
 4239              		.loc 1 1882 3 view .LVU1248
 4240              		.loc 1 1882 7 is_stmt 0 view .LVU1249
 4241 000e 0368     		ldr	r3, [r0]
 4242 0010 5A69     		ldr	r2, [r3, #20]
 4243              		.loc 1 1882 6 view .LVU1250
 4244 0012 12F0800F 		tst	r2, #128
 4245 0016 17D0     		beq	.L320
 4246              		.loc 1 1884 5 is_stmt 1 view .LVU1251
 4247 0018 5A69     		ldr	r2, [r3, #20]
ARM GAS  C:\Users\38164\AppData\Local\Temp\ccqRiAWJ.s 			page 74


 4248 001a 22F08002 		bic	r2, r2, #128
 4249 001e 5A61     		str	r2, [r3, #20]
 4250              		.loc 1 1887 5 view .LVU1252
 4251              		.loc 1 1887 14 is_stmt 0 view .LVU1253
 4252 0020 036B     		ldr	r3, [r0, #48]
 4253              		.loc 1 1887 8 view .LVU1254
 4254 0022 4BB1     		cbz	r3, .L321
 4255              		.loc 1 1891 7 is_stmt 1 view .LVU1255
 4256              		.loc 1 1891 40 is_stmt 0 view .LVU1256
 4257 0024 0D4A     		ldr	r2, .L324
 4258 0026 5A63     		str	r2, [r3, #52]
 4259              		.loc 1 1894 7 is_stmt 1 view .LVU1257
 4260              		.loc 1 1894 11 is_stmt 0 view .LVU1258
 4261 0028 006B     		ldr	r0, [r0, #48]
 4262              	.LVL312:
 4263              		.loc 1 1894 11 view .LVU1259
 4264 002a 0D4B     		ldr	r3, .L324+4
 4265 002c 9847     		blx	r3
 4266              	.LVL313:
 4267              		.loc 1 1894 10 view .LVU1260
 4268 002e 90B1     		cbz	r0, .L322
 4269              		.loc 1 1897 9 is_stmt 1 view .LVU1261
 4270              		.loc 1 1897 14 is_stmt 0 view .LVU1262
 4271 0030 206B     		ldr	r0, [r4, #48]
 4272              		.loc 1 1897 22 view .LVU1263
 4273 0032 436B     		ldr	r3, [r0, #52]
 4274              		.loc 1 1897 9 view .LVU1264
 4275 0034 9847     		blx	r3
 4276              	.LVL314:
 4277 0036 0EE0     		b	.L322
 4278              	.LVL315:
 4279              	.L321:
 4280              		.loc 1 1903 7 is_stmt 1 view .LVU1265
 4281              		.loc 1 1903 26 is_stmt 0 view .LVU1266
 4282 0038 0023     		movs	r3, #0
 4283 003a C384     		strh	r3, [r0, #38]	@ movhi
 4284              		.loc 1 1906 7 is_stmt 1 view .LVU1267
 4285              		.loc 1 1906 21 is_stmt 0 view .LVU1268
 4286 003c 2023     		movs	r3, #32
 4287 003e 80F83930 		strb	r3, [r0, #57]
 4288              		.loc 1 1914 7 is_stmt 1 view .LVU1269
 4289 0042 084B     		ldr	r3, .L324+8
 4290 0044 9847     		blx	r3
 4291              	.LVL316:
 4292              		.loc 1 1914 7 is_stmt 0 view .LVU1270
 4293 0046 06E0     		b	.L322
 4294              	.LVL317:
 4295              	.L320:
 4296              		.loc 1 1921 5 is_stmt 1 view .LVU1271
 4297              		.loc 1 1921 24 is_stmt 0 view .LVU1272
 4298 0048 0023     		movs	r3, #0
 4299 004a C384     		strh	r3, [r0, #38]	@ movhi
 4300              		.loc 1 1924 5 is_stmt 1 view .LVU1273
 4301              		.loc 1 1924 19 is_stmt 0 view .LVU1274
 4302 004c 2023     		movs	r3, #32
 4303 004e 80F83930 		strb	r3, [r0, #57]
 4304              		.loc 1 1932 5 is_stmt 1 view .LVU1275
ARM GAS  C:\Users\38164\AppData\Local\Temp\ccqRiAWJ.s 			page 75


 4305 0052 044B     		ldr	r3, .L324+8
 4306 0054 9847     		blx	r3
 4307              	.LVL318:
 4308              	.L322:
 4309              		.loc 1 1936 3 view .LVU1276
 4310              		.loc 1 1937 1 is_stmt 0 view .LVU1277
 4311 0056 0020     		movs	r0, #0
 4312 0058 10BD     		pop	{r4, pc}
 4313              	.LVL319:
 4314              	.L325:
 4315              		.loc 1 1937 1 view .LVU1278
 4316 005a 00BF     		.align	2
 4317              	.L324:
 4318 005c 00000000 		.word	UART_DMATxOnlyAbortCallback
 4319 0060 00000000 		.word	HAL_DMA_Abort_IT
 4320 0064 00000000 		.word	HAL_UART_AbortTransmitCpltCallback
 4321              		.cfi_endproc
 4322              	.LFE85:
 4324              		.section	.text.UART_DMATxOnlyAbortCallback,"ax",%progbits
 4325              		.align	1
 4326              		.syntax unified
 4327              		.thumb
 4328              		.thumb_func
 4329              		.fpu softvfp
 4331              	UART_DMATxOnlyAbortCallback:
 4332              	.LVL320:
 4333              	.LFB114:
 4334              		.loc 1 2870 1 is_stmt 1 view -0
 4335              		.cfi_startproc
 4336              		@ args = 0, pretend = 0, frame = 0
 4337              		@ frame_needed = 0, uses_anonymous_args = 0
 4338              		.loc 1 2870 1 is_stmt 0 view .LVU1280
 4339 0000 08B5     		push	{r3, lr}
 4340              	.LCFI46:
 4341              		.cfi_def_cfa_offset 8
 4342              		.cfi_offset 3, -8
 4343              		.cfi_offset 14, -4
 4344              		.loc 1 2871 3 is_stmt 1 view .LVU1281
 4345              		.loc 1 2871 23 is_stmt 0 view .LVU1282
 4346 0002 406A     		ldr	r0, [r0, #36]
 4347              	.LVL321:
 4348              		.loc 1 2873 3 is_stmt 1 view .LVU1283
 4349              		.loc 1 2873 22 is_stmt 0 view .LVU1284
 4350 0004 0023     		movs	r3, #0
 4351 0006 C384     		strh	r3, [r0, #38]	@ movhi
 4352              		.loc 1 2876 3 is_stmt 1 view .LVU1285
 4353              		.loc 1 2876 17 is_stmt 0 view .LVU1286
 4354 0008 2023     		movs	r3, #32
 4355 000a 80F83930 		strb	r3, [r0, #57]
 4356              		.loc 1 2884 3 is_stmt 1 view .LVU1287
 4357 000e 014B     		ldr	r3, .L328
 4358 0010 9847     		blx	r3
 4359              	.LVL322:
 4360              		.loc 1 2886 1 is_stmt 0 view .LVU1288
 4361 0012 08BD     		pop	{r3, pc}
 4362              	.L329:
 4363              		.align	2
ARM GAS  C:\Users\38164\AppData\Local\Temp\ccqRiAWJ.s 			page 76


 4364              	.L328:
 4365 0014 00000000 		.word	HAL_UART_AbortTransmitCpltCallback
 4366              		.cfi_endproc
 4367              	.LFE114:
 4369              		.section	.text.HAL_UART_AbortReceiveCpltCallback,"ax",%progbits
 4370              		.align	1
 4371              		.weak	HAL_UART_AbortReceiveCpltCallback
 4372              		.syntax unified
 4373              		.thumb
 4374              		.thumb_func
 4375              		.fpu softvfp
 4377              	HAL_UART_AbortReceiveCpltCallback:
 4378              	.LVL323:
 4379              	.LFB95:
 4380              		.loc 1 2274 1 is_stmt 1 view -0
 4381              		.cfi_startproc
 4382              		@ args = 0, pretend = 0, frame = 0
 4383              		@ frame_needed = 0, uses_anonymous_args = 0
 4384              		@ link register save eliminated.
 4385              		.loc 1 2276 3 view .LVU1290
 4386              		.loc 1 2281 1 is_stmt 0 view .LVU1291
 4387 0000 7047     		bx	lr
 4388              		.cfi_endproc
 4389              	.LFE95:
 4391              		.section	.text.HAL_UART_AbortReceive_IT,"ax",%progbits
 4392              		.align	1
 4393              		.global	HAL_UART_AbortReceive_IT
 4394              		.syntax unified
 4395              		.thumb
 4396              		.thumb_func
 4397              		.fpu softvfp
 4399              	HAL_UART_AbortReceive_IT:
 4400              	.LVL324:
 4401              	.LFB86:
 4402              		.loc 1 1954 1 is_stmt 1 view -0
 4403              		.cfi_startproc
 4404              		@ args = 0, pretend = 0, frame = 0
 4405              		@ frame_needed = 0, uses_anonymous_args = 0
 4406              		.loc 1 1954 1 is_stmt 0 view .LVU1293
 4407 0000 10B5     		push	{r4, lr}
 4408              	.LCFI47:
 4409              		.cfi_def_cfa_offset 8
 4410              		.cfi_offset 4, -8
 4411              		.cfi_offset 14, -4
 4412 0002 0446     		mov	r4, r0
 4413              		.loc 1 1956 3 is_stmt 1 view .LVU1294
 4414 0004 0268     		ldr	r2, [r0]
 4415 0006 D368     		ldr	r3, [r2, #12]
 4416 0008 23F49073 		bic	r3, r3, #288
 4417 000c D360     		str	r3, [r2, #12]
 4418              		.loc 1 1957 3 view .LVU1295
 4419 000e 0268     		ldr	r2, [r0]
 4420 0010 5369     		ldr	r3, [r2, #20]
 4421 0012 23F00103 		bic	r3, r3, #1
 4422 0016 5361     		str	r3, [r2, #20]
 4423              		.loc 1 1960 3 view .LVU1296
 4424              		.loc 1 1960 7 is_stmt 0 view .LVU1297
ARM GAS  C:\Users\38164\AppData\Local\Temp\ccqRiAWJ.s 			page 77


 4425 0018 0368     		ldr	r3, [r0]
 4426 001a 5A69     		ldr	r2, [r3, #20]
 4427              		.loc 1 1960 6 view .LVU1298
 4428 001c 12F0400F 		tst	r2, #64
 4429 0020 17D0     		beq	.L332
 4430              		.loc 1 1962 5 is_stmt 1 view .LVU1299
 4431 0022 5A69     		ldr	r2, [r3, #20]
 4432 0024 22F04002 		bic	r2, r2, #64
 4433 0028 5A61     		str	r2, [r3, #20]
 4434              		.loc 1 1965 5 view .LVU1300
 4435              		.loc 1 1965 14 is_stmt 0 view .LVU1301
 4436 002a 436B     		ldr	r3, [r0, #52]
 4437              		.loc 1 1965 8 view .LVU1302
 4438 002c 4BB1     		cbz	r3, .L333
 4439              		.loc 1 1969 7 is_stmt 1 view .LVU1303
 4440              		.loc 1 1969 40 is_stmt 0 view .LVU1304
 4441 002e 0D4A     		ldr	r2, .L336
 4442 0030 5A63     		str	r2, [r3, #52]
 4443              		.loc 1 1972 7 is_stmt 1 view .LVU1305
 4444              		.loc 1 1972 11 is_stmt 0 view .LVU1306
 4445 0032 406B     		ldr	r0, [r0, #52]
 4446              	.LVL325:
 4447              		.loc 1 1972 11 view .LVU1307
 4448 0034 0C4B     		ldr	r3, .L336+4
 4449 0036 9847     		blx	r3
 4450              	.LVL326:
 4451              		.loc 1 1972 10 view .LVU1308
 4452 0038 90B1     		cbz	r0, .L334
 4453              		.loc 1 1975 9 is_stmt 1 view .LVU1309
 4454              		.loc 1 1975 14 is_stmt 0 view .LVU1310
 4455 003a 606B     		ldr	r0, [r4, #52]
 4456              		.loc 1 1975 22 view .LVU1311
 4457 003c 436B     		ldr	r3, [r0, #52]
 4458              		.loc 1 1975 9 view .LVU1312
 4459 003e 9847     		blx	r3
 4460              	.LVL327:
 4461 0040 0EE0     		b	.L334
 4462              	.LVL328:
 4463              	.L333:
 4464              		.loc 1 1981 7 is_stmt 1 view .LVU1313
 4465              		.loc 1 1981 26 is_stmt 0 view .LVU1314
 4466 0042 0023     		movs	r3, #0
 4467 0044 C385     		strh	r3, [r0, #46]	@ movhi
 4468              		.loc 1 1984 7 is_stmt 1 view .LVU1315
 4469              		.loc 1 1984 22 is_stmt 0 view .LVU1316
 4470 0046 2023     		movs	r3, #32
 4471 0048 80F83A30 		strb	r3, [r0, #58]
 4472              		.loc 1 1992 7 is_stmt 1 view .LVU1317
 4473 004c 074B     		ldr	r3, .L336+8
 4474 004e 9847     		blx	r3
 4475              	.LVL329:
 4476              		.loc 1 1992 7 is_stmt 0 view .LVU1318
 4477 0050 06E0     		b	.L334
 4478              	.LVL330:
 4479              	.L332:
 4480              		.loc 1 1999 5 is_stmt 1 view .LVU1319
 4481              		.loc 1 1999 24 is_stmt 0 view .LVU1320
ARM GAS  C:\Users\38164\AppData\Local\Temp\ccqRiAWJ.s 			page 78


 4482 0052 0023     		movs	r3, #0
 4483 0054 C385     		strh	r3, [r0, #46]	@ movhi
 4484              		.loc 1 2002 5 is_stmt 1 view .LVU1321
 4485              		.loc 1 2002 20 is_stmt 0 view .LVU1322
 4486 0056 2023     		movs	r3, #32
 4487 0058 80F83A30 		strb	r3, [r0, #58]
 4488              		.loc 1 2010 5 is_stmt 1 view .LVU1323
 4489 005c 034B     		ldr	r3, .L336+8
 4490 005e 9847     		blx	r3
 4491              	.LVL331:
 4492              	.L334:
 4493              		.loc 1 2014 3 view .LVU1324
 4494              		.loc 1 2015 1 is_stmt 0 view .LVU1325
 4495 0060 0020     		movs	r0, #0
 4496 0062 10BD     		pop	{r4, pc}
 4497              	.LVL332:
 4498              	.L337:
 4499              		.loc 1 2015 1 view .LVU1326
 4500              		.align	2
 4501              	.L336:
 4502 0064 00000000 		.word	UART_DMARxOnlyAbortCallback
 4503 0068 00000000 		.word	HAL_DMA_Abort_IT
 4504 006c 00000000 		.word	HAL_UART_AbortReceiveCpltCallback
 4505              		.cfi_endproc
 4506              	.LFE86:
 4508              		.section	.text.UART_DMARxOnlyAbortCallback,"ax",%progbits
 4509              		.align	1
 4510              		.syntax unified
 4511              		.thumb
 4512              		.thumb_func
 4513              		.fpu softvfp
 4515              	UART_DMARxOnlyAbortCallback:
 4516              	.LVL333:
 4517              	.LFB115:
 4518              		.loc 1 2898 1 is_stmt 1 view -0
 4519              		.cfi_startproc
 4520              		@ args = 0, pretend = 0, frame = 0
 4521              		@ frame_needed = 0, uses_anonymous_args = 0
 4522              		.loc 1 2898 1 is_stmt 0 view .LVU1328
 4523 0000 08B5     		push	{r3, lr}
 4524              	.LCFI48:
 4525              		.cfi_def_cfa_offset 8
 4526              		.cfi_offset 3, -8
 4527              		.cfi_offset 14, -4
 4528              		.loc 1 2899 3 is_stmt 1 view .LVU1329
 4529              		.loc 1 2899 23 is_stmt 0 view .LVU1330
 4530 0002 406A     		ldr	r0, [r0, #36]
 4531              	.LVL334:
 4532              		.loc 1 2901 3 is_stmt 1 view .LVU1331
 4533              		.loc 1 2901 22 is_stmt 0 view .LVU1332
 4534 0004 0023     		movs	r3, #0
 4535 0006 C385     		strh	r3, [r0, #46]	@ movhi
 4536              		.loc 1 2904 3 is_stmt 1 view .LVU1333
 4537              		.loc 1 2904 18 is_stmt 0 view .LVU1334
 4538 0008 2023     		movs	r3, #32
 4539 000a 80F83A30 		strb	r3, [r0, #58]
 4540              		.loc 1 2912 3 is_stmt 1 view .LVU1335
ARM GAS  C:\Users\38164\AppData\Local\Temp\ccqRiAWJ.s 			page 79


 4541 000e 014B     		ldr	r3, .L340
 4542 0010 9847     		blx	r3
 4543              	.LVL335:
 4544              		.loc 1 2914 1 is_stmt 0 view .LVU1336
 4545 0012 08BD     		pop	{r3, pc}
 4546              	.L341:
 4547              		.align	2
 4548              	.L340:
 4549 0014 00000000 		.word	HAL_UART_AbortReceiveCpltCallback
 4550              		.cfi_endproc
 4551              	.LFE115:
 4553              		.section	.text.HAL_LIN_SendBreak,"ax",%progbits
 4554              		.align	1
 4555              		.global	HAL_LIN_SendBreak
 4556              		.syntax unified
 4557              		.thumb
 4558              		.thumb_func
 4559              		.fpu softvfp
 4561              	HAL_LIN_SendBreak:
 4562              	.LVL336:
 4563              	.LFB96:
 4564              		.loc 1 2313 1 is_stmt 1 view -0
 4565              		.cfi_startproc
 4566              		@ args = 0, pretend = 0, frame = 0
 4567              		@ frame_needed = 0, uses_anonymous_args = 0
 4568              		@ link register save eliminated.
 4569              		.loc 1 2315 3 view .LVU1338
 4570              		.loc 1 2318 3 view .LVU1339
 4571              		.loc 1 2318 3 view .LVU1340
 4572 0000 90F83830 		ldrb	r3, [r0, #56]	@ zero_extendqisi2
 4573 0004 012B     		cmp	r3, #1
 4574 0006 12D0     		beq	.L344
 4575              		.loc 1 2318 3 discriminator 2 view .LVU1341
 4576 0008 0123     		movs	r3, #1
 4577 000a 80F83830 		strb	r3, [r0, #56]
 4578              		.loc 1 2318 3 discriminator 2 view .LVU1342
 4579              		.loc 1 2320 3 discriminator 2 view .LVU1343
 4580              		.loc 1 2320 17 is_stmt 0 discriminator 2 view .LVU1344
 4581 000e 2423     		movs	r3, #36
 4582 0010 80F83930 		strb	r3, [r0, #57]
 4583              		.loc 1 2323 3 is_stmt 1 discriminator 2 view .LVU1345
 4584 0014 0268     		ldr	r2, [r0]
 4585 0016 D368     		ldr	r3, [r2, #12]
 4586 0018 43F00103 		orr	r3, r3, #1
 4587 001c D360     		str	r3, [r2, #12]
 4588              		.loc 1 2325 3 discriminator 2 view .LVU1346
 4589              		.loc 1 2325 17 is_stmt 0 discriminator 2 view .LVU1347
 4590 001e 2023     		movs	r3, #32
 4591 0020 80F83930 		strb	r3, [r0, #57]
 4592              		.loc 1 2328 3 is_stmt 1 discriminator 2 view .LVU1348
 4593              		.loc 1 2328 3 discriminator 2 view .LVU1349
 4594 0024 0023     		movs	r3, #0
 4595 0026 80F83830 		strb	r3, [r0, #56]
 4596              		.loc 1 2328 3 discriminator 2 view .LVU1350
 4597              		.loc 1 2330 3 discriminator 2 view .LVU1351
 4598              		.loc 1 2330 10 is_stmt 0 discriminator 2 view .LVU1352
 4599 002a 1846     		mov	r0, r3
ARM GAS  C:\Users\38164\AppData\Local\Temp\ccqRiAWJ.s 			page 80


 4600              	.LVL337:
 4601              		.loc 1 2330 10 discriminator 2 view .LVU1353
 4602 002c 7047     		bx	lr
 4603              	.LVL338:
 4604              	.L344:
 4605              		.loc 1 2318 3 view .LVU1354
 4606 002e 0220     		movs	r0, #2
 4607              	.LVL339:
 4608              		.loc 1 2331 1 view .LVU1355
 4609 0030 7047     		bx	lr
 4610              		.cfi_endproc
 4611              	.LFE96:
 4613              		.section	.text.HAL_MultiProcessor_EnterMuteMode,"ax",%progbits
 4614              		.align	1
 4615              		.global	HAL_MultiProcessor_EnterMuteMode
 4616              		.syntax unified
 4617              		.thumb
 4618              		.thumb_func
 4619              		.fpu softvfp
 4621              	HAL_MultiProcessor_EnterMuteMode:
 4622              	.LVL340:
 4623              	.LFB97:
 4624              		.loc 1 2340 1 is_stmt 1 view -0
 4625              		.cfi_startproc
 4626              		@ args = 0, pretend = 0, frame = 0
 4627              		@ frame_needed = 0, uses_anonymous_args = 0
 4628              		@ link register save eliminated.
 4629              		.loc 1 2342 3 view .LVU1357
 4630              		.loc 1 2345 3 view .LVU1358
 4631              		.loc 1 2345 3 view .LVU1359
 4632 0000 90F83830 		ldrb	r3, [r0, #56]	@ zero_extendqisi2
 4633 0004 012B     		cmp	r3, #1
 4634 0006 12D0     		beq	.L347
 4635              		.loc 1 2345 3 discriminator 2 view .LVU1360
 4636 0008 0123     		movs	r3, #1
 4637 000a 80F83830 		strb	r3, [r0, #56]
 4638              		.loc 1 2345 3 discriminator 2 view .LVU1361
 4639              		.loc 1 2347 3 discriminator 2 view .LVU1362
 4640              		.loc 1 2347 17 is_stmt 0 discriminator 2 view .LVU1363
 4641 000e 2423     		movs	r3, #36
 4642 0010 80F83930 		strb	r3, [r0, #57]
 4643              		.loc 1 2350 3 is_stmt 1 discriminator 2 view .LVU1364
 4644 0014 0268     		ldr	r2, [r0]
 4645 0016 D368     		ldr	r3, [r2, #12]
 4646 0018 43F00203 		orr	r3, r3, #2
 4647 001c D360     		str	r3, [r2, #12]
 4648              		.loc 1 2352 3 discriminator 2 view .LVU1365
 4649              		.loc 1 2352 17 is_stmt 0 discriminator 2 view .LVU1366
 4650 001e 2023     		movs	r3, #32
 4651 0020 80F83930 		strb	r3, [r0, #57]
 4652              		.loc 1 2355 3 is_stmt 1 discriminator 2 view .LVU1367
 4653              		.loc 1 2355 3 discriminator 2 view .LVU1368
 4654 0024 0023     		movs	r3, #0
 4655 0026 80F83830 		strb	r3, [r0, #56]
 4656              		.loc 1 2355 3 discriminator 2 view .LVU1369
 4657              		.loc 1 2357 3 discriminator 2 view .LVU1370
 4658              		.loc 1 2357 10 is_stmt 0 discriminator 2 view .LVU1371
ARM GAS  C:\Users\38164\AppData\Local\Temp\ccqRiAWJ.s 			page 81


 4659 002a 1846     		mov	r0, r3
 4660              	.LVL341:
 4661              		.loc 1 2357 10 discriminator 2 view .LVU1372
 4662 002c 7047     		bx	lr
 4663              	.LVL342:
 4664              	.L347:
 4665              		.loc 1 2345 3 view .LVU1373
 4666 002e 0220     		movs	r0, #2
 4667              	.LVL343:
 4668              		.loc 1 2358 1 view .LVU1374
 4669 0030 7047     		bx	lr
 4670              		.cfi_endproc
 4671              	.LFE97:
 4673              		.section	.text.HAL_MultiProcessor_ExitMuteMode,"ax",%progbits
 4674              		.align	1
 4675              		.global	HAL_MultiProcessor_ExitMuteMode
 4676              		.syntax unified
 4677              		.thumb
 4678              		.thumb_func
 4679              		.fpu softvfp
 4681              	HAL_MultiProcessor_ExitMuteMode:
 4682              	.LVL344:
 4683              	.LFB98:
 4684              		.loc 1 2367 1 is_stmt 1 view -0
 4685              		.cfi_startproc
 4686              		@ args = 0, pretend = 0, frame = 0
 4687              		@ frame_needed = 0, uses_anonymous_args = 0
 4688              		@ link register save eliminated.
 4689              		.loc 1 2369 3 view .LVU1376
 4690              		.loc 1 2372 3 view .LVU1377
 4691              		.loc 1 2372 3 view .LVU1378
 4692 0000 90F83830 		ldrb	r3, [r0, #56]	@ zero_extendqisi2
 4693 0004 012B     		cmp	r3, #1
 4694 0006 12D0     		beq	.L350
 4695              		.loc 1 2372 3 discriminator 2 view .LVU1379
 4696 0008 0123     		movs	r3, #1
 4697 000a 80F83830 		strb	r3, [r0, #56]
 4698              		.loc 1 2372 3 discriminator 2 view .LVU1380
 4699              		.loc 1 2374 3 discriminator 2 view .LVU1381
 4700              		.loc 1 2374 17 is_stmt 0 discriminator 2 view .LVU1382
 4701 000e 2423     		movs	r3, #36
 4702 0010 80F83930 		strb	r3, [r0, #57]
 4703              		.loc 1 2377 3 is_stmt 1 discriminator 2 view .LVU1383
 4704 0014 0268     		ldr	r2, [r0]
 4705 0016 D368     		ldr	r3, [r2, #12]
 4706 0018 23F00203 		bic	r3, r3, #2
 4707 001c D360     		str	r3, [r2, #12]
 4708              		.loc 1 2379 3 discriminator 2 view .LVU1384
 4709              		.loc 1 2379 17 is_stmt 0 discriminator 2 view .LVU1385
 4710 001e 2023     		movs	r3, #32
 4711 0020 80F83930 		strb	r3, [r0, #57]
 4712              		.loc 1 2382 3 is_stmt 1 discriminator 2 view .LVU1386
 4713              		.loc 1 2382 3 discriminator 2 view .LVU1387
 4714 0024 0023     		movs	r3, #0
 4715 0026 80F83830 		strb	r3, [r0, #56]
 4716              		.loc 1 2382 3 discriminator 2 view .LVU1388
 4717              		.loc 1 2384 3 discriminator 2 view .LVU1389
ARM GAS  C:\Users\38164\AppData\Local\Temp\ccqRiAWJ.s 			page 82


 4718              		.loc 1 2384 10 is_stmt 0 discriminator 2 view .LVU1390
 4719 002a 1846     		mov	r0, r3
 4720              	.LVL345:
 4721              		.loc 1 2384 10 discriminator 2 view .LVU1391
 4722 002c 7047     		bx	lr
 4723              	.LVL346:
 4724              	.L350:
 4725              		.loc 1 2372 3 view .LVU1392
 4726 002e 0220     		movs	r0, #2
 4727              	.LVL347:
 4728              		.loc 1 2385 1 view .LVU1393
 4729 0030 7047     		bx	lr
 4730              		.cfi_endproc
 4731              	.LFE98:
 4733              		.section	.text.HAL_HalfDuplex_EnableTransmitter,"ax",%progbits
 4734              		.align	1
 4735              		.global	HAL_HalfDuplex_EnableTransmitter
 4736              		.syntax unified
 4737              		.thumb
 4738              		.thumb_func
 4739              		.fpu softvfp
 4741              	HAL_HalfDuplex_EnableTransmitter:
 4742              	.LVL348:
 4743              	.LFB99:
 4744              		.loc 1 2394 1 is_stmt 1 view -0
 4745              		.cfi_startproc
 4746              		@ args = 0, pretend = 0, frame = 0
 4747              		@ frame_needed = 0, uses_anonymous_args = 0
 4748              		@ link register save eliminated.
 4749              		.loc 1 2395 3 view .LVU1395
 4750              		.loc 1 2398 3 view .LVU1396
 4751              		.loc 1 2398 3 view .LVU1397
 4752 0000 90F83830 		ldrb	r3, [r0, #56]	@ zero_extendqisi2
 4753 0004 012B     		cmp	r3, #1
 4754 0006 14D0     		beq	.L353
 4755              		.loc 1 2398 3 discriminator 2 view .LVU1398
 4756 0008 0123     		movs	r3, #1
 4757 000a 80F83830 		strb	r3, [r0, #56]
 4758              		.loc 1 2398 3 discriminator 2 view .LVU1399
 4759              		.loc 1 2400 3 discriminator 2 view .LVU1400
 4760              		.loc 1 2400 17 is_stmt 0 discriminator 2 view .LVU1401
 4761 000e 2423     		movs	r3, #36
 4762 0010 80F83930 		strb	r3, [r0, #57]
 4763              		.loc 1 2403 3 is_stmt 1 discriminator 2 view .LVU1402
 4764              		.loc 1 2403 17 is_stmt 0 discriminator 2 view .LVU1403
 4765 0014 0268     		ldr	r2, [r0]
 4766              		.loc 1 2403 10 discriminator 2 view .LVU1404
 4767 0016 D368     		ldr	r3, [r2, #12]
 4768              	.LVL349:
 4769              		.loc 1 2406 3 is_stmt 1 discriminator 2 view .LVU1405
 4770              		.loc 1 2406 10 is_stmt 0 discriminator 2 view .LVU1406
 4771 0018 23F00C03 		bic	r3, r3, #12
 4772              	.LVL350:
 4773              		.loc 1 2409 3 is_stmt 1 discriminator 2 view .LVU1407
 4774              		.loc 1 2409 10 is_stmt 0 discriminator 2 view .LVU1408
 4775 001c 43F00803 		orr	r3, r3, #8
 4776              	.LVL351:
ARM GAS  C:\Users\38164\AppData\Local\Temp\ccqRiAWJ.s 			page 83


 4777              		.loc 1 2412 3 is_stmt 1 discriminator 2 view .LVU1409
 4778 0020 D360     		str	r3, [r2, #12]
 4779              		.loc 1 2414 3 discriminator 2 view .LVU1410
 4780              		.loc 1 2414 17 is_stmt 0 discriminator 2 view .LVU1411
 4781 0022 2023     		movs	r3, #32
 4782              	.LVL352:
 4783              		.loc 1 2414 17 discriminator 2 view .LVU1412
 4784 0024 80F83930 		strb	r3, [r0, #57]
 4785              	.LVL353:
 4786              		.loc 1 2417 3 is_stmt 1 discriminator 2 view .LVU1413
 4787              		.loc 1 2417 3 discriminator 2 view .LVU1414
 4788 0028 0023     		movs	r3, #0
 4789 002a 80F83830 		strb	r3, [r0, #56]
 4790              		.loc 1 2417 3 discriminator 2 view .LVU1415
 4791              		.loc 1 2419 3 discriminator 2 view .LVU1416
 4792              		.loc 1 2419 10 is_stmt 0 discriminator 2 view .LVU1417
 4793 002e 1846     		mov	r0, r3
 4794              	.LVL354:
 4795              		.loc 1 2419 10 discriminator 2 view .LVU1418
 4796 0030 7047     		bx	lr
 4797              	.LVL355:
 4798              	.L353:
 4799              		.loc 1 2398 3 view .LVU1419
 4800 0032 0220     		movs	r0, #2
 4801              	.LVL356:
 4802              		.loc 1 2420 1 view .LVU1420
 4803 0034 7047     		bx	lr
 4804              		.cfi_endproc
 4805              	.LFE99:
 4807              		.section	.text.HAL_HalfDuplex_EnableReceiver,"ax",%progbits
 4808              		.align	1
 4809              		.global	HAL_HalfDuplex_EnableReceiver
 4810              		.syntax unified
 4811              		.thumb
 4812              		.thumb_func
 4813              		.fpu softvfp
 4815              	HAL_HalfDuplex_EnableReceiver:
 4816              	.LVL357:
 4817              	.LFB100:
 4818              		.loc 1 2429 1 is_stmt 1 view -0
 4819              		.cfi_startproc
 4820              		@ args = 0, pretend = 0, frame = 0
 4821              		@ frame_needed = 0, uses_anonymous_args = 0
 4822              		@ link register save eliminated.
 4823              		.loc 1 2430 3 view .LVU1422
 4824              		.loc 1 2433 3 view .LVU1423
 4825              		.loc 1 2433 3 view .LVU1424
 4826 0000 90F83830 		ldrb	r3, [r0, #56]	@ zero_extendqisi2
 4827 0004 012B     		cmp	r3, #1
 4828 0006 14D0     		beq	.L356
 4829              		.loc 1 2433 3 discriminator 2 view .LVU1425
 4830 0008 0123     		movs	r3, #1
 4831 000a 80F83830 		strb	r3, [r0, #56]
 4832              		.loc 1 2433 3 discriminator 2 view .LVU1426
 4833              		.loc 1 2435 3 discriminator 2 view .LVU1427
 4834              		.loc 1 2435 17 is_stmt 0 discriminator 2 view .LVU1428
 4835 000e 2423     		movs	r3, #36
ARM GAS  C:\Users\38164\AppData\Local\Temp\ccqRiAWJ.s 			page 84


 4836 0010 80F83930 		strb	r3, [r0, #57]
 4837              		.loc 1 2438 3 is_stmt 1 discriminator 2 view .LVU1429
 4838              		.loc 1 2438 17 is_stmt 0 discriminator 2 view .LVU1430
 4839 0014 0268     		ldr	r2, [r0]
 4840              		.loc 1 2438 10 discriminator 2 view .LVU1431
 4841 0016 D368     		ldr	r3, [r2, #12]
 4842              	.LVL358:
 4843              		.loc 1 2441 3 is_stmt 1 discriminator 2 view .LVU1432
 4844              		.loc 1 2441 10 is_stmt 0 discriminator 2 view .LVU1433
 4845 0018 23F00C03 		bic	r3, r3, #12
 4846              	.LVL359:
 4847              		.loc 1 2444 3 is_stmt 1 discriminator 2 view .LVU1434
 4848              		.loc 1 2444 10 is_stmt 0 discriminator 2 view .LVU1435
 4849 001c 43F00403 		orr	r3, r3, #4
 4850              	.LVL360:
 4851              		.loc 1 2447 3 is_stmt 1 discriminator 2 view .LVU1436
 4852 0020 D360     		str	r3, [r2, #12]
 4853              		.loc 1 2449 3 discriminator 2 view .LVU1437
 4854              		.loc 1 2449 17 is_stmt 0 discriminator 2 view .LVU1438
 4855 0022 2023     		movs	r3, #32
 4856              	.LVL361:
 4857              		.loc 1 2449 17 discriminator 2 view .LVU1439
 4858 0024 80F83930 		strb	r3, [r0, #57]
 4859              	.LVL362:
 4860              		.loc 1 2452 3 is_stmt 1 discriminator 2 view .LVU1440
 4861              		.loc 1 2452 3 discriminator 2 view .LVU1441
 4862 0028 0023     		movs	r3, #0
 4863 002a 80F83830 		strb	r3, [r0, #56]
 4864              		.loc 1 2452 3 discriminator 2 view .LVU1442
 4865              		.loc 1 2454 3 discriminator 2 view .LVU1443
 4866              		.loc 1 2454 10 is_stmt 0 discriminator 2 view .LVU1444
 4867 002e 1846     		mov	r0, r3
 4868              	.LVL363:
 4869              		.loc 1 2454 10 discriminator 2 view .LVU1445
 4870 0030 7047     		bx	lr
 4871              	.LVL364:
 4872              	.L356:
 4873              		.loc 1 2433 3 view .LVU1446
 4874 0032 0220     		movs	r0, #2
 4875              	.LVL365:
 4876              		.loc 1 2455 1 view .LVU1447
 4877 0034 7047     		bx	lr
 4878              		.cfi_endproc
 4879              	.LFE100:
 4881              		.section	.text.HAL_UART_GetState,"ax",%progbits
 4882              		.align	1
 4883              		.global	HAL_UART_GetState
 4884              		.syntax unified
 4885              		.thumb
 4886              		.thumb_func
 4887              		.fpu softvfp
 4889              	HAL_UART_GetState:
 4890              	.LVL366:
 4891              	.LFB101:
 4892              		.loc 1 2486 1 is_stmt 1 view -0
 4893              		.cfi_startproc
 4894              		@ args = 0, pretend = 0, frame = 0
ARM GAS  C:\Users\38164\AppData\Local\Temp\ccqRiAWJ.s 			page 85


 4895              		@ frame_needed = 0, uses_anonymous_args = 0
 4896              		@ link register save eliminated.
 4897              		.loc 1 2487 3 view .LVU1449
 4898              		.loc 1 2488 3 view .LVU1450
 4899              		.loc 1 2488 16 is_stmt 0 view .LVU1451
 4900 0000 90F83930 		ldrb	r3, [r0, #57]	@ zero_extendqisi2
 4901              	.LVL367:
 4902              		.loc 1 2489 3 is_stmt 1 view .LVU1452
 4903              		.loc 1 2489 16 is_stmt 0 view .LVU1453
 4904 0004 90F83A00 		ldrb	r0, [r0, #58]	@ zero_extendqisi2
 4905              	.LVL368:
 4906              		.loc 1 2491 3 is_stmt 1 view .LVU1454
 4907              		.loc 1 2492 1 is_stmt 0 view .LVU1455
 4908 0008 1843     		orrs	r0, r0, r3
 4909              	.LVL369:
 4910              		.loc 1 2492 1 view .LVU1456
 4911 000a 7047     		bx	lr
 4912              		.cfi_endproc
 4913              	.LFE101:
 4915              		.section	.text.HAL_UART_GetError,"ax",%progbits
 4916              		.align	1
 4917              		.global	HAL_UART_GetError
 4918              		.syntax unified
 4919              		.thumb
 4920              		.thumb_func
 4921              		.fpu softvfp
 4923              	HAL_UART_GetError:
 4924              	.LVL370:
 4925              	.LFB102:
 4926              		.loc 1 2501 1 is_stmt 1 view -0
 4927              		.cfi_startproc
 4928              		@ args = 0, pretend = 0, frame = 0
 4929              		@ frame_needed = 0, uses_anonymous_args = 0
 4930              		@ link register save eliminated.
 4931              		.loc 1 2502 3 view .LVU1458
 4932              		.loc 1 2502 15 is_stmt 0 view .LVU1459
 4933 0000 C06B     		ldr	r0, [r0, #60]
 4934              	.LVL371:
 4935              		.loc 1 2503 1 view .LVU1460
 4936 0002 7047     		bx	lr
 4937              		.cfi_endproc
 4938              	.LFE102:
 4940              		.text
 4941              	.Letext0:
 4942              		.file 2 "../c:\\users\\38164\\onedrive\\desktop\\gnu mcu\\arm-none-eabi-gcc-9.3.1-1.1\\arm-none-ea
 4943              		.file 3 "../c:\\users\\38164\\onedrive\\desktop\\gnu mcu\\arm-none-eabi-gcc-9.3.1-1.1\\arm-none-ea
 4944              		.file 4 "../Drivers/CMSIS/Include/core_cm3.h"
 4945              		.file 5 "../Drivers/CMSIS/Device/ST/STM32F1xx/Include/system_stm32f1xx.h"
 4946              		.file 6 "../Drivers/CMSIS/Device/ST/STM32F1xx/Include/stm32f103x6.h"
 4947              		.file 7 "../Drivers/CMSIS/Device/ST/STM32F1xx/Include/stm32f1xx.h"
 4948              		.file 8 "../Drivers/STM32F1xx_HAL_Driver/Inc/stm32f1xx_hal_def.h"
 4949              		.file 9 "../Drivers/STM32F1xx_HAL_Driver/Inc/stm32f1xx_hal_dma.h"
 4950              		.file 10 "../Drivers/STM32F1xx_HAL_Driver/Inc/stm32f1xx_hal_uart.h"
 4951              		.file 11 "../Drivers/STM32F1xx_HAL_Driver/Inc/stm32f1xx_hal.h"
 4952              		.file 12 "../Drivers/STM32F1xx_HAL_Driver/Inc/stm32f1xx_hal_rcc.h"
ARM GAS  C:\Users\38164\AppData\Local\Temp\ccqRiAWJ.s 			page 86

