ARM GAS  C:\Users\38164\AppData\Local\Temp\cchrWI9r.s 			page 1


   1              		.cpu cortex-m3
   2              		.eabi_attribute 20, 1
   3              		.eabi_attribute 21, 1
   4              		.eabi_attribute 23, 3
   5              		.eabi_attribute 24, 1
   6              		.eabi_attribute 25, 1
   7              		.eabi_attribute 26, 1
   8              		.eabi_attribute 30, 1
   9              		.eabi_attribute 34, 1
  10              		.eabi_attribute 18, 4
  11              		.file	"stm32f1xx_hal_exti.c"
  12              		.text
  13              	.Ltext0:
  14              		.cfi_sections	.debug_frame
  15              		.section	.text.HAL_EXTI_SetConfigLine,"ax",%progbits
  16              		.align	1
  17              		.global	HAL_EXTI_SetConfigLine
  18              		.arch armv7-m
  19              		.syntax unified
  20              		.thumb
  21              		.thumb_func
  22              		.fpu softvfp
  24              	HAL_EXTI_SetConfigLine:
  25              	.LVL0:
  26              	.LFB65:
  27              		.file 1 "../Drivers/STM32F1xx_HAL_Driver/Src/stm32f1xx_hal_exti.c"
   1:../Drivers/STM32F1xx_HAL_Driver/Src/stm32f1xx_hal_exti.c **** 
  28              		.loc 1 144 1 view -0
  29              		.cfi_startproc
  30              		@ args = 0, pretend = 0, frame = 0
  31              		@ frame_needed = 0, uses_anonymous_args = 0
  32              		@ link register save eliminated.
  33              		.loc 1 145 3 view .LVU1
  34              		.loc 1 146 3 view .LVU2
  35              		.loc 1 147 3 view .LVU3
  36              		.loc 1 150 3 view .LVU4
  37              		.loc 1 150 6 is_stmt 0 view .LVU5
  38 0000 0028     		cmp	r0, #0
  39 0002 60D0     		beq	.L11
  40              		.loc 1 150 23 discriminator 1 view .LVU6
  41 0004 0029     		cmp	r1, #0
  42 0006 60D0     		beq	.L12
  43              		.loc 1 144 1 view .LVU7
  44 0008 70B4     		push	{r4, r5, r6}
  45              	.LCFI0:
  46              		.cfi_def_cfa_offset 12
  47              		.cfi_offset 4, -12
  48              		.cfi_offset 5, -8
  49              		.cfi_offset 6, -4
  50              		.loc 1 156 3 is_stmt 1 view .LVU8
  51              		.loc 1 157 3 view .LVU9
  52              		.loc 1 160 3 view .LVU10
  53              		.loc 1 160 28 is_stmt 0 view .LVU11
  54 000a 0B68     		ldr	r3, [r1]
  55              		.loc 1 160 15 view .LVU12
  56 000c 0360     		str	r3, [r0]
  57              		.loc 1 163 3 is_stmt 1 view .LVU13
ARM GAS  C:\Users\38164\AppData\Local\Temp\cchrWI9r.s 			page 2


  58              		.loc 1 163 11 is_stmt 0 view .LVU14
  59 000e 03F01F02 		and	r2, r3, #31
  60              	.LVL1:
  61              		.loc 1 164 3 is_stmt 1 view .LVU15
  62              		.loc 1 164 12 is_stmt 0 view .LVU16
  63 0012 0120     		movs	r0, #1
  64              	.LVL2:
  65              		.loc 1 164 12 view .LVU17
  66 0014 9040     		lsls	r0, r0, r2
  67              	.LVL3:
  68              		.loc 1 167 3 is_stmt 1 view .LVU18
  69              		.loc 1 167 6 is_stmt 0 view .LVU19
  70 0016 13F0007F 		tst	r3, #33554432
  71 001a 15D0     		beq	.L3
  72              		.loc 1 169 5 is_stmt 1 view .LVU20
  73              		.loc 1 173 5 view .LVU21
  74              		.loc 1 173 21 is_stmt 0 view .LVU22
  75 001c 8C68     		ldr	r4, [r1, #8]
  76              		.loc 1 173 8 view .LVU23
  77 001e 14F0010F 		tst	r4, #1
  78 0022 24D0     		beq	.L4
  79              		.loc 1 175 7 is_stmt 1 view .LVU24
  80              		.loc 1 175 18 is_stmt 0 view .LVU25
  81 0024 2A4D     		ldr	r5, .L18
  82 0026 AC68     		ldr	r4, [r5, #8]
  83 0028 0443     		orrs	r4, r4, r0
  84 002a AC60     		str	r4, [r5, #8]
  85              	.L5:
  86              		.loc 1 184 5 is_stmt 1 view .LVU26
  87              		.loc 1 184 21 is_stmt 0 view .LVU27
  88 002c 8C68     		ldr	r4, [r1, #8]
  89              		.loc 1 184 8 view .LVU28
  90 002e 14F0020F 		tst	r4, #2
  91 0032 22D0     		beq	.L6
  92              		.loc 1 186 7 is_stmt 1 view .LVU29
  93              		.loc 1 186 18 is_stmt 0 view .LVU30
  94 0034 264D     		ldr	r5, .L18
  95 0036 EC68     		ldr	r4, [r5, #12]
  96 0038 0443     		orrs	r4, r4, r0
  97 003a EC60     		str	r4, [r5, #12]
  98              	.L7:
  99              		.loc 1 195 5 is_stmt 1 view .LVU31
 100              		.loc 1 195 21 is_stmt 0 view .LVU32
 101 003c 0C68     		ldr	r4, [r1]
 102              		.loc 1 195 28 view .LVU33
 103 003e 04F0C064 		and	r4, r4, #100663296
 104              		.loc 1 195 8 view .LVU34
 105 0042 B4F1C06F 		cmp	r4, #100663296
 106 0046 1ED0     		beq	.L17
 107              	.LVL4:
 108              	.L3:
 109              		.loc 1 209 3 is_stmt 1 view .LVU35
 110              		.loc 1 209 19 is_stmt 0 view .LVU36
 111 0048 4B68     		ldr	r3, [r1, #4]
 112              		.loc 1 209 6 view .LVU37
 113 004a 13F0010F 		tst	r3, #1
 114 004e 2DD0     		beq	.L8
ARM GAS  C:\Users\38164\AppData\Local\Temp\cchrWI9r.s 			page 3


 115              		.loc 1 211 5 is_stmt 1 view .LVU38
 116              		.loc 1 211 15 is_stmt 0 view .LVU39
 117 0050 1F4A     		ldr	r2, .L18
 118 0052 1368     		ldr	r3, [r2]
 119 0054 0343     		orrs	r3, r3, r0
 120 0056 1360     		str	r3, [r2]
 121              	.L9:
 122              		.loc 1 220 3 is_stmt 1 view .LVU40
 123              		.loc 1 220 19 is_stmt 0 view .LVU41
 124 0058 4B68     		ldr	r3, [r1, #4]
 125              		.loc 1 220 6 view .LVU42
 126 005a 13F0020F 		tst	r3, #2
 127 005e 2BD0     		beq	.L10
 128              		.loc 1 222 5 is_stmt 1 view .LVU43
 129              		.loc 1 222 15 is_stmt 0 view .LVU44
 130 0060 1B4A     		ldr	r2, .L18
 131 0062 5368     		ldr	r3, [r2, #4]
 132 0064 1843     		orrs	r0, r0, r3
 133              	.LVL5:
 134              		.loc 1 222 15 view .LVU45
 135 0066 5060     		str	r0, [r2, #4]
 136              		.loc 1 229 10 view .LVU46
 137 0068 0020     		movs	r0, #0
 138              	.L2:
 139              		.loc 1 230 1 view .LVU47
 140 006a 70BC     		pop	{r4, r5, r6}
 141              	.LCFI1:
 142              		.cfi_remember_state
 143              		.cfi_restore 6
 144              		.cfi_restore 5
 145              		.cfi_restore 4
 146              		.cfi_def_cfa_offset 0
 147 006c 7047     		bx	lr
 148              	.LVL6:
 149              	.L4:
 150              	.LCFI2:
 151              		.cfi_restore_state
 152              		.loc 1 179 7 is_stmt 1 view .LVU48
 153              		.loc 1 179 18 is_stmt 0 view .LVU49
 154 006e 184D     		ldr	r5, .L18
 155 0070 AC68     		ldr	r4, [r5, #8]
 156 0072 24EA0004 		bic	r4, r4, r0
 157 0076 AC60     		str	r4, [r5, #8]
 158 0078 D8E7     		b	.L5
 159              	.L6:
 160              		.loc 1 190 7 is_stmt 1 view .LVU50
 161              		.loc 1 190 18 is_stmt 0 view .LVU51
 162 007a 154D     		ldr	r5, .L18
 163 007c EC68     		ldr	r4, [r5, #12]
 164 007e 24EA0004 		bic	r4, r4, r0
 165 0082 EC60     		str	r4, [r5, #12]
 166 0084 DAE7     		b	.L7
 167              	.L17:
 168              		.loc 1 197 7 is_stmt 1 view .LVU52
 169              		.loc 1 198 7 view .LVU53
 170              		.loc 1 200 7 view .LVU54
 171              		.loc 1 200 37 is_stmt 0 view .LVU55
ARM GAS  C:\Users\38164\AppData\Local\Temp\cchrWI9r.s 			page 4


 172 0086 9208     		lsrs	r2, r2, #2
 173              	.LVL7:
 174              		.loc 1 200 14 view .LVU56
 175 0088 124E     		ldr	r6, .L18+4
 176 008a 0232     		adds	r2, r2, #2
 177 008c 56F82250 		ldr	r5, [r6, r2, lsl #2]
 178              	.LVL8:
 179              		.loc 1 201 7 is_stmt 1 view .LVU57
 180              		.loc 1 201 76 is_stmt 0 view .LVU58
 181 0090 03F00303 		and	r3, r3, #3
 182              	.LVL9:
 183              		.loc 1 201 65 view .LVU59
 184 0094 9B00     		lsls	r3, r3, #2
 185              		.loc 1 201 38 view .LVU60
 186 0096 0F24     		movs	r4, #15
 187 0098 9C40     		lsls	r4, r4, r3
 188              		.loc 1 201 14 view .LVU61
 189 009a 25EA0405 		bic	r5, r5, r4
 190              	.LVL10:
 191              		.loc 1 202 7 is_stmt 1 view .LVU62
 192              		.loc 1 202 29 is_stmt 0 view .LVU63
 193 009e CC68     		ldr	r4, [r1, #12]
 194              		.loc 1 202 39 view .LVU64
 195 00a0 04FA03F3 		lsl	r3, r4, r3
 196              		.loc 1 202 14 view .LVU65
 197 00a4 2B43     		orrs	r3, r3, r5
 198              	.LVL11:
 199              		.loc 1 203 7 is_stmt 1 view .LVU66
 200              		.loc 1 203 35 is_stmt 0 view .LVU67
 201 00a6 46F82230 		str	r3, [r6, r2, lsl #2]
 202 00aa CDE7     		b	.L3
 203              	.LVL12:
 204              	.L8:
 205              		.loc 1 215 5 is_stmt 1 view .LVU68
 206              		.loc 1 215 15 is_stmt 0 view .LVU69
 207 00ac 084A     		ldr	r2, .L18
 208 00ae 1368     		ldr	r3, [r2]
 209 00b0 23EA0003 		bic	r3, r3, r0
 210 00b4 1360     		str	r3, [r2]
 211 00b6 CFE7     		b	.L9
 212              	.L10:
 213              		.loc 1 226 5 is_stmt 1 view .LVU70
 214              		.loc 1 226 15 is_stmt 0 view .LVU71
 215 00b8 054A     		ldr	r2, .L18
 216 00ba 5368     		ldr	r3, [r2, #4]
 217 00bc 23EA0000 		bic	r0, r3, r0
 218              	.LVL13:
 219              		.loc 1 226 15 view .LVU72
 220 00c0 5060     		str	r0, [r2, #4]
 221              		.loc 1 229 10 view .LVU73
 222 00c2 0020     		movs	r0, #0
 223 00c4 D1E7     		b	.L2
 224              	.LVL14:
 225              	.L11:
 226              	.LCFI3:
 227              		.cfi_def_cfa_offset 0
 228              		.cfi_restore 4
ARM GAS  C:\Users\38164\AppData\Local\Temp\cchrWI9r.s 			page 5


 229              		.cfi_restore 5
 230              		.cfi_restore 6
 231              		.loc 1 152 12 view .LVU74
 232 00c6 0120     		movs	r0, #1
 233              	.LVL15:
 234              		.loc 1 152 12 view .LVU75
 235 00c8 7047     		bx	lr
 236              	.LVL16:
 237              	.L12:
 238              		.loc 1 152 12 view .LVU76
 239 00ca 0120     		movs	r0, #1
 240              	.LVL17:
 241              		.loc 1 230 1 view .LVU77
 242 00cc 7047     		bx	lr
 243              	.L19:
 244 00ce 00BF     		.align	2
 245              	.L18:
 246 00d0 00040140 		.word	1073808384
 247 00d4 00000140 		.word	1073807360
 248              		.cfi_endproc
 249              	.LFE65:
 251              		.section	.text.HAL_EXTI_GetConfigLine,"ax",%progbits
 252              		.align	1
 253              		.global	HAL_EXTI_GetConfigLine
 254              		.syntax unified
 255              		.thumb
 256              		.thumb_func
 257              		.fpu softvfp
 259              	HAL_EXTI_GetConfigLine:
 260              	.LVL18:
 261              	.LFB66:
 262              		.loc 1 239 1 is_stmt 1 view -0
 263              		.cfi_startproc
 264              		@ args = 0, pretend = 0, frame = 0
 265              		@ frame_needed = 0, uses_anonymous_args = 0
 266              		@ link register save eliminated.
 267              		.loc 1 240 3 view .LVU79
 268              		.loc 1 241 3 view .LVU80
 269              		.loc 1 242 3 view .LVU81
 270              		.loc 1 245 3 view .LVU82
 271              		.loc 1 245 6 is_stmt 0 view .LVU83
 272 0000 0028     		cmp	r0, #0
 273 0002 49D0     		beq	.L30
 274              		.loc 1 245 23 discriminator 1 view .LVU84
 275 0004 0029     		cmp	r1, #0
 276 0006 49D0     		beq	.L31
 277              		.loc 1 239 1 view .LVU85
 278 0008 10B4     		push	{r4}
 279              	.LCFI4:
 280              		.cfi_def_cfa_offset 4
 281              		.cfi_offset 4, -4
 282              		.loc 1 251 3 is_stmt 1 view .LVU86
 283              		.loc 1 254 3 view .LVU87
 284              		.loc 1 254 28 is_stmt 0 view .LVU88
 285 000a 0068     		ldr	r0, [r0]
 286              	.LVL19:
 287              		.loc 1 254 21 view .LVU89
ARM GAS  C:\Users\38164\AppData\Local\Temp\cchrWI9r.s 			page 6


 288 000c 0860     		str	r0, [r1]
 289              		.loc 1 257 3 is_stmt 1 view .LVU90
 290              		.loc 1 257 11 is_stmt 0 view .LVU91
 291 000e 00F01F04 		and	r4, r0, #31
 292              	.LVL20:
 293              		.loc 1 258 3 is_stmt 1 view .LVU92
 294              		.loc 1 258 12 is_stmt 0 view .LVU93
 295 0012 0123     		movs	r3, #1
 296 0014 A340     		lsls	r3, r3, r4
 297              	.LVL21:
 298              		.loc 1 263 3 is_stmt 1 view .LVU94
 299              		.loc 1 263 12 is_stmt 0 view .LVU95
 300 0016 224A     		ldr	r2, .L37
 301 0018 1268     		ldr	r2, [r2]
 302              		.loc 1 263 6 view .LVU96
 303 001a 1A42     		tst	r2, r3
 304 001c 22D0     		beq	.L22
 305              		.loc 1 265 5 is_stmt 1 view .LVU97
 306              		.loc 1 265 23 is_stmt 0 view .LVU98
 307 001e 0122     		movs	r2, #1
 308 0020 4A60     		str	r2, [r1, #4]
 309              	.L23:
 310              		.loc 1 274 3 is_stmt 1 view .LVU99
 311              		.loc 1 274 12 is_stmt 0 view .LVU100
 312 0022 1F4A     		ldr	r2, .L37
 313 0024 5268     		ldr	r2, [r2, #4]
 314              		.loc 1 274 6 view .LVU101
 315 0026 1A42     		tst	r2, r3
 316 0028 03D0     		beq	.L24
 317              		.loc 1 276 5 is_stmt 1 view .LVU102
 318              		.loc 1 276 23 is_stmt 0 view .LVU103
 319 002a 4A68     		ldr	r2, [r1, #4]
 320 002c 42F00202 		orr	r2, r2, #2
 321 0030 4A60     		str	r2, [r1, #4]
 322              	.L24:
 323              		.loc 1 280 3 is_stmt 1 view .LVU104
 324              		.loc 1 280 6 is_stmt 0 view .LVU105
 325 0032 10F0007F 		tst	r0, #33554432
 326 0036 2AD0     		beq	.L25
 327              		.loc 1 283 5 is_stmt 1 view .LVU106
 328              		.loc 1 283 14 is_stmt 0 view .LVU107
 329 0038 194A     		ldr	r2, .L37
 330 003a 9268     		ldr	r2, [r2, #8]
 331              		.loc 1 283 8 view .LVU108
 332 003c 1A42     		tst	r2, r3
 333 003e 14D0     		beq	.L26
 334              		.loc 1 285 7 is_stmt 1 view .LVU109
 335              		.loc 1 285 28 is_stmt 0 view .LVU110
 336 0040 0122     		movs	r2, #1
 337 0042 8A60     		str	r2, [r1, #8]
 338              	.L27:
 339              		.loc 1 294 5 is_stmt 1 view .LVU111
 340              		.loc 1 294 14 is_stmt 0 view .LVU112
 341 0044 164A     		ldr	r2, .L37
 342 0046 D268     		ldr	r2, [r2, #12]
 343              		.loc 1 294 8 view .LVU113
 344 0048 1A42     		tst	r2, r3
ARM GAS  C:\Users\38164\AppData\Local\Temp\cchrWI9r.s 			page 7


 345 004a 03D0     		beq	.L28
 346              		.loc 1 296 7 is_stmt 1 view .LVU114
 347              		.loc 1 296 28 is_stmt 0 view .LVU115
 348 004c 8B68     		ldr	r3, [r1, #8]
 349              	.LVL22:
 350              		.loc 1 296 28 view .LVU116
 351 004e 43F00203 		orr	r3, r3, #2
 352 0052 8B60     		str	r3, [r1, #8]
 353              	.L28:
 354              		.loc 1 300 5 is_stmt 1 view .LVU117
 355              		.loc 1 300 28 is_stmt 0 view .LVU118
 356 0054 00F0C063 		and	r3, r0, #100663296
 357              		.loc 1 300 8 view .LVU119
 358 0058 B3F1C06F 		cmp	r3, #100663296
 359 005c 08D0     		beq	.L36
 360              		.loc 1 309 7 is_stmt 1 view .LVU120
 361              		.loc 1 309 28 is_stmt 0 view .LVU121
 362 005e 0020     		movs	r0, #0
 363 0060 C860     		str	r0, [r1, #12]
 364 0062 17E0     		b	.L21
 365              	.LVL23:
 366              	.L22:
 367              		.loc 1 269 5 is_stmt 1 view .LVU122
 368              		.loc 1 269 23 is_stmt 0 view .LVU123
 369 0064 0022     		movs	r2, #0
 370 0066 4A60     		str	r2, [r1, #4]
 371 0068 DBE7     		b	.L23
 372              	.L26:
 373              		.loc 1 289 7 is_stmt 1 view .LVU124
 374              		.loc 1 289 28 is_stmt 0 view .LVU125
 375 006a 0022     		movs	r2, #0
 376 006c 8A60     		str	r2, [r1, #8]
 377 006e E9E7     		b	.L27
 378              	.LVL24:
 379              	.L36:
 380              		.loc 1 302 7 is_stmt 1 view .LVU126
 381              		.loc 1 304 7 view .LVU127
 382              		.loc 1 304 37 is_stmt 0 view .LVU128
 383 0070 A308     		lsrs	r3, r4, #2
 384              		.loc 1 304 14 view .LVU129
 385 0072 0233     		adds	r3, r3, #2
 386 0074 0B4A     		ldr	r2, .L37+4
 387 0076 52F82320 		ldr	r2, [r2, r3, lsl #2]
 388              	.LVL25:
 389              		.loc 1 305 7 is_stmt 1 view .LVU130
 390              		.loc 1 305 73 is_stmt 0 view .LVU131
 391 007a E343     		mvns	r3, r4
 392 007c 03F00303 		and	r3, r3, #3
 393              		.loc 1 305 66 view .LVU132
 394 0080 9B00     		lsls	r3, r3, #2
 395              		.loc 1 305 39 view .LVU133
 396 0082 02FA03F3 		lsl	r3, r2, r3
 397              		.loc 1 305 96 view .LVU134
 398 0086 1B0E     		lsrs	r3, r3, #24
 399              		.loc 1 305 28 view .LVU135
 400 0088 CB60     		str	r3, [r1, #12]
 401              		.loc 1 319 10 view .LVU136
ARM GAS  C:\Users\38164\AppData\Local\Temp\cchrWI9r.s 			page 8


 402 008a 0020     		movs	r0, #0
 403 008c 02E0     		b	.L21
 404              	.LVL26:
 405              	.L25:
 406              		.loc 1 315 5 is_stmt 1 view .LVU137
 407              		.loc 1 315 26 is_stmt 0 view .LVU138
 408 008e 0020     		movs	r0, #0
 409 0090 8860     		str	r0, [r1, #8]
 410              		.loc 1 316 5 is_stmt 1 view .LVU139
 411              		.loc 1 316 26 is_stmt 0 view .LVU140
 412 0092 C860     		str	r0, [r1, #12]
 413              	.LVL27:
 414              	.L21:
 415              		.loc 1 320 1 view .LVU141
 416 0094 10BC     		pop	{r4}
 417              	.LCFI5:
 418              		.cfi_restore 4
 419              		.cfi_def_cfa_offset 0
 420              	.LVL28:
 421              		.loc 1 320 1 view .LVU142
 422 0096 7047     		bx	lr
 423              	.LVL29:
 424              	.L30:
 425              		.loc 1 247 12 view .LVU143
 426 0098 0120     		movs	r0, #1
 427              	.LVL30:
 428              		.loc 1 247 12 view .LVU144
 429 009a 7047     		bx	lr
 430              	.LVL31:
 431              	.L31:
 432              		.loc 1 247 12 view .LVU145
 433 009c 0120     		movs	r0, #1
 434              	.LVL32:
 435              		.loc 1 320 1 view .LVU146
 436 009e 7047     		bx	lr
 437              	.L38:
 438              		.align	2
 439              	.L37:
 440 00a0 00040140 		.word	1073808384
 441 00a4 00000140 		.word	1073807360
 442              		.cfi_endproc
 443              	.LFE66:
 445              		.section	.text.HAL_EXTI_ClearConfigLine,"ax",%progbits
 446              		.align	1
 447              		.global	HAL_EXTI_ClearConfigLine
 448              		.syntax unified
 449              		.thumb
 450              		.thumb_func
 451              		.fpu softvfp
 453              	HAL_EXTI_ClearConfigLine:
 454              	.LVL33:
 455              	.LFB67:
 456              		.loc 1 328 1 is_stmt 1 view -0
 457              		.cfi_startproc
 458              		@ args = 0, pretend = 0, frame = 0
 459              		@ frame_needed = 0, uses_anonymous_args = 0
 460              		@ link register save eliminated.
ARM GAS  C:\Users\38164\AppData\Local\Temp\cchrWI9r.s 			page 9


 461              		.loc 1 329 3 view .LVU148
 462              		.loc 1 330 3 view .LVU149
 463              		.loc 1 331 3 view .LVU150
 464              		.loc 1 334 3 view .LVU151
 465              		.loc 1 334 6 is_stmt 0 view .LVU152
 466 0000 0028     		cmp	r0, #0
 467 0002 34D0     		beq	.L41
 468              		.loc 1 328 1 view .LVU153
 469 0004 70B4     		push	{r4, r5, r6}
 470              	.LCFI6:
 471              		.cfi_def_cfa_offset 12
 472              		.cfi_offset 4, -12
 473              		.cfi_offset 5, -8
 474              		.cfi_offset 6, -4
 475 0006 0446     		mov	r4, r0
 476              		.loc 1 340 3 is_stmt 1 view .LVU154
 477              		.loc 1 343 3 view .LVU155
 478              		.loc 1 343 19 is_stmt 0 view .LVU156
 479 0008 0668     		ldr	r6, [r0]
 480              		.loc 1 343 11 view .LVU157
 481 000a 06F01F00 		and	r0, r6, #31
 482              	.LVL34:
 483              		.loc 1 344 3 is_stmt 1 view .LVU158
 484              		.loc 1 344 12 is_stmt 0 view .LVU159
 485 000e 0123     		movs	r3, #1
 486 0010 8340     		lsls	r3, r3, r0
 487              	.LVL35:
 488              		.loc 1 347 3 is_stmt 1 view .LVU160
 489              		.loc 1 347 20 is_stmt 0 view .LVU161
 490 0012 194A     		ldr	r2, .L49
 491 0014 1168     		ldr	r1, [r2]
 492              		.loc 1 347 28 view .LVU162
 493 0016 DD43     		mvns	r5, r3
 494              		.loc 1 347 26 view .LVU163
 495 0018 21EA0301 		bic	r1, r1, r3
 496              		.loc 1 347 13 view .LVU164
 497 001c 1160     		str	r1, [r2]
 498              		.loc 1 350 3 is_stmt 1 view .LVU165
 499              		.loc 1 350 20 is_stmt 0 view .LVU166
 500 001e 5168     		ldr	r1, [r2, #4]
 501              		.loc 1 350 26 view .LVU167
 502 0020 21EA0303 		bic	r3, r1, r3
 503              	.LVL36:
 504              		.loc 1 350 13 view .LVU168
 505 0024 5360     		str	r3, [r2, #4]
 506              		.loc 1 353 3 is_stmt 1 view .LVU169
 507              		.loc 1 353 13 is_stmt 0 view .LVU170
 508 0026 2368     		ldr	r3, [r4]
 509              		.loc 1 353 6 view .LVU171
 510 0028 13F0007F 		tst	r3, #33554432
 511 002c 21D0     		beq	.L42
 512              		.loc 1 355 5 is_stmt 1 view .LVU172
 513              		.loc 1 355 23 is_stmt 0 view .LVU173
 514 002e 1346     		mov	r3, r2
 515 0030 9268     		ldr	r2, [r2, #8]
 516              		.loc 1 355 30 view .LVU174
 517 0032 2A40     		ands	r2, r2, r5
ARM GAS  C:\Users\38164\AppData\Local\Temp\cchrWI9r.s 			page 10


 518              		.loc 1 355 16 view .LVU175
 519 0034 9A60     		str	r2, [r3, #8]
 520              		.loc 1 356 5 is_stmt 1 view .LVU176
 521              		.loc 1 356 23 is_stmt 0 view .LVU177
 522 0036 DA68     		ldr	r2, [r3, #12]
 523              		.loc 1 356 30 view .LVU178
 524 0038 1540     		ands	r5, r5, r2
 525              	.LVL37:
 526              		.loc 1 356 16 view .LVU179
 527 003a DD60     		str	r5, [r3, #12]
 528              		.loc 1 359 5 is_stmt 1 view .LVU180
 529              		.loc 1 359 15 is_stmt 0 view .LVU181
 530 003c 2368     		ldr	r3, [r4]
 531              		.loc 1 359 22 view .LVU182
 532 003e 03F0C063 		and	r3, r3, #100663296
 533              		.loc 1 359 8 view .LVU183
 534 0042 B3F1C06F 		cmp	r3, #100663296
 535 0046 01D0     		beq	.L48
 536              		.loc 1 369 10 view .LVU184
 537 0048 0020     		movs	r0, #0
 538              	.LVL38:
 539              		.loc 1 369 10 view .LVU185
 540 004a 13E0     		b	.L40
 541              	.LVL39:
 542              	.L48:
 543              		.loc 1 361 7 is_stmt 1 view .LVU186
 544              		.loc 1 363 7 view .LVU187
 545              		.loc 1 363 37 is_stmt 0 view .LVU188
 546 004c 8008     		lsrs	r0, r0, #2
 547              	.LVL40:
 548              		.loc 1 363 14 view .LVU189
 549 004e 0B49     		ldr	r1, .L49+4
 550 0050 0230     		adds	r0, r0, #2
 551 0052 51F82030 		ldr	r3, [r1, r0, lsl #2]
 552              	.LVL41:
 553              		.loc 1 364 7 is_stmt 1 view .LVU190
 554              		.loc 1 364 76 is_stmt 0 view .LVU191
 555 0056 06F00306 		and	r6, r6, #3
 556              	.LVL42:
 557              		.loc 1 364 65 view .LVU192
 558 005a B600     		lsls	r6, r6, #2
 559              		.loc 1 364 38 view .LVU193
 560 005c 0F22     		movs	r2, #15
 561 005e 02FA06F6 		lsl	r6, r2, r6
 562              		.loc 1 364 14 view .LVU194
 563 0062 23EA0606 		bic	r6, r3, r6
 564              	.LVL43:
 565              		.loc 1 365 7 is_stmt 1 view .LVU195
 566              		.loc 1 365 35 is_stmt 0 view .LVU196
 567 0066 41F82060 		str	r6, [r1, r0, lsl #2]
 568              		.loc 1 369 10 view .LVU197
 569 006a 0020     		movs	r0, #0
 570 006c 02E0     		b	.L40
 571              	.LVL44:
 572              	.L41:
 573              	.LCFI7:
 574              		.cfi_def_cfa_offset 0
ARM GAS  C:\Users\38164\AppData\Local\Temp\cchrWI9r.s 			page 11


 575              		.cfi_restore 4
 576              		.cfi_restore 5
 577              		.cfi_restore 6
 578              		.loc 1 336 12 view .LVU198
 579 006e 0120     		movs	r0, #1
 580              	.LVL45:
 581              		.loc 1 370 1 view .LVU199
 582 0070 7047     		bx	lr
 583              	.LVL46:
 584              	.L42:
 585              	.LCFI8:
 586              		.cfi_def_cfa_offset 12
 587              		.cfi_offset 4, -12
 588              		.cfi_offset 5, -8
 589              		.cfi_offset 6, -4
 590              		.loc 1 369 10 view .LVU200
 591 0072 0020     		movs	r0, #0
 592              	.LVL47:
 593              	.L40:
 594              		.loc 1 370 1 view .LVU201
 595 0074 70BC     		pop	{r4, r5, r6}
 596              	.LCFI9:
 597              		.cfi_restore 6
 598              		.cfi_restore 5
 599              		.cfi_restore 4
 600              		.cfi_def_cfa_offset 0
 601              	.LVL48:
 602              		.loc 1 370 1 view .LVU202
 603 0076 7047     		bx	lr
 604              	.L50:
 605              		.align	2
 606              	.L49:
 607 0078 00040140 		.word	1073808384
 608 007c 00000140 		.word	1073807360
 609              		.cfi_endproc
 610              	.LFE67:
 612              		.section	.text.HAL_EXTI_RegisterCallback,"ax",%progbits
 613              		.align	1
 614              		.global	HAL_EXTI_RegisterCallback
 615              		.syntax unified
 616              		.thumb
 617              		.thumb_func
 618              		.fpu softvfp
 620              	HAL_EXTI_RegisterCallback:
 621              	.LVL49:
 622              	.LFB68:
 623              		.loc 1 381 1 is_stmt 1 view -0
 624              		.cfi_startproc
 625              		@ args = 0, pretend = 0, frame = 0
 626              		@ frame_needed = 0, uses_anonymous_args = 0
 627              		@ link register save eliminated.
 628              		.loc 1 381 1 is_stmt 0 view .LVU204
 629 0000 0346     		mov	r3, r0
 630              		.loc 1 382 3 is_stmt 1 view .LVU205
 631              	.LVL50:
 632              		.loc 1 384 3 view .LVU206
 633 0002 0846     		mov	r0, r1
ARM GAS  C:\Users\38164\AppData\Local\Temp\cchrWI9r.s 			page 12


 634              	.LVL51:
 635              		.loc 1 384 3 is_stmt 0 view .LVU207
 636 0004 09B9     		cbnz	r1, .L53
 637              		.loc 1 387 7 is_stmt 1 view .LVU208
 638              		.loc 1 387 30 is_stmt 0 view .LVU209
 639 0006 5A60     		str	r2, [r3, #4]
 640              		.loc 1 388 7 is_stmt 1 view .LVU210
 641 0008 7047     		bx	lr
 642              	.L53:
 643              		.loc 1 391 14 is_stmt 0 view .LVU211
 644 000a 0120     		movs	r0, #1
 645              	.LVL52:
 646              		.loc 1 395 3 is_stmt 1 view .LVU212
 647              		.loc 1 396 1 is_stmt 0 view .LVU213
 648 000c 7047     		bx	lr
 649              		.cfi_endproc
 650              	.LFE68:
 652              		.section	.text.HAL_EXTI_GetHandle,"ax",%progbits
 653              		.align	1
 654              		.global	HAL_EXTI_GetHandle
 655              		.syntax unified
 656              		.thumb
 657              		.thumb_func
 658              		.fpu softvfp
 660              	HAL_EXTI_GetHandle:
 661              	.LVL53:
 662              	.LFB69:
 663              		.loc 1 406 1 is_stmt 1 view -0
 664              		.cfi_startproc
 665              		@ args = 0, pretend = 0, frame = 0
 666              		@ frame_needed = 0, uses_anonymous_args = 0
 667              		@ link register save eliminated.
 668              		.loc 1 408 3 view .LVU215
 669              		.loc 1 411 3 view .LVU216
 670              		.loc 1 411 6 is_stmt 0 view .LVU217
 671 0000 10B1     		cbz	r0, .L56
 672              		.loc 1 418 5 is_stmt 1 view .LVU218
 673              		.loc 1 418 17 is_stmt 0 view .LVU219
 674 0002 0160     		str	r1, [r0]
 675              		.loc 1 420 5 is_stmt 1 view .LVU220
 676              		.loc 1 420 12 is_stmt 0 view .LVU221
 677 0004 0020     		movs	r0, #0
 678              	.LVL54:
 679              		.loc 1 420 12 view .LVU222
 680 0006 7047     		bx	lr
 681              	.LVL55:
 682              	.L56:
 683              		.loc 1 413 12 view .LVU223
 684 0008 0120     		movs	r0, #1
 685              	.LVL56:
 686              		.loc 1 422 1 view .LVU224
 687 000a 7047     		bx	lr
 688              		.cfi_endproc
 689              	.LFE69:
 691              		.section	.text.HAL_EXTI_IRQHandler,"ax",%progbits
 692              		.align	1
 693              		.global	HAL_EXTI_IRQHandler
ARM GAS  C:\Users\38164\AppData\Local\Temp\cchrWI9r.s 			page 13


 694              		.syntax unified
 695              		.thumb
 696              		.thumb_func
 697              		.fpu softvfp
 699              	HAL_EXTI_IRQHandler:
 700              	.LVL57:
 701              	.LFB70:
 702              		.loc 1 446 1 is_stmt 1 view -0
 703              		.cfi_startproc
 704              		@ args = 0, pretend = 0, frame = 0
 705              		@ frame_needed = 0, uses_anonymous_args = 0
 706              		.loc 1 446 1 is_stmt 0 view .LVU226
 707 0000 08B5     		push	{r3, lr}
 708              	.LCFI10:
 709              		.cfi_def_cfa_offset 8
 710              		.cfi_offset 3, -8
 711              		.cfi_offset 14, -4
 712              		.loc 1 447 3 is_stmt 1 view .LVU227
 713              		.loc 1 448 3 view .LVU228
 714              		.loc 1 451 3 view .LVU229
 715              		.loc 1 451 28 is_stmt 0 view .LVU230
 716 0002 0368     		ldr	r3, [r0]
 717              		.loc 1 451 35 view .LVU231
 718 0004 03F01F02 		and	r2, r3, #31
 719              		.loc 1 451 12 view .LVU232
 720 0008 0123     		movs	r3, #1
 721 000a 9340     		lsls	r3, r3, r2
 722              	.LVL58:
 723              		.loc 1 454 3 is_stmt 1 view .LVU233
 724              		.loc 1 454 17 is_stmt 0 view .LVU234
 725 000c 044A     		ldr	r2, .L60
 726 000e 5269     		ldr	r2, [r2, #20]
 727              	.LVL59:
 728              		.loc 1 455 3 is_stmt 1 view .LVU235
 729              		.loc 1 455 6 is_stmt 0 view .LVU236
 730 0010 1A42     		tst	r2, r3
 731 0012 04D0     		beq	.L57
 732              		.loc 1 458 5 is_stmt 1 view .LVU237
 733              		.loc 1 458 14 is_stmt 0 view .LVU238
 734 0014 024A     		ldr	r2, .L60
 735              	.LVL60:
 736              		.loc 1 458 14 view .LVU239
 737 0016 5361     		str	r3, [r2, #20]
 738              		.loc 1 461 5 is_stmt 1 view .LVU240
 739              		.loc 1 461 14 is_stmt 0 view .LVU241
 740 0018 4368     		ldr	r3, [r0, #4]
 741              	.LVL61:
 742              		.loc 1 461 8 view .LVU242
 743 001a 03B1     		cbz	r3, .L57
 744              		.loc 1 463 7 is_stmt 1 view .LVU243
 745 001c 9847     		blx	r3
 746              	.LVL62:
 747              	.L57:
 748              		.loc 1 466 1 is_stmt 0 view .LVU244
 749 001e 08BD     		pop	{r3, pc}
 750              	.L61:
 751              		.align	2
ARM GAS  C:\Users\38164\AppData\Local\Temp\cchrWI9r.s 			page 14


 752              	.L60:
 753 0020 00040140 		.word	1073808384
 754              		.cfi_endproc
 755              	.LFE70:
 757              		.section	.text.HAL_EXTI_GetPending,"ax",%progbits
 758              		.align	1
 759              		.global	HAL_EXTI_GetPending
 760              		.syntax unified
 761              		.thumb
 762              		.thumb_func
 763              		.fpu softvfp
 765              	HAL_EXTI_GetPending:
 766              	.LVL63:
 767              	.LFB71:
 768              		.loc 1 478 1 is_stmt 1 view -0
 769              		.cfi_startproc
 770              		@ args = 0, pretend = 0, frame = 0
 771              		@ frame_needed = 0, uses_anonymous_args = 0
 772              		@ link register save eliminated.
 773              		.loc 1 479 3 view .LVU246
 774              		.loc 1 480 3 view .LVU247
 775              		.loc 1 481 3 view .LVU248
 776              		.loc 1 484 3 view .LVU249
 777              		.loc 1 485 3 view .LVU250
 778              		.loc 1 486 3 view .LVU251
 779              		.loc 1 489 3 view .LVU252
 780              		.loc 1 489 19 is_stmt 0 view .LVU253
 781 0000 0368     		ldr	r3, [r0]
 782              		.loc 1 489 11 view .LVU254
 783 0002 03F01F03 		and	r3, r3, #31
 784              	.LVL64:
 785              		.loc 1 490 3 is_stmt 1 view .LVU255
 786              		.loc 1 490 12 is_stmt 0 view .LVU256
 787 0006 0120     		movs	r0, #1
 788              	.LVL65:
 789              		.loc 1 490 12 view .LVU257
 790 0008 00FA03F2 		lsl	r2, r0, r3
 791              	.LVL66:
 792              		.loc 1 493 3 is_stmt 1 view .LVU258
 793              		.loc 1 493 18 is_stmt 0 view .LVU259
 794 000c 0249     		ldr	r1, .L63
 795              	.LVL67:
 796              		.loc 1 493 18 view .LVU260
 797 000e 4869     		ldr	r0, [r1, #20]
 798              		.loc 1 493 23 view .LVU261
 799 0010 1040     		ands	r0, r0, r2
 800              	.LVL68:
 801              		.loc 1 494 3 is_stmt 1 view .LVU262
 802              		.loc 1 495 1 is_stmt 0 view .LVU263
 803 0012 D840     		lsrs	r0, r0, r3
 804              	.LVL69:
 805              		.loc 1 495 1 view .LVU264
 806 0014 7047     		bx	lr
 807              	.L64:
 808 0016 00BF     		.align	2
 809              	.L63:
 810 0018 00040140 		.word	1073808384
ARM GAS  C:\Users\38164\AppData\Local\Temp\cchrWI9r.s 			page 15


 811              		.cfi_endproc
 812              	.LFE71:
 814              		.section	.text.HAL_EXTI_ClearPending,"ax",%progbits
 815              		.align	1
 816              		.global	HAL_EXTI_ClearPending
 817              		.syntax unified
 818              		.thumb
 819              		.thumb_func
 820              		.fpu softvfp
 822              	HAL_EXTI_ClearPending:
 823              	.LVL70:
 824              	.LFB72:
 825              		.loc 1 507 1 is_stmt 1 view -0
 826              		.cfi_startproc
 827              		@ args = 0, pretend = 0, frame = 0
 828              		@ frame_needed = 0, uses_anonymous_args = 0
 829              		@ link register save eliminated.
 830              		.loc 1 508 3 view .LVU266
 831              		.loc 1 511 3 view .LVU267
 832              		.loc 1 512 3 view .LVU268
 833              		.loc 1 513 3 view .LVU269
 834              		.loc 1 516 3 view .LVU270
 835              		.loc 1 516 28 is_stmt 0 view .LVU271
 836 0000 0268     		ldr	r2, [r0]
 837              		.loc 1 516 35 view .LVU272
 838 0002 02F01F02 		and	r2, r2, #31
 839              		.loc 1 516 12 view .LVU273
 840 0006 0123     		movs	r3, #1
 841 0008 9340     		lsls	r3, r3, r2
 842              	.LVL71:
 843              		.loc 1 519 3 is_stmt 1 view .LVU274
 844              		.loc 1 519 12 is_stmt 0 view .LVU275
 845 000a 014A     		ldr	r2, .L66
 846 000c 5361     		str	r3, [r2, #20]
 847              		.loc 1 520 1 view .LVU276
 848 000e 7047     		bx	lr
 849              	.L67:
 850              		.align	2
 851              	.L66:
 852 0010 00040140 		.word	1073808384
 853              		.cfi_endproc
 854              	.LFE72:
 856              		.section	.text.HAL_EXTI_GenerateSWI,"ax",%progbits
 857              		.align	1
 858              		.global	HAL_EXTI_GenerateSWI
 859              		.syntax unified
 860              		.thumb
 861              		.thumb_func
 862              		.fpu softvfp
 864              	HAL_EXTI_GenerateSWI:
 865              	.LVL72:
 866              	.LFB73:
 867              		.loc 1 528 1 is_stmt 1 view -0
 868              		.cfi_startproc
 869              		@ args = 0, pretend = 0, frame = 0
 870              		@ frame_needed = 0, uses_anonymous_args = 0
 871              		@ link register save eliminated.
ARM GAS  C:\Users\38164\AppData\Local\Temp\cchrWI9r.s 			page 16


 872              		.loc 1 529 3 view .LVU278
 873              		.loc 1 532 3 view .LVU279
 874              		.loc 1 533 3 view .LVU280
 875              		.loc 1 536 3 view .LVU281
 876              		.loc 1 536 28 is_stmt 0 view .LVU282
 877 0000 0268     		ldr	r2, [r0]
 878              		.loc 1 536 35 view .LVU283
 879 0002 02F01F02 		and	r2, r2, #31
 880              		.loc 1 536 12 view .LVU284
 881 0006 0123     		movs	r3, #1
 882 0008 9340     		lsls	r3, r3, r2
 883              	.LVL73:
 884              		.loc 1 539 3 is_stmt 1 view .LVU285
 885              		.loc 1 539 15 is_stmt 0 view .LVU286
 886 000a 014A     		ldr	r2, .L69
 887 000c 1361     		str	r3, [r2, #16]
 888              		.loc 1 540 1 view .LVU287
 889 000e 7047     		bx	lr
 890              	.L70:
 891              		.align	2
 892              	.L69:
 893 0010 00040140 		.word	1073808384
 894              		.cfi_endproc
 895              	.LFE73:
 897              		.text
 898              	.Letext0:
 899              		.file 2 "../c:\\users\\38164\\onedrive\\desktop\\gnu mcu\\arm-none-eabi-gcc-9.3.1-1.1\\arm-none-ea
 900              		.file 3 "../c:\\users\\38164\\onedrive\\desktop\\gnu mcu\\arm-none-eabi-gcc-9.3.1-1.1\\arm-none-ea
 901              		.file 4 "../Drivers/CMSIS/Include/core_cm3.h"
 902              		.file 5 "../Drivers/CMSIS/Device/ST/STM32F1xx/Include/system_stm32f1xx.h"
 903              		.file 6 "../Drivers/CMSIS/Device/ST/STM32F1xx/Include/stm32f103x6.h"
 904              		.file 7 "../Drivers/STM32F1xx_HAL_Driver/Inc/stm32f1xx_hal_def.h"
 905              		.file 8 "../Drivers/STM32F1xx_HAL_Driver/Inc/stm32f1xx_hal_exti.h"
 906              		.file 9 "../Drivers/STM32F1xx_HAL_Driver/Inc/stm32f1xx_hal.h"
ARM GAS  C:\Users\38164\AppData\Local\Temp\cchrWI9r.s 			page 17

