ARM GAS  C:\Users\38164\AppData\Local\Temp\ccqIV1nl.s 			page 1


   1              		.cpu cortex-m3
   2              		.eabi_attribute 20, 1
   3              		.eabi_attribute 21, 1
   4              		.eabi_attribute 23, 3
   5              		.eabi_attribute 24, 1
   6              		.eabi_attribute 25, 1
   7              		.eabi_attribute 26, 1
   8              		.eabi_attribute 30, 1
   9              		.eabi_attribute 34, 1
  10              		.eabi_attribute 18, 4
  11              		.file	"stm32f1xx_hal_tim_ex.c"
  12              		.text
  13              	.Ltext0:
  14              		.cfi_sections	.debug_frame
  15              		.section	.text.TIM_CCxNChannelCmd,"ax",%progbits
  16              		.align	1
  17              		.arch armv7-m
  18              		.syntax unified
  19              		.thumb
  20              		.thumb_func
  21              		.fpu softvfp
  23              	TIM_CCxNChannelCmd:
  24              	.LVL0:
  25              	.LFB106:
  26              		.file 1 "../Drivers/STM32F1xx_HAL_Driver/Src/stm32f1xx_hal_tim_ex.c"
   1:../Drivers/STM32F1xx_HAL_Driver/Src/stm32f1xx_hal_tim_ex.c **** 
  27              		.loc 1 2272 1 view -0
  28              		.cfi_startproc
  29              		@ args = 0, pretend = 0, frame = 0
  30              		@ frame_needed = 0, uses_anonymous_args = 0
  31              		@ link register save eliminated.
  32              		.loc 1 2272 1 is_stmt 0 view .LVU1
  33 0000 10B4     		push	{r4}
  34              	.LCFI0:
  35              		.cfi_def_cfa_offset 4
  36              		.cfi_offset 4, -4
  37              		.loc 1 2273 3 is_stmt 1 view .LVU2
  38              		.loc 1 2275 3 view .LVU3
  39              		.loc 1 2275 36 is_stmt 0 view .LVU4
  40 0002 01F01F01 		and	r1, r1, #31
  41              	.LVL1:
  42              		.loc 1 2275 7 view .LVU5
  43 0006 0423     		movs	r3, #4
  44 0008 03FA01F4 		lsl	r4, r3, r1
  45              	.LVL2:
  46              		.loc 1 2278 3 is_stmt 1 view .LVU6
  47              		.loc 1 2278 14 is_stmt 0 view .LVU7
  48 000c 036A     		ldr	r3, [r0, #32]
  49 000e 23EA0403 		bic	r3, r3, r4
  50 0012 0362     		str	r3, [r0, #32]
  51              		.loc 1 2281 3 is_stmt 1 view .LVU8
  52              		.loc 1 2281 14 is_stmt 0 view .LVU9
  53 0014 036A     		ldr	r3, [r0, #32]
  54              		.loc 1 2281 42 view .LVU10
  55 0016 02FA01F1 		lsl	r1, r2, r1
  56              		.loc 1 2281 14 view .LVU11
  57 001a 0B43     		orrs	r3, r3, r1
ARM GAS  C:\Users\38164\AppData\Local\Temp\ccqIV1nl.s 			page 2


  58 001c 0362     		str	r3, [r0, #32]
  59              		.loc 1 2282 1 view .LVU12
  60 001e 10BC     		pop	{r4}
  61              	.LCFI1:
  62              		.cfi_restore 4
  63              		.cfi_def_cfa_offset 0
  64              	.LVL3:
  65              		.loc 1 2282 1 view .LVU13
  66 0020 7047     		bx	lr
  67              		.cfi_endproc
  68              	.LFE106:
  70              		.section	.text.TIM_DMAErrorCCxN,"ax",%progbits
  71              		.align	1
  72              		.syntax unified
  73              		.thumb
  74              		.thumb_func
  75              		.fpu softvfp
  77              	TIM_DMAErrorCCxN:
  78              	.LVL4:
  79              	.LFB105:
  80              		.loc 1 2227 1 is_stmt 1 view -0
  81              		.cfi_startproc
  82              		@ args = 0, pretend = 0, frame = 0
  83              		@ frame_needed = 0, uses_anonymous_args = 0
  84              		.loc 1 2227 1 is_stmt 0 view .LVU15
  85 0000 10B5     		push	{r4, lr}
  86              	.LCFI2:
  87              		.cfi_def_cfa_offset 8
  88              		.cfi_offset 4, -8
  89              		.cfi_offset 14, -4
  90              		.loc 1 2228 3 is_stmt 1 view .LVU16
  91              		.loc 1 2228 22 is_stmt 0 view .LVU17
  92 0002 446A     		ldr	r4, [r0, #36]
  93              	.LVL5:
  94              		.loc 1 2230 3 is_stmt 1 view .LVU18
  95              		.loc 1 2230 25 is_stmt 0 view .LVU19
  96 0004 636A     		ldr	r3, [r4, #36]
  97              		.loc 1 2230 6 view .LVU20
  98 0006 8342     		cmp	r3, r0
  99 0008 0BD0     		beq	.L8
 100              		.loc 1 2235 8 is_stmt 1 view .LVU21
 101              		.loc 1 2235 30 is_stmt 0 view .LVU22
 102 000a A36A     		ldr	r3, [r4, #40]
 103              		.loc 1 2235 11 view .LVU23
 104 000c 8342     		cmp	r3, r0
 105 000e 0DD0     		beq	.L9
 106              		.loc 1 2240 8 is_stmt 1 view .LVU24
 107              		.loc 1 2240 30 is_stmt 0 view .LVU25
 108 0010 E36A     		ldr	r3, [r4, #44]
 109              		.loc 1 2240 11 view .LVU26
 110 0012 8342     		cmp	r3, r0
 111 0014 10D0     		beq	.L10
 112              	.L5:
 113              		.loc 1 2248 3 is_stmt 1 view .LVU27
 114              		.loc 1 2253 3 view .LVU28
 115 0016 2046     		mov	r0, r4
 116              	.LVL6:
ARM GAS  C:\Users\38164\AppData\Local\Temp\ccqIV1nl.s 			page 3


 117              		.loc 1 2253 3 is_stmt 0 view .LVU29
 118 0018 0A4B     		ldr	r3, .L11
 119 001a 9847     		blx	r3
 120              	.LVL7:
 121              		.loc 1 2256 3 is_stmt 1 view .LVU30
 122              		.loc 1 2256 17 is_stmt 0 view .LVU31
 123 001c 0023     		movs	r3, #0
 124 001e 2377     		strb	r3, [r4, #28]
 125              		.loc 1 2257 1 view .LVU32
 126 0020 10BD     		pop	{r4, pc}
 127              	.LVL8:
 128              	.L8:
 129              		.loc 1 2232 5 is_stmt 1 view .LVU33
 130              		.loc 1 2232 19 is_stmt 0 view .LVU34
 131 0022 0123     		movs	r3, #1
 132 0024 2377     		strb	r3, [r4, #28]
 133              		.loc 1 2233 5 is_stmt 1 view .LVU35
 134 0026 84F84230 		strb	r3, [r4, #66]
 135 002a F4E7     		b	.L5
 136              	.L9:
 137              		.loc 1 2237 5 view .LVU36
 138              		.loc 1 2237 19 is_stmt 0 view .LVU37
 139 002c 0223     		movs	r3, #2
 140 002e 2377     		strb	r3, [r4, #28]
 141              		.loc 1 2238 5 is_stmt 1 view .LVU38
 142 0030 0123     		movs	r3, #1
 143 0032 84F84330 		strb	r3, [r4, #67]
 144 0036 EEE7     		b	.L5
 145              	.L10:
 146              		.loc 1 2242 5 view .LVU39
 147              		.loc 1 2242 19 is_stmt 0 view .LVU40
 148 0038 0423     		movs	r3, #4
 149 003a 2377     		strb	r3, [r4, #28]
 150              		.loc 1 2243 5 is_stmt 1 view .LVU41
 151 003c 0123     		movs	r3, #1
 152 003e 84F84430 		strb	r3, [r4, #68]
 153 0042 E8E7     		b	.L5
 154              	.L12:
 155              		.align	2
 156              	.L11:
 157 0044 00000000 		.word	HAL_TIM_ErrorCallback
 158              		.cfi_endproc
 159              	.LFE105:
 161              		.section	.text.TIM_DMADelayPulseNCplt,"ax",%progbits
 162              		.align	1
 163              		.syntax unified
 164              		.thumb
 165              		.thumb_func
 166              		.fpu softvfp
 168              	TIM_DMADelayPulseNCplt:
 169              	.LVL9:
 170              	.LFB104:
 171              		.loc 1 2168 1 view -0
 172              		.cfi_startproc
 173              		@ args = 0, pretend = 0, frame = 0
 174              		@ frame_needed = 0, uses_anonymous_args = 0
 175              		.loc 1 2168 1 is_stmt 0 view .LVU43
ARM GAS  C:\Users\38164\AppData\Local\Temp\ccqIV1nl.s 			page 4


 176 0000 10B5     		push	{r4, lr}
 177              	.LCFI3:
 178              		.cfi_def_cfa_offset 8
 179              		.cfi_offset 4, -8
 180              		.cfi_offset 14, -4
 181              		.loc 1 2169 3 is_stmt 1 view .LVU44
 182              		.loc 1 2169 22 is_stmt 0 view .LVU45
 183 0002 446A     		ldr	r4, [r0, #36]
 184              	.LVL10:
 185              		.loc 1 2171 3 is_stmt 1 view .LVU46
 186              		.loc 1 2171 25 is_stmt 0 view .LVU47
 187 0004 636A     		ldr	r3, [r4, #36]
 188              		.loc 1 2171 6 view .LVU48
 189 0006 8342     		cmp	r3, r0
 190 0008 0ED0     		beq	.L19
 191              		.loc 1 2180 8 is_stmt 1 view .LVU49
 192              		.loc 1 2180 30 is_stmt 0 view .LVU50
 193 000a A36A     		ldr	r3, [r4, #40]
 194              		.loc 1 2180 11 view .LVU51
 195 000c 8342     		cmp	r3, r0
 196 000e 14D0     		beq	.L20
 197              		.loc 1 2189 8 is_stmt 1 view .LVU52
 198              		.loc 1 2189 30 is_stmt 0 view .LVU53
 199 0010 E36A     		ldr	r3, [r4, #44]
 200              		.loc 1 2189 11 view .LVU54
 201 0012 8342     		cmp	r3, r0
 202 0014 1AD0     		beq	.L21
 203              		.loc 1 2198 8 is_stmt 1 view .LVU55
 204              		.loc 1 2198 30 is_stmt 0 view .LVU56
 205 0016 236B     		ldr	r3, [r4, #48]
 206              		.loc 1 2198 11 view .LVU57
 207 0018 8342     		cmp	r3, r0
 208 001a 20D0     		beq	.L22
 209              	.L15:
 210              		.loc 1 2210 3 is_stmt 1 view .LVU58
 211              		.loc 1 2215 3 view .LVU59
 212 001c 2046     		mov	r0, r4
 213              	.LVL11:
 214              		.loc 1 2215 3 is_stmt 0 view .LVU60
 215 001e 144B     		ldr	r3, .L23
 216 0020 9847     		blx	r3
 217              	.LVL12:
 218              		.loc 1 2218 3 is_stmt 1 view .LVU61
 219              		.loc 1 2218 17 is_stmt 0 view .LVU62
 220 0022 0023     		movs	r3, #0
 221 0024 2377     		strb	r3, [r4, #28]
 222              		.loc 1 2219 1 view .LVU63
 223 0026 10BD     		pop	{r4, pc}
 224              	.LVL13:
 225              	.L19:
 226              		.loc 1 2173 5 is_stmt 1 view .LVU64
 227              		.loc 1 2173 19 is_stmt 0 view .LVU65
 228 0028 0123     		movs	r3, #1
 229 002a 2377     		strb	r3, [r4, #28]
 230              		.loc 1 2175 5 is_stmt 1 view .LVU66
 231              		.loc 1 2175 19 is_stmt 0 view .LVU67
 232 002c 8369     		ldr	r3, [r0, #24]
ARM GAS  C:\Users\38164\AppData\Local\Temp\ccqIV1nl.s 			page 5


 233              		.loc 1 2175 8 view .LVU68
 234 002e 002B     		cmp	r3, #0
 235 0030 F4D1     		bne	.L15
 236              		.loc 1 2177 7 is_stmt 1 view .LVU69
 237 0032 0123     		movs	r3, #1
 238 0034 84F84230 		strb	r3, [r4, #66]
 239 0038 F0E7     		b	.L15
 240              	.L20:
 241              		.loc 1 2182 5 view .LVU70
 242              		.loc 1 2182 19 is_stmt 0 view .LVU71
 243 003a 0223     		movs	r3, #2
 244 003c 2377     		strb	r3, [r4, #28]
 245              		.loc 1 2184 5 is_stmt 1 view .LVU72
 246              		.loc 1 2184 19 is_stmt 0 view .LVU73
 247 003e 8369     		ldr	r3, [r0, #24]
 248              		.loc 1 2184 8 view .LVU74
 249 0040 002B     		cmp	r3, #0
 250 0042 EBD1     		bne	.L15
 251              		.loc 1 2186 7 is_stmt 1 view .LVU75
 252 0044 0123     		movs	r3, #1
 253 0046 84F84330 		strb	r3, [r4, #67]
 254 004a E7E7     		b	.L15
 255              	.L21:
 256              		.loc 1 2191 5 view .LVU76
 257              		.loc 1 2191 19 is_stmt 0 view .LVU77
 258 004c 0423     		movs	r3, #4
 259 004e 2377     		strb	r3, [r4, #28]
 260              		.loc 1 2193 5 is_stmt 1 view .LVU78
 261              		.loc 1 2193 19 is_stmt 0 view .LVU79
 262 0050 8369     		ldr	r3, [r0, #24]
 263              		.loc 1 2193 8 view .LVU80
 264 0052 002B     		cmp	r3, #0
 265 0054 E2D1     		bne	.L15
 266              		.loc 1 2195 7 is_stmt 1 view .LVU81
 267 0056 0123     		movs	r3, #1
 268 0058 84F84430 		strb	r3, [r4, #68]
 269 005c DEE7     		b	.L15
 270              	.L22:
 271              		.loc 1 2200 5 view .LVU82
 272              		.loc 1 2200 19 is_stmt 0 view .LVU83
 273 005e 0823     		movs	r3, #8
 274 0060 2377     		strb	r3, [r4, #28]
 275              		.loc 1 2202 5 is_stmt 1 view .LVU84
 276              		.loc 1 2202 19 is_stmt 0 view .LVU85
 277 0062 8369     		ldr	r3, [r0, #24]
 278              		.loc 1 2202 8 view .LVU86
 279 0064 002B     		cmp	r3, #0
 280 0066 D9D1     		bne	.L15
 281              		.loc 1 2204 7 is_stmt 1 view .LVU87
 282 0068 0123     		movs	r3, #1
 283 006a 84F84530 		strb	r3, [r4, #69]
 284 006e D5E7     		b	.L15
 285              	.L24:
 286              		.align	2
 287              	.L23:
 288 0070 00000000 		.word	HAL_TIM_PWM_PulseFinishedCallback
 289              		.cfi_endproc
ARM GAS  C:\Users\38164\AppData\Local\Temp\ccqIV1nl.s 			page 6


 290              	.LFE104:
 292              		.section	.text.HAL_TIMEx_HallSensor_MspInit,"ax",%progbits
 293              		.align	1
 294              		.weak	HAL_TIMEx_HallSensor_MspInit
 295              		.syntax unified
 296              		.thumb
 297              		.thumb_func
 298              		.fpu softvfp
 300              	HAL_TIMEx_HallSensor_MspInit:
 301              	.LVL14:
 302              	.LFB67:
 303              		.loc 1 282 1 view -0
 304              		.cfi_startproc
 305              		@ args = 0, pretend = 0, frame = 0
 306              		@ frame_needed = 0, uses_anonymous_args = 0
 307              		@ link register save eliminated.
 308              		.loc 1 284 3 view .LVU89
 309              		.loc 1 289 1 is_stmt 0 view .LVU90
 310 0000 7047     		bx	lr
 311              		.cfi_endproc
 312              	.LFE67:
 314              		.section	.text.HAL_TIMEx_HallSensor_Init,"ax",%progbits
 315              		.align	1
 316              		.global	HAL_TIMEx_HallSensor_Init
 317              		.syntax unified
 318              		.thumb
 319              		.thumb_func
 320              		.fpu softvfp
 322              	HAL_TIMEx_HallSensor_Init:
 323              	.LVL15:
 324              	.LFB65:
 325              		.loc 1 136 1 is_stmt 1 view -0
 326              		.cfi_startproc
 327              		@ args = 0, pretend = 0, frame = 32
 328              		@ frame_needed = 0, uses_anonymous_args = 0
 329              		.loc 1 137 3 view .LVU92
 330              		.loc 1 140 3 view .LVU93
 331              		.loc 1 140 6 is_stmt 0 view .LVU94
 332 0000 0028     		cmp	r0, #0
 333 0002 65D0     		beq	.L29
 334              		.loc 1 136 1 view .LVU95
 335 0004 70B5     		push	{r4, r5, r6, lr}
 336              	.LCFI4:
 337              		.cfi_def_cfa_offset 16
 338              		.cfi_offset 4, -16
 339              		.cfi_offset 5, -12
 340              		.cfi_offset 6, -8
 341              		.cfi_offset 14, -4
 342 0006 88B0     		sub	sp, sp, #32
 343              	.LCFI5:
 344              		.cfi_def_cfa_offset 48
 345 0008 0E46     		mov	r6, r1
 346 000a 0446     		mov	r4, r0
 347              		.loc 1 146 3 is_stmt 1 view .LVU96
 348              		.loc 1 147 3 view .LVU97
 349              		.loc 1 148 3 view .LVU98
 350              		.loc 1 149 3 view .LVU99
ARM GAS  C:\Users\38164\AppData\Local\Temp\ccqIV1nl.s 			page 7


 351              		.loc 1 150 3 view .LVU100
 352              		.loc 1 151 3 view .LVU101
 353              		.loc 1 152 3 view .LVU102
 354              		.loc 1 154 3 view .LVU103
 355              		.loc 1 154 11 is_stmt 0 view .LVU104
 356 000c 90F83D30 		ldrb	r3, [r0, #61]	@ zero_extendqisi2
 357              		.loc 1 154 6 view .LVU105
 358 0010 002B     		cmp	r3, #0
 359 0012 58D0     		beq	.L34
 360              	.LVL16:
 361              	.L28:
 362              		.loc 1 176 3 is_stmt 1 view .LVU106
 363              		.loc 1 176 15 is_stmt 0 view .LVU107
 364 0014 0223     		movs	r3, #2
 365 0016 84F83D30 		strb	r3, [r4, #61]
 366              		.loc 1 179 3 is_stmt 1 view .LVU108
 367 001a 2146     		mov	r1, r4
 368 001c 51F8040B 		ldr	r0, [r1], #4
 369 0020 2C4B     		ldr	r3, .L35
 370 0022 9847     		blx	r3
 371              	.LVL17:
 372              		.loc 1 182 3 view .LVU109
 373 0024 B368     		ldr	r3, [r6, #8]
 374 0026 0322     		movs	r2, #3
 375 0028 3168     		ldr	r1, [r6]
 376 002a 2068     		ldr	r0, [r4]
 377 002c 2A4D     		ldr	r5, .L35+4
 378 002e A847     		blx	r5
 379              	.LVL18:
 380              		.loc 1 185 3 view .LVU110
 381              		.loc 1 185 7 is_stmt 0 view .LVU111
 382 0030 2268     		ldr	r2, [r4]
 383              		.loc 1 185 25 view .LVU112
 384 0032 9369     		ldr	r3, [r2, #24]
 385 0034 23F00C03 		bic	r3, r3, #12
 386 0038 9361     		str	r3, [r2, #24]
 387              		.loc 1 187 3 is_stmt 1 view .LVU113
 388              		.loc 1 187 7 is_stmt 0 view .LVU114
 389 003a 2268     		ldr	r2, [r4]
 390              		.loc 1 187 25 view .LVU115
 391 003c 9369     		ldr	r3, [r2, #24]
 392              		.loc 1 187 35 view .LVU116
 393 003e 7168     		ldr	r1, [r6, #4]
 394              		.loc 1 187 25 view .LVU117
 395 0040 0B43     		orrs	r3, r3, r1
 396 0042 9361     		str	r3, [r2, #24]
 397              		.loc 1 190 3 is_stmt 1 view .LVU118
 398              		.loc 1 190 7 is_stmt 0 view .LVU119
 399 0044 2268     		ldr	r2, [r4]
 400              		.loc 1 190 23 view .LVU120
 401 0046 5368     		ldr	r3, [r2, #4]
 402 0048 43F08003 		orr	r3, r3, #128
 403 004c 5360     		str	r3, [r2, #4]
 404              		.loc 1 193 3 is_stmt 1 view .LVU121
 405              		.loc 1 193 7 is_stmt 0 view .LVU122
 406 004e 2268     		ldr	r2, [r4]
 407              		.loc 1 193 24 view .LVU123
ARM GAS  C:\Users\38164\AppData\Local\Temp\ccqIV1nl.s 			page 8


 408 0050 9368     		ldr	r3, [r2, #8]
 409 0052 23F07003 		bic	r3, r3, #112
 410 0056 9360     		str	r3, [r2, #8]
 411              		.loc 1 194 3 is_stmt 1 view .LVU124
 412              		.loc 1 194 7 is_stmt 0 view .LVU125
 413 0058 2268     		ldr	r2, [r4]
 414              		.loc 1 194 24 view .LVU126
 415 005a 9368     		ldr	r3, [r2, #8]
 416 005c 43F04003 		orr	r3, r3, #64
 417 0060 9360     		str	r3, [r2, #8]
 418              		.loc 1 197 3 is_stmt 1 view .LVU127
 419              		.loc 1 197 7 is_stmt 0 view .LVU128
 420 0062 2268     		ldr	r2, [r4]
 421              		.loc 1 197 24 view .LVU129
 422 0064 9368     		ldr	r3, [r2, #8]
 423 0066 23F00703 		bic	r3, r3, #7
 424 006a 9360     		str	r3, [r2, #8]
 425              		.loc 1 198 3 is_stmt 1 view .LVU130
 426              		.loc 1 198 7 is_stmt 0 view .LVU131
 427 006c 2268     		ldr	r2, [r4]
 428              		.loc 1 198 24 view .LVU132
 429 006e 9368     		ldr	r3, [r2, #8]
 430 0070 43F00403 		orr	r3, r3, #4
 431 0074 9360     		str	r3, [r2, #8]
 432              		.loc 1 201 3 is_stmt 1 view .LVU133
 433              		.loc 1 201 24 is_stmt 0 view .LVU134
 434 0076 0025     		movs	r5, #0
 435 0078 0595     		str	r5, [sp, #20]
 436              		.loc 1 202 3 is_stmt 1 view .LVU135
 437              		.loc 1 202 25 is_stmt 0 view .LVU136
 438 007a 0695     		str	r5, [sp, #24]
 439              		.loc 1 203 3 is_stmt 1 view .LVU137
 440              		.loc 1 203 20 is_stmt 0 view .LVU138
 441 007c 7023     		movs	r3, #112
 442 007e 0193     		str	r3, [sp, #4]
 443              		.loc 1 204 3 is_stmt 1 view .LVU139
 444              		.loc 1 204 26 is_stmt 0 view .LVU140
 445 0080 0795     		str	r5, [sp, #28]
 446              		.loc 1 205 3 is_stmt 1 view .LVU141
 447              		.loc 1 205 25 is_stmt 0 view .LVU142
 448 0082 0495     		str	r5, [sp, #16]
 449              		.loc 1 206 3 is_stmt 1 view .LVU143
 450              		.loc 1 206 24 is_stmt 0 view .LVU144
 451 0084 0395     		str	r5, [sp, #12]
 452              		.loc 1 207 3 is_stmt 1 view .LVU145
 453              		.loc 1 207 28 is_stmt 0 view .LVU146
 454 0086 F368     		ldr	r3, [r6, #12]
 455              		.loc 1 207 19 view .LVU147
 456 0088 0293     		str	r3, [sp, #8]
 457              		.loc 1 209 3 is_stmt 1 view .LVU148
 458 008a 01A9     		add	r1, sp, #4
 459 008c 2068     		ldr	r0, [r4]
 460 008e 134B     		ldr	r3, .L35+8
 461 0090 9847     		blx	r3
 462              	.LVL19:
 463              		.loc 1 213 3 view .LVU149
 464              		.loc 1 213 7 is_stmt 0 view .LVU150
ARM GAS  C:\Users\38164\AppData\Local\Temp\ccqIV1nl.s 			page 9


 465 0092 2268     		ldr	r2, [r4]
 466              		.loc 1 213 23 view .LVU151
 467 0094 5368     		ldr	r3, [r2, #4]
 468 0096 23F07003 		bic	r3, r3, #112
 469 009a 5360     		str	r3, [r2, #4]
 470              		.loc 1 214 3 is_stmt 1 view .LVU152
 471              		.loc 1 214 7 is_stmt 0 view .LVU153
 472 009c 2268     		ldr	r2, [r4]
 473              		.loc 1 214 23 view .LVU154
 474 009e 5368     		ldr	r3, [r2, #4]
 475 00a0 43F05003 		orr	r3, r3, #80
 476 00a4 5360     		str	r3, [r2, #4]
 477              		.loc 1 217 3 is_stmt 1 view .LVU155
 478              		.loc 1 217 23 is_stmt 0 view .LVU156
 479 00a6 0123     		movs	r3, #1
 480 00a8 84F84630 		strb	r3, [r4, #70]
 481              		.loc 1 220 3 is_stmt 1 view .LVU157
 482 00ac 84F83E30 		strb	r3, [r4, #62]
 483              		.loc 1 221 3 view .LVU158
 484 00b0 84F83F30 		strb	r3, [r4, #63]
 485              		.loc 1 222 3 view .LVU159
 486 00b4 84F84230 		strb	r3, [r4, #66]
 487              		.loc 1 223 3 view .LVU160
 488 00b8 84F84330 		strb	r3, [r4, #67]
 489              		.loc 1 226 3 view .LVU161
 490              		.loc 1 226 15 is_stmt 0 view .LVU162
 491 00bc 84F83D30 		strb	r3, [r4, #61]
 492              		.loc 1 228 3 is_stmt 1 view .LVU163
 493              		.loc 1 228 10 is_stmt 0 view .LVU164
 494 00c0 2846     		mov	r0, r5
 495              		.loc 1 229 1 view .LVU165
 496 00c2 08B0     		add	sp, sp, #32
 497              	.LCFI6:
 498              		.cfi_remember_state
 499              		.cfi_def_cfa_offset 16
 500              		@ sp needed
 501 00c4 70BD     		pop	{r4, r5, r6, pc}
 502              	.LVL20:
 503              	.L34:
 504              	.LCFI7:
 505              		.cfi_restore_state
 506              		.loc 1 157 5 is_stmt 1 view .LVU166
 507              		.loc 1 157 16 is_stmt 0 view .LVU167
 508 00c6 80F83C30 		strb	r3, [r0, #60]
 509              		.loc 1 171 5 is_stmt 1 view .LVU168
 510 00ca 054B     		ldr	r3, .L35+12
 511 00cc 9847     		blx	r3
 512              	.LVL21:
 513              		.loc 1 171 5 is_stmt 0 view .LVU169
 514 00ce A1E7     		b	.L28
 515              	.LVL22:
 516              	.L29:
 517              	.LCFI8:
 518              		.cfi_def_cfa_offset 0
 519              		.cfi_restore 4
 520              		.cfi_restore 5
 521              		.cfi_restore 6
ARM GAS  C:\Users\38164\AppData\Local\Temp\ccqIV1nl.s 			page 10


 522              		.cfi_restore 14
 523              		.loc 1 142 12 view .LVU170
 524 00d0 0120     		movs	r0, #1
 525              	.LVL23:
 526              		.loc 1 229 1 view .LVU171
 527 00d2 7047     		bx	lr
 528              	.L36:
 529              		.align	2
 530              	.L35:
 531 00d4 00000000 		.word	TIM_Base_SetConfig
 532 00d8 00000000 		.word	TIM_TI1_SetConfig
 533 00dc 00000000 		.word	TIM_OC2_SetConfig
 534 00e0 00000000 		.word	HAL_TIMEx_HallSensor_MspInit
 535              		.cfi_endproc
 536              	.LFE65:
 538              		.section	.text.HAL_TIMEx_HallSensor_MspDeInit,"ax",%progbits
 539              		.align	1
 540              		.weak	HAL_TIMEx_HallSensor_MspDeInit
 541              		.syntax unified
 542              		.thumb
 543              		.thumb_func
 544              		.fpu softvfp
 546              	HAL_TIMEx_HallSensor_MspDeInit:
 547              	.LVL24:
 548              	.LFB68:
 549              		.loc 1 297 1 is_stmt 1 view -0
 550              		.cfi_startproc
 551              		@ args = 0, pretend = 0, frame = 0
 552              		@ frame_needed = 0, uses_anonymous_args = 0
 553              		@ link register save eliminated.
 554              		.loc 1 299 3 view .LVU173
 555              		.loc 1 304 1 is_stmt 0 view .LVU174
 556 0000 7047     		bx	lr
 557              		.cfi_endproc
 558              	.LFE68:
 560              		.section	.text.HAL_TIMEx_HallSensor_DeInit,"ax",%progbits
 561              		.align	1
 562              		.global	HAL_TIMEx_HallSensor_DeInit
 563              		.syntax unified
 564              		.thumb
 565              		.thumb_func
 566              		.fpu softvfp
 568              	HAL_TIMEx_HallSensor_DeInit:
 569              	.LVL25:
 570              	.LFB66:
 571              		.loc 1 237 1 is_stmt 1 view -0
 572              		.cfi_startproc
 573              		@ args = 0, pretend = 0, frame = 0
 574              		@ frame_needed = 0, uses_anonymous_args = 0
 575              		.loc 1 237 1 is_stmt 0 view .LVU176
 576 0000 10B5     		push	{r4, lr}
 577              	.LCFI9:
 578              		.cfi_def_cfa_offset 8
 579              		.cfi_offset 4, -8
 580              		.cfi_offset 14, -4
 581 0002 0446     		mov	r4, r0
 582              		.loc 1 239 3 is_stmt 1 view .LVU177
ARM GAS  C:\Users\38164\AppData\Local\Temp\ccqIV1nl.s 			page 11


 583              		.loc 1 241 3 view .LVU178
 584              		.loc 1 241 15 is_stmt 0 view .LVU179
 585 0004 0223     		movs	r3, #2
 586 0006 80F83D30 		strb	r3, [r0, #61]
 587              		.loc 1 244 3 is_stmt 1 view .LVU180
 588              		.loc 1 244 3 view .LVU181
 589 000a 0368     		ldr	r3, [r0]
 590 000c 196A     		ldr	r1, [r3, #32]
 591 000e 41F21112 		movw	r2, #4369
 592 0012 1142     		tst	r1, r2
 593 0014 08D1     		bne	.L39
 594              		.loc 1 244 3 discriminator 1 view .LVU182
 595 0016 196A     		ldr	r1, [r3, #32]
 596 0018 40F24442 		movw	r2, #1092
 597 001c 1142     		tst	r1, r2
 598 001e 03D1     		bne	.L39
 599              		.loc 1 244 3 discriminator 3 view .LVU183
 600 0020 1A68     		ldr	r2, [r3]
 601 0022 22F00102 		bic	r2, r2, #1
 602 0026 1A60     		str	r2, [r3]
 603              	.L39:
 604              		.loc 1 244 3 discriminator 5 view .LVU184
 605              		.loc 1 255 3 discriminator 5 view .LVU185
 606 0028 2046     		mov	r0, r4
 607              	.LVL26:
 608              		.loc 1 255 3 is_stmt 0 discriminator 5 view .LVU186
 609 002a 094B     		ldr	r3, .L41
 610 002c 9847     		blx	r3
 611              	.LVL27:
 612              		.loc 1 259 3 is_stmt 1 discriminator 5 view .LVU187
 613              		.loc 1 259 23 is_stmt 0 discriminator 5 view .LVU188
 614 002e 0020     		movs	r0, #0
 615 0030 84F84600 		strb	r0, [r4, #70]
 616              		.loc 1 262 3 is_stmt 1 discriminator 5 view .LVU189
 617 0034 84F83E00 		strb	r0, [r4, #62]
 618              		.loc 1 263 3 discriminator 5 view .LVU190
 619 0038 84F83F00 		strb	r0, [r4, #63]
 620              		.loc 1 264 3 discriminator 5 view .LVU191
 621 003c 84F84200 		strb	r0, [r4, #66]
 622              		.loc 1 265 3 discriminator 5 view .LVU192
 623 0040 84F84300 		strb	r0, [r4, #67]
 624              		.loc 1 268 3 discriminator 5 view .LVU193
 625              		.loc 1 268 15 is_stmt 0 discriminator 5 view .LVU194
 626 0044 84F83D00 		strb	r0, [r4, #61]
 627              		.loc 1 271 3 is_stmt 1 discriminator 5 view .LVU195
 628              		.loc 1 271 3 discriminator 5 view .LVU196
 629 0048 84F83C00 		strb	r0, [r4, #60]
 630              		.loc 1 271 3 discriminator 5 view .LVU197
 631              		.loc 1 273 3 discriminator 5 view .LVU198
 632              		.loc 1 274 1 is_stmt 0 discriminator 5 view .LVU199
 633 004c 10BD     		pop	{r4, pc}
 634              	.LVL28:
 635              	.L42:
 636              		.loc 1 274 1 discriminator 5 view .LVU200
 637 004e 00BF     		.align	2
 638              	.L41:
 639 0050 00000000 		.word	HAL_TIMEx_HallSensor_MspDeInit
ARM GAS  C:\Users\38164\AppData\Local\Temp\ccqIV1nl.s 			page 12


 640              		.cfi_endproc
 641              	.LFE66:
 643              		.section	.text.HAL_TIMEx_HallSensor_Start,"ax",%progbits
 644              		.align	1
 645              		.global	HAL_TIMEx_HallSensor_Start
 646              		.syntax unified
 647              		.thumb
 648              		.thumb_func
 649              		.fpu softvfp
 651              	HAL_TIMEx_HallSensor_Start:
 652              	.LVL29:
 653              	.LFB69:
 654              		.loc 1 312 1 is_stmt 1 view -0
 655              		.cfi_startproc
 656              		@ args = 0, pretend = 0, frame = 0
 657              		@ frame_needed = 0, uses_anonymous_args = 0
 658              		.loc 1 312 1 is_stmt 0 view .LVU202
 659 0000 10B5     		push	{r4, lr}
 660              	.LCFI10:
 661              		.cfi_def_cfa_offset 8
 662              		.cfi_offset 4, -8
 663              		.cfi_offset 14, -4
 664 0002 0446     		mov	r4, r0
 665              		.loc 1 313 3 is_stmt 1 view .LVU203
 666              		.loc 1 314 3 view .LVU204
 667              		.loc 1 314 31 is_stmt 0 view .LVU205
 668 0004 90F83E00 		ldrb	r0, [r0, #62]	@ zero_extendqisi2
 669              	.LVL30:
 670              		.loc 1 314 31 view .LVU206
 671 0008 C0B2     		uxtb	r0, r0
 672              	.LVL31:
 673              		.loc 1 315 3 is_stmt 1 view .LVU207
 674              		.loc 1 315 31 is_stmt 0 view .LVU208
 675 000a 94F83F30 		ldrb	r3, [r4, #63]	@ zero_extendqisi2
 676              	.LVL32:
 677              		.loc 1 316 3 is_stmt 1 view .LVU209
 678              		.loc 1 316 31 is_stmt 0 view .LVU210
 679 000e 94F84220 		ldrb	r2, [r4, #66]	@ zero_extendqisi2
 680              	.LVL33:
 681              		.loc 1 317 3 is_stmt 1 view .LVU211
 682              		.loc 1 317 31 is_stmt 0 view .LVU212
 683 0012 94F84310 		ldrb	r1, [r4, #67]	@ zero_extendqisi2
 684              	.LVL34:
 685              		.loc 1 320 3 is_stmt 1 view .LVU213
 686              		.loc 1 323 3 view .LVU214
 687              		.loc 1 323 6 is_stmt 0 view .LVU215
 688 0016 0128     		cmp	r0, #1
 689 0018 33D1     		bne	.L47
 690 001a DBB2     		uxtb	r3, r3
 691              		.loc 1 323 6 view .LVU216
 692 001c D2B2     		uxtb	r2, r2
 693              		.loc 1 323 6 view .LVU217
 694 001e C9B2     		uxtb	r1, r1
 695              		.loc 1 324 7 view .LVU218
 696 0020 012B     		cmp	r3, #1
 697 0022 2FD1     		bne	.L44
 698              		.loc 1 325 7 view .LVU219
ARM GAS  C:\Users\38164\AppData\Local\Temp\ccqIV1nl.s 			page 13


 699 0024 012A     		cmp	r2, #1
 700 0026 2ED1     		bne	.L48
 701              		.loc 1 326 7 view .LVU220
 702 0028 0129     		cmp	r1, #1
 703 002a 01D0     		beq	.L52
 704              		.loc 1 328 12 view .LVU221
 705 002c 1046     		mov	r0, r2
 706              	.LVL35:
 707              		.loc 1 328 12 view .LVU222
 708 002e 29E0     		b	.L44
 709              	.LVL36:
 710              	.L52:
 711              		.loc 1 332 3 is_stmt 1 view .LVU223
 712 0030 0223     		movs	r3, #2
 713              	.LVL37:
 714              		.loc 1 332 3 is_stmt 0 view .LVU224
 715 0032 84F83E30 		strb	r3, [r4, #62]
 716              		.loc 1 333 3 is_stmt 1 view .LVU225
 717 0036 84F83F30 		strb	r3, [r4, #63]
 718              		.loc 1 334 3 view .LVU226
 719 003a 84F84230 		strb	r3, [r4, #66]
 720              		.loc 1 335 3 view .LVU227
 721 003e 84F84330 		strb	r3, [r4, #67]
 722              		.loc 1 339 3 view .LVU228
 723 0042 0021     		movs	r1, #0
 724              	.LVL38:
 725              		.loc 1 339 3 is_stmt 0 view .LVU229
 726 0044 2068     		ldr	r0, [r4]
 727              	.LVL39:
 728              		.loc 1 339 3 view .LVU230
 729 0046 124B     		ldr	r3, .L53
 730 0048 9847     		blx	r3
 731              	.LVL40:
 732              		.loc 1 342 3 is_stmt 1 view .LVU231
 733              		.loc 1 342 7 is_stmt 0 view .LVU232
 734 004a 2368     		ldr	r3, [r4]
 735              		.loc 1 342 6 view .LVU233
 736 004c 114A     		ldr	r2, .L53+4
 737 004e 9342     		cmp	r3, r2
 738 0050 0CD0     		beq	.L45
 739              		.loc 1 342 7 discriminator 1 view .LVU234
 740 0052 B3F1804F 		cmp	r3, #1073741824
 741 0056 09D0     		beq	.L45
 742              		.loc 1 342 7 discriminator 2 view .LVU235
 743 0058 A2F59432 		sub	r2, r2, #75776
 744 005c 9342     		cmp	r3, r2
 745 005e 05D0     		beq	.L45
 746              		.loc 1 352 5 is_stmt 1 view .LVU236
 747 0060 1A68     		ldr	r2, [r3]
 748 0062 42F00102 		orr	r2, r2, #1
 749 0066 1A60     		str	r2, [r3]
 750              		.loc 1 356 10 is_stmt 0 view .LVU237
 751 0068 0020     		movs	r0, #0
 752 006a 0BE0     		b	.L44
 753              	.L45:
 754              		.loc 1 344 5 is_stmt 1 view .LVU238
 755              		.loc 1 344 29 is_stmt 0 view .LVU239
ARM GAS  C:\Users\38164\AppData\Local\Temp\ccqIV1nl.s 			page 14


 756 006c 9A68     		ldr	r2, [r3, #8]
 757              		.loc 1 344 13 view .LVU240
 758 006e 02F00702 		and	r2, r2, #7
 759              	.LVL41:
 760              		.loc 1 345 5 is_stmt 1 view .LVU241
 761              		.loc 1 345 8 is_stmt 0 view .LVU242
 762 0072 062A     		cmp	r2, #6
 763 0074 09D0     		beq	.L50
 764              		.loc 1 347 7 is_stmt 1 view .LVU243
 765 0076 1A68     		ldr	r2, [r3]
 766              	.LVL42:
 767              		.loc 1 347 7 is_stmt 0 view .LVU244
 768 0078 42F00102 		orr	r2, r2, #1
 769 007c 1A60     		str	r2, [r3]
 770              		.loc 1 356 10 view .LVU245
 771 007e 0020     		movs	r0, #0
 772 0080 00E0     		b	.L44
 773              	.LVL43:
 774              	.L47:
 775              		.loc 1 328 12 view .LVU246
 776 0082 0120     		movs	r0, #1
 777              	.LVL44:
 778              	.L44:
 779              		.loc 1 357 1 view .LVU247
 780 0084 10BD     		pop	{r4, pc}
 781              	.LVL45:
 782              	.L48:
 783              		.loc 1 328 12 view .LVU248
 784 0086 1846     		mov	r0, r3
 785              	.LVL46:
 786              		.loc 1 328 12 view .LVU249
 787 0088 FCE7     		b	.L44
 788              	.LVL47:
 789              	.L50:
 790              		.loc 1 356 10 view .LVU250
 791 008a 0020     		movs	r0, #0
 792 008c FAE7     		b	.L44
 793              	.L54:
 794 008e 00BF     		.align	2
 795              	.L53:
 796 0090 00000000 		.word	TIM_CCxChannelCmd
 797 0094 002C0140 		.word	1073818624
 798              		.cfi_endproc
 799              	.LFE69:
 801              		.section	.text.HAL_TIMEx_HallSensor_Stop,"ax",%progbits
 802              		.align	1
 803              		.global	HAL_TIMEx_HallSensor_Stop
 804              		.syntax unified
 805              		.thumb
 806              		.thumb_func
 807              		.fpu softvfp
 809              	HAL_TIMEx_HallSensor_Stop:
 810              	.LVL48:
 811              	.LFB70:
 812              		.loc 1 365 1 is_stmt 1 view -0
 813              		.cfi_startproc
 814              		@ args = 0, pretend = 0, frame = 0
ARM GAS  C:\Users\38164\AppData\Local\Temp\ccqIV1nl.s 			page 15


 815              		@ frame_needed = 0, uses_anonymous_args = 0
 816              		.loc 1 365 1 is_stmt 0 view .LVU252
 817 0000 10B5     		push	{r4, lr}
 818              	.LCFI11:
 819              		.cfi_def_cfa_offset 8
 820              		.cfi_offset 4, -8
 821              		.cfi_offset 14, -4
 822 0002 0446     		mov	r4, r0
 823              		.loc 1 367 3 is_stmt 1 view .LVU253
 824              		.loc 1 371 3 view .LVU254
 825 0004 0022     		movs	r2, #0
 826 0006 1146     		mov	r1, r2
 827 0008 0068     		ldr	r0, [r0]
 828              	.LVL49:
 829              		.loc 1 371 3 is_stmt 0 view .LVU255
 830 000a 0E4B     		ldr	r3, .L58
 831 000c 9847     		blx	r3
 832              	.LVL50:
 833              		.loc 1 374 3 is_stmt 1 view .LVU256
 834              		.loc 1 374 3 view .LVU257
 835 000e 2368     		ldr	r3, [r4]
 836 0010 196A     		ldr	r1, [r3, #32]
 837 0012 41F21112 		movw	r2, #4369
 838 0016 1142     		tst	r1, r2
 839 0018 08D1     		bne	.L56
 840              		.loc 1 374 3 discriminator 1 view .LVU258
 841 001a 196A     		ldr	r1, [r3, #32]
 842 001c 40F24442 		movw	r2, #1092
 843 0020 1142     		tst	r1, r2
 844 0022 03D1     		bne	.L56
 845              		.loc 1 374 3 discriminator 3 view .LVU259
 846 0024 1A68     		ldr	r2, [r3]
 847 0026 22F00102 		bic	r2, r2, #1
 848 002a 1A60     		str	r2, [r3]
 849              	.L56:
 850              		.loc 1 374 3 discriminator 5 view .LVU260
 851              		.loc 1 377 3 discriminator 5 view .LVU261
 852 002c 0123     		movs	r3, #1
 853 002e 84F83E30 		strb	r3, [r4, #62]
 854              		.loc 1 378 3 discriminator 5 view .LVU262
 855 0032 84F83F30 		strb	r3, [r4, #63]
 856              		.loc 1 379 3 discriminator 5 view .LVU263
 857 0036 84F84230 		strb	r3, [r4, #66]
 858              		.loc 1 380 3 discriminator 5 view .LVU264
 859 003a 84F84330 		strb	r3, [r4, #67]
 860              		.loc 1 383 3 discriminator 5 view .LVU265
 861              		.loc 1 384 1 is_stmt 0 discriminator 5 view .LVU266
 862 003e 0020     		movs	r0, #0
 863 0040 10BD     		pop	{r4, pc}
 864              	.LVL51:
 865              	.L59:
 866              		.loc 1 384 1 discriminator 5 view .LVU267
 867 0042 00BF     		.align	2
 868              	.L58:
 869 0044 00000000 		.word	TIM_CCxChannelCmd
 870              		.cfi_endproc
 871              	.LFE70:
ARM GAS  C:\Users\38164\AppData\Local\Temp\ccqIV1nl.s 			page 16


 873              		.section	.text.HAL_TIMEx_HallSensor_Start_IT,"ax",%progbits
 874              		.align	1
 875              		.global	HAL_TIMEx_HallSensor_Start_IT
 876              		.syntax unified
 877              		.thumb
 878              		.thumb_func
 879              		.fpu softvfp
 881              	HAL_TIMEx_HallSensor_Start_IT:
 882              	.LVL52:
 883              	.LFB71:
 884              		.loc 1 392 1 is_stmt 1 view -0
 885              		.cfi_startproc
 886              		@ args = 0, pretend = 0, frame = 0
 887              		@ frame_needed = 0, uses_anonymous_args = 0
 888              		.loc 1 392 1 is_stmt 0 view .LVU269
 889 0000 10B5     		push	{r4, lr}
 890              	.LCFI12:
 891              		.cfi_def_cfa_offset 8
 892              		.cfi_offset 4, -8
 893              		.cfi_offset 14, -4
 894 0002 0446     		mov	r4, r0
 895              		.loc 1 393 3 is_stmt 1 view .LVU270
 896              		.loc 1 394 3 view .LVU271
 897              		.loc 1 394 31 is_stmt 0 view .LVU272
 898 0004 90F83E00 		ldrb	r0, [r0, #62]	@ zero_extendqisi2
 899              	.LVL53:
 900              		.loc 1 394 31 view .LVU273
 901 0008 C0B2     		uxtb	r0, r0
 902              	.LVL54:
 903              		.loc 1 395 3 is_stmt 1 view .LVU274
 904              		.loc 1 395 31 is_stmt 0 view .LVU275
 905 000a 94F83F30 		ldrb	r3, [r4, #63]	@ zero_extendqisi2
 906              	.LVL55:
 907              		.loc 1 396 3 is_stmt 1 view .LVU276
 908              		.loc 1 396 31 is_stmt 0 view .LVU277
 909 000e 94F84220 		ldrb	r2, [r4, #66]	@ zero_extendqisi2
 910              	.LVL56:
 911              		.loc 1 397 3 is_stmt 1 view .LVU278
 912              		.loc 1 397 31 is_stmt 0 view .LVU279
 913 0012 94F84310 		ldrb	r1, [r4, #67]	@ zero_extendqisi2
 914              	.LVL57:
 915              		.loc 1 400 3 is_stmt 1 view .LVU280
 916              		.loc 1 403 3 view .LVU281
 917              		.loc 1 403 6 is_stmt 0 view .LVU282
 918 0016 0128     		cmp	r0, #1
 919 0018 39D1     		bne	.L64
 920 001a DBB2     		uxtb	r3, r3
 921              		.loc 1 403 6 view .LVU283
 922 001c D2B2     		uxtb	r2, r2
 923              		.loc 1 403 6 view .LVU284
 924 001e C9B2     		uxtb	r1, r1
 925              		.loc 1 404 7 view .LVU285
 926 0020 012B     		cmp	r3, #1
 927 0022 35D1     		bne	.L61
 928              		.loc 1 405 7 view .LVU286
 929 0024 012A     		cmp	r2, #1
 930 0026 34D1     		bne	.L65
ARM GAS  C:\Users\38164\AppData\Local\Temp\ccqIV1nl.s 			page 17


 931              		.loc 1 406 7 view .LVU287
 932 0028 0129     		cmp	r1, #1
 933 002a 01D0     		beq	.L69
 934              		.loc 1 408 12 view .LVU288
 935 002c 1046     		mov	r0, r2
 936              	.LVL58:
 937              		.loc 1 408 12 view .LVU289
 938 002e 2FE0     		b	.L61
 939              	.LVL59:
 940              	.L69:
 941              		.loc 1 412 3 is_stmt 1 view .LVU290
 942 0030 0223     		movs	r3, #2
 943              	.LVL60:
 944              		.loc 1 412 3 is_stmt 0 view .LVU291
 945 0032 84F83E30 		strb	r3, [r4, #62]
 946              		.loc 1 413 3 is_stmt 1 view .LVU292
 947 0036 84F83F30 		strb	r3, [r4, #63]
 948              		.loc 1 414 3 view .LVU293
 949 003a 84F84230 		strb	r3, [r4, #66]
 950              		.loc 1 415 3 view .LVU294
 951 003e 84F84330 		strb	r3, [r4, #67]
 952              		.loc 1 418 3 view .LVU295
 953 0042 2268     		ldr	r2, [r4]
 954              	.LVL61:
 955              		.loc 1 418 3 is_stmt 0 view .LVU296
 956 0044 D368     		ldr	r3, [r2, #12]
 957 0046 43F00203 		orr	r3, r3, #2
 958 004a D360     		str	r3, [r2, #12]
 959              		.loc 1 422 3 is_stmt 1 view .LVU297
 960 004c 0122     		movs	r2, #1
 961 004e 0021     		movs	r1, #0
 962              	.LVL62:
 963              		.loc 1 422 3 is_stmt 0 view .LVU298
 964 0050 2068     		ldr	r0, [r4]
 965              	.LVL63:
 966              		.loc 1 422 3 view .LVU299
 967 0052 124B     		ldr	r3, .L70
 968 0054 9847     		blx	r3
 969              	.LVL64:
 970              		.loc 1 425 3 is_stmt 1 view .LVU300
 971              		.loc 1 425 7 is_stmt 0 view .LVU301
 972 0056 2368     		ldr	r3, [r4]
 973              		.loc 1 425 6 view .LVU302
 974 0058 114A     		ldr	r2, .L70+4
 975 005a 9342     		cmp	r3, r2
 976 005c 0CD0     		beq	.L62
 977              		.loc 1 425 7 discriminator 1 view .LVU303
 978 005e B3F1804F 		cmp	r3, #1073741824
 979 0062 09D0     		beq	.L62
 980              		.loc 1 425 7 discriminator 2 view .LVU304
 981 0064 A2F59432 		sub	r2, r2, #75776
 982 0068 9342     		cmp	r3, r2
 983 006a 05D0     		beq	.L62
 984              		.loc 1 435 5 is_stmt 1 view .LVU305
 985 006c 1A68     		ldr	r2, [r3]
 986 006e 42F00102 		orr	r2, r2, #1
 987 0072 1A60     		str	r2, [r3]
ARM GAS  C:\Users\38164\AppData\Local\Temp\ccqIV1nl.s 			page 18


 988              		.loc 1 439 10 is_stmt 0 view .LVU306
 989 0074 0020     		movs	r0, #0
 990 0076 0BE0     		b	.L61
 991              	.L62:
 992              		.loc 1 427 5 is_stmt 1 view .LVU307
 993              		.loc 1 427 29 is_stmt 0 view .LVU308
 994 0078 9A68     		ldr	r2, [r3, #8]
 995              		.loc 1 427 13 view .LVU309
 996 007a 02F00702 		and	r2, r2, #7
 997              	.LVL65:
 998              		.loc 1 428 5 is_stmt 1 view .LVU310
 999              		.loc 1 428 8 is_stmt 0 view .LVU311
 1000 007e 062A     		cmp	r2, #6
 1001 0080 09D0     		beq	.L67
 1002              		.loc 1 430 7 is_stmt 1 view .LVU312
 1003 0082 1A68     		ldr	r2, [r3]
 1004              	.LVL66:
 1005              		.loc 1 430 7 is_stmt 0 view .LVU313
 1006 0084 42F00102 		orr	r2, r2, #1
 1007 0088 1A60     		str	r2, [r3]
 1008              		.loc 1 439 10 view .LVU314
 1009 008a 0020     		movs	r0, #0
 1010 008c 00E0     		b	.L61
 1011              	.LVL67:
 1012              	.L64:
 1013              		.loc 1 408 12 view .LVU315
 1014 008e 0120     		movs	r0, #1
 1015              	.LVL68:
 1016              	.L61:
 1017              		.loc 1 440 1 view .LVU316
 1018 0090 10BD     		pop	{r4, pc}
 1019              	.LVL69:
 1020              	.L65:
 1021              		.loc 1 408 12 view .LVU317
 1022 0092 1846     		mov	r0, r3
 1023              	.LVL70:
 1024              		.loc 1 408 12 view .LVU318
 1025 0094 FCE7     		b	.L61
 1026              	.LVL71:
 1027              	.L67:
 1028              		.loc 1 439 10 view .LVU319
 1029 0096 0020     		movs	r0, #0
 1030 0098 FAE7     		b	.L61
 1031              	.L71:
 1032 009a 00BF     		.align	2
 1033              	.L70:
 1034 009c 00000000 		.word	TIM_CCxChannelCmd
 1035 00a0 002C0140 		.word	1073818624
 1036              		.cfi_endproc
 1037              	.LFE71:
 1039              		.section	.text.HAL_TIMEx_HallSensor_Stop_IT,"ax",%progbits
 1040              		.align	1
 1041              		.global	HAL_TIMEx_HallSensor_Stop_IT
 1042              		.syntax unified
 1043              		.thumb
 1044              		.thumb_func
 1045              		.fpu softvfp
ARM GAS  C:\Users\38164\AppData\Local\Temp\ccqIV1nl.s 			page 19


 1047              	HAL_TIMEx_HallSensor_Stop_IT:
 1048              	.LVL72:
 1049              	.LFB72:
 1050              		.loc 1 448 1 is_stmt 1 view -0
 1051              		.cfi_startproc
 1052              		@ args = 0, pretend = 0, frame = 0
 1053              		@ frame_needed = 0, uses_anonymous_args = 0
 1054              		.loc 1 448 1 is_stmt 0 view .LVU321
 1055 0000 10B5     		push	{r4, lr}
 1056              	.LCFI13:
 1057              		.cfi_def_cfa_offset 8
 1058              		.cfi_offset 4, -8
 1059              		.cfi_offset 14, -4
 1060 0002 0446     		mov	r4, r0
 1061              		.loc 1 450 3 is_stmt 1 view .LVU322
 1062              		.loc 1 454 3 view .LVU323
 1063 0004 0022     		movs	r2, #0
 1064 0006 1146     		mov	r1, r2
 1065 0008 0068     		ldr	r0, [r0]
 1066              	.LVL73:
 1067              		.loc 1 454 3 is_stmt 0 view .LVU324
 1068 000a 104B     		ldr	r3, .L75
 1069 000c 9847     		blx	r3
 1070              	.LVL74:
 1071              		.loc 1 457 3 is_stmt 1 view .LVU325
 1072 000e 2268     		ldr	r2, [r4]
 1073 0010 D368     		ldr	r3, [r2, #12]
 1074 0012 23F00203 		bic	r3, r3, #2
 1075 0016 D360     		str	r3, [r2, #12]
 1076              		.loc 1 460 3 view .LVU326
 1077              		.loc 1 460 3 view .LVU327
 1078 0018 2368     		ldr	r3, [r4]
 1079 001a 196A     		ldr	r1, [r3, #32]
 1080 001c 41F21112 		movw	r2, #4369
 1081 0020 1142     		tst	r1, r2
 1082 0022 08D1     		bne	.L73
 1083              		.loc 1 460 3 discriminator 1 view .LVU328
 1084 0024 196A     		ldr	r1, [r3, #32]
 1085 0026 40F24442 		movw	r2, #1092
 1086 002a 1142     		tst	r1, r2
 1087 002c 03D1     		bne	.L73
 1088              		.loc 1 460 3 discriminator 3 view .LVU329
 1089 002e 1A68     		ldr	r2, [r3]
 1090 0030 22F00102 		bic	r2, r2, #1
 1091 0034 1A60     		str	r2, [r3]
 1092              	.L73:
 1093              		.loc 1 460 3 discriminator 5 view .LVU330
 1094              		.loc 1 463 3 discriminator 5 view .LVU331
 1095 0036 0123     		movs	r3, #1
 1096 0038 84F83E30 		strb	r3, [r4, #62]
 1097              		.loc 1 464 3 discriminator 5 view .LVU332
 1098 003c 84F83F30 		strb	r3, [r4, #63]
 1099              		.loc 1 465 3 discriminator 5 view .LVU333
 1100 0040 84F84230 		strb	r3, [r4, #66]
 1101              		.loc 1 466 3 discriminator 5 view .LVU334
 1102 0044 84F84330 		strb	r3, [r4, #67]
 1103              		.loc 1 469 3 discriminator 5 view .LVU335
ARM GAS  C:\Users\38164\AppData\Local\Temp\ccqIV1nl.s 			page 20


 1104              		.loc 1 470 1 is_stmt 0 discriminator 5 view .LVU336
 1105 0048 0020     		movs	r0, #0
 1106 004a 10BD     		pop	{r4, pc}
 1107              	.LVL75:
 1108              	.L76:
 1109              		.loc 1 470 1 discriminator 5 view .LVU337
 1110              		.align	2
 1111              	.L75:
 1112 004c 00000000 		.word	TIM_CCxChannelCmd
 1113              		.cfi_endproc
 1114              	.LFE72:
 1116              		.section	.text.HAL_TIMEx_HallSensor_Start_DMA,"ax",%progbits
 1117              		.align	1
 1118              		.global	HAL_TIMEx_HallSensor_Start_DMA
 1119              		.syntax unified
 1120              		.thumb
 1121              		.thumb_func
 1122              		.fpu softvfp
 1124              	HAL_TIMEx_HallSensor_Start_DMA:
 1125              	.LVL76:
 1126              	.LFB73:
 1127              		.loc 1 480 1 is_stmt 1 view -0
 1128              		.cfi_startproc
 1129              		@ args = 0, pretend = 0, frame = 0
 1130              		@ frame_needed = 0, uses_anonymous_args = 0
 1131              		.loc 1 480 1 is_stmt 0 view .LVU339
 1132 0000 F8B5     		push	{r3, r4, r5, r6, r7, lr}
 1133              	.LCFI14:
 1134              		.cfi_def_cfa_offset 24
 1135              		.cfi_offset 3, -24
 1136              		.cfi_offset 4, -20
 1137              		.cfi_offset 5, -16
 1138              		.cfi_offset 6, -12
 1139              		.cfi_offset 7, -8
 1140              		.cfi_offset 14, -4
 1141 0002 0446     		mov	r4, r0
 1142              		.loc 1 481 3 is_stmt 1 view .LVU340
 1143              		.loc 1 482 3 view .LVU341
 1144              		.loc 1 482 31 is_stmt 0 view .LVU342
 1145 0004 90F83E30 		ldrb	r3, [r0, #62]	@ zero_extendqisi2
 1146 0008 D8B2     		uxtb	r0, r3
 1147              	.LVL77:
 1148              		.loc 1 483 3 is_stmt 1 view .LVU343
 1149              		.loc 1 483 31 is_stmt 0 view .LVU344
 1150 000a 94F84230 		ldrb	r3, [r4, #66]	@ zero_extendqisi2
 1151              	.LVL78:
 1152              		.loc 1 486 3 is_stmt 1 view .LVU345
 1153              		.loc 1 489 3 view .LVU346
 1154              		.loc 1 489 6 is_stmt 0 view .LVU347
 1155 000e 0228     		cmp	r0, #2
 1156 0010 4BD0     		beq	.L78
 1157 0012 0F46     		mov	r7, r1
 1158 0014 1646     		mov	r6, r2
 1159 0016 DDB2     		uxtb	r5, r3
 1160              		.loc 1 490 7 view .LVU348
 1161 0018 022D     		cmp	r5, #2
 1162 001a 43D0     		beq	.L82
ARM GAS  C:\Users\38164\AppData\Local\Temp\ccqIV1nl.s 			page 21


 1163              		.loc 1 494 8 is_stmt 1 view .LVU349
 1164              		.loc 1 494 11 is_stmt 0 view .LVU350
 1165 001c 0128     		cmp	r0, #1
 1166 001e 43D1     		bne	.L83
 1167              		.loc 1 495 12 view .LVU351
 1168 0020 012D     		cmp	r5, #1
 1169 0022 42D1     		bne	.L78
 1170              		.loc 1 497 5 is_stmt 1 view .LVU352
 1171              		.loc 1 497 8 is_stmt 0 view .LVU353
 1172 0024 0029     		cmp	r1, #0
 1173 0026 2FD0     		beq	.L87
 1174              	.L79:
 1175              		.loc 1 503 7 is_stmt 1 view .LVU354
 1176 0028 0223     		movs	r3, #2
 1177              	.LVL79:
 1178              		.loc 1 503 7 is_stmt 0 view .LVU355
 1179 002a 84F83E30 		strb	r3, [r4, #62]
 1180              		.loc 1 504 7 is_stmt 1 view .LVU356
 1181 002e 84F84230 		strb	r3, [r4, #66]
 1182              		.loc 1 514 3 view .LVU357
 1183 0032 0122     		movs	r2, #1
 1184              	.LVL80:
 1185              		.loc 1 514 3 is_stmt 0 view .LVU358
 1186 0034 0021     		movs	r1, #0
 1187              	.LVL81:
 1188              		.loc 1 514 3 view .LVU359
 1189 0036 2068     		ldr	r0, [r4]
 1190              	.LVL82:
 1191              		.loc 1 514 3 view .LVU360
 1192 0038 1D4B     		ldr	r3, .L88
 1193 003a 9847     		blx	r3
 1194              	.LVL83:
 1195              		.loc 1 517 3 is_stmt 1 view .LVU361
 1196              		.loc 1 517 13 is_stmt 0 view .LVU362
 1197 003c 636A     		ldr	r3, [r4, #36]
 1198              		.loc 1 517 48 view .LVU363
 1199 003e 1D4A     		ldr	r2, .L88+4
 1200 0040 9A62     		str	r2, [r3, #40]
 1201              		.loc 1 518 3 is_stmt 1 view .LVU364
 1202              		.loc 1 518 13 is_stmt 0 view .LVU365
 1203 0042 636A     		ldr	r3, [r4, #36]
 1204              		.loc 1 518 52 view .LVU366
 1205 0044 1C4A     		ldr	r2, .L88+8
 1206 0046 DA62     		str	r2, [r3, #44]
 1207              		.loc 1 520 3 is_stmt 1 view .LVU367
 1208              		.loc 1 520 13 is_stmt 0 view .LVU368
 1209 0048 636A     		ldr	r3, [r4, #36]
 1210              		.loc 1 520 49 view .LVU369
 1211 004a 1C4A     		ldr	r2, .L88+12
 1212 004c 1A63     		str	r2, [r3, #48]
 1213              		.loc 1 523 3 is_stmt 1 view .LVU370
 1214              		.loc 1 523 67 is_stmt 0 view .LVU371
 1215 004e 2168     		ldr	r1, [r4]
 1216              		.loc 1 523 7 view .LVU372
 1217 0050 3346     		mov	r3, r6
 1218 0052 3A46     		mov	r2, r7
 1219 0054 3431     		adds	r1, r1, #52
ARM GAS  C:\Users\38164\AppData\Local\Temp\ccqIV1nl.s 			page 22


 1220 0056 606A     		ldr	r0, [r4, #36]
 1221 0058 194E     		ldr	r6, .L88+16
 1222 005a B047     		blx	r6
 1223              	.LVL84:
 1224              		.loc 1 523 6 view .LVU373
 1225 005c 30BB     		cbnz	r0, .L85
 1226              		.loc 1 529 3 is_stmt 1 view .LVU374
 1227 005e 2268     		ldr	r2, [r4]
 1228 0060 D368     		ldr	r3, [r2, #12]
 1229 0062 43F40073 		orr	r3, r3, #512
 1230 0066 D360     		str	r3, [r2, #12]
 1231              		.loc 1 532 3 view .LVU375
 1232              		.loc 1 532 7 is_stmt 0 view .LVU376
 1233 0068 2368     		ldr	r3, [r4]
 1234              		.loc 1 532 6 view .LVU377
 1235 006a 164A     		ldr	r2, .L88+20
 1236 006c 9342     		cmp	r3, r2
 1237 006e 0FD0     		beq	.L80
 1238              		.loc 1 532 7 discriminator 1 view .LVU378
 1239 0070 B3F1804F 		cmp	r3, #1073741824
 1240 0074 0CD0     		beq	.L80
 1241              		.loc 1 532 7 discriminator 2 view .LVU379
 1242 0076 A2F59432 		sub	r2, r2, #75776
 1243 007a 9342     		cmp	r3, r2
 1244 007c 08D0     		beq	.L80
 1245              		.loc 1 542 5 is_stmt 1 view .LVU380
 1246 007e 1A68     		ldr	r2, [r3]
 1247 0080 42F00102 		orr	r2, r2, #1
 1248 0084 1A60     		str	r2, [r3]
 1249 0086 10E0     		b	.L78
 1250              	.LVL85:
 1251              	.L87:
 1252              		.loc 1 497 25 is_stmt 0 discriminator 1 view .LVU381
 1253 0088 002A     		cmp	r2, #0
 1254 008a CDD0     		beq	.L79
 1255              		.loc 1 499 14 view .LVU382
 1256 008c 2846     		mov	r0, r5
 1257              	.LVL86:
 1258              		.loc 1 499 14 view .LVU383
 1259 008e 0CE0     		b	.L78
 1260              	.LVL87:
 1261              	.L80:
 1262              		.loc 1 534 5 is_stmt 1 view .LVU384
 1263              		.loc 1 534 29 is_stmt 0 view .LVU385
 1264 0090 9A68     		ldr	r2, [r3, #8]
 1265              		.loc 1 534 13 view .LVU386
 1266 0092 02F00702 		and	r2, r2, #7
 1267              	.LVL88:
 1268              		.loc 1 535 5 is_stmt 1 view .LVU387
 1269              		.loc 1 535 8 is_stmt 0 view .LVU388
 1270 0096 062A     		cmp	r2, #6
 1271 0098 07D0     		beq	.L78
 1272              		.loc 1 537 7 is_stmt 1 view .LVU389
 1273 009a 1A68     		ldr	r2, [r3]
 1274              	.LVL89:
 1275              		.loc 1 537 7 is_stmt 0 view .LVU390
 1276 009c 42F00102 		orr	r2, r2, #1
ARM GAS  C:\Users\38164\AppData\Local\Temp\ccqIV1nl.s 			page 23


 1277 00a0 1A60     		str	r2, [r3]
 1278 00a2 02E0     		b	.L78
 1279              	.LVL90:
 1280              	.L82:
 1281              		.loc 1 492 12 view .LVU391
 1282 00a4 2846     		mov	r0, r5
 1283              	.LVL91:
 1284              		.loc 1 492 12 view .LVU392
 1285 00a6 00E0     		b	.L78
 1286              	.LVL92:
 1287              	.L83:
 1288              		.loc 1 509 12 view .LVU393
 1289 00a8 0120     		movs	r0, #1
 1290              	.LVL93:
 1291              	.L78:
 1292              		.loc 1 547 1 view .LVU394
 1293 00aa F8BD     		pop	{r3, r4, r5, r6, r7, pc}
 1294              	.LVL94:
 1295              	.L85:
 1296              		.loc 1 526 12 view .LVU395
 1297 00ac 2846     		mov	r0, r5
 1298 00ae FCE7     		b	.L78
 1299              	.L89:
 1300              		.align	2
 1301              	.L88:
 1302 00b0 00000000 		.word	TIM_CCxChannelCmd
 1303 00b4 00000000 		.word	TIM_DMACaptureCplt
 1304 00b8 00000000 		.word	TIM_DMACaptureHalfCplt
 1305 00bc 00000000 		.word	TIM_DMAError
 1306 00c0 00000000 		.word	HAL_DMA_Start_IT
 1307 00c4 002C0140 		.word	1073818624
 1308              		.cfi_endproc
 1309              	.LFE73:
 1311              		.section	.text.HAL_TIMEx_HallSensor_Stop_DMA,"ax",%progbits
 1312              		.align	1
 1313              		.global	HAL_TIMEx_HallSensor_Stop_DMA
 1314              		.syntax unified
 1315              		.thumb
 1316              		.thumb_func
 1317              		.fpu softvfp
 1319              	HAL_TIMEx_HallSensor_Stop_DMA:
 1320              	.LVL95:
 1321              	.LFB74:
 1322              		.loc 1 555 1 is_stmt 1 view -0
 1323              		.cfi_startproc
 1324              		@ args = 0, pretend = 0, frame = 0
 1325              		@ frame_needed = 0, uses_anonymous_args = 0
 1326              		.loc 1 555 1 is_stmt 0 view .LVU397
 1327 0000 10B5     		push	{r4, lr}
 1328              	.LCFI15:
 1329              		.cfi_def_cfa_offset 8
 1330              		.cfi_offset 4, -8
 1331              		.cfi_offset 14, -4
 1332 0002 0446     		mov	r4, r0
 1333              		.loc 1 557 3 is_stmt 1 view .LVU398
 1334              		.loc 1 561 3 view .LVU399
 1335 0004 0022     		movs	r2, #0
ARM GAS  C:\Users\38164\AppData\Local\Temp\ccqIV1nl.s 			page 24


 1336 0006 1146     		mov	r1, r2
 1337 0008 0068     		ldr	r0, [r0]
 1338              	.LVL96:
 1339              		.loc 1 561 3 is_stmt 0 view .LVU400
 1340 000a 104B     		ldr	r3, .L93
 1341 000c 9847     		blx	r3
 1342              	.LVL97:
 1343              		.loc 1 565 3 is_stmt 1 view .LVU401
 1344 000e 2268     		ldr	r2, [r4]
 1345 0010 D368     		ldr	r3, [r2, #12]
 1346 0012 23F40073 		bic	r3, r3, #512
 1347 0016 D360     		str	r3, [r2, #12]
 1348              		.loc 1 567 3 view .LVU402
 1349              		.loc 1 567 9 is_stmt 0 view .LVU403
 1350 0018 606A     		ldr	r0, [r4, #36]
 1351 001a 0D4B     		ldr	r3, .L93+4
 1352 001c 9847     		blx	r3
 1353              	.LVL98:
 1354              		.loc 1 570 3 is_stmt 1 view .LVU404
 1355              		.loc 1 570 3 view .LVU405
 1356 001e 2368     		ldr	r3, [r4]
 1357 0020 196A     		ldr	r1, [r3, #32]
 1358 0022 41F21112 		movw	r2, #4369
 1359 0026 1142     		tst	r1, r2
 1360 0028 08D1     		bne	.L91
 1361              		.loc 1 570 3 discriminator 1 view .LVU406
 1362 002a 196A     		ldr	r1, [r3, #32]
 1363 002c 40F24442 		movw	r2, #1092
 1364 0030 1142     		tst	r1, r2
 1365 0032 03D1     		bne	.L91
 1366              		.loc 1 570 3 discriminator 3 view .LVU407
 1367 0034 1A68     		ldr	r2, [r3]
 1368 0036 22F00102 		bic	r2, r2, #1
 1369 003a 1A60     		str	r2, [r3]
 1370              	.L91:
 1371              		.loc 1 570 3 discriminator 5 view .LVU408
 1372              		.loc 1 573 3 discriminator 5 view .LVU409
 1373 003c 0123     		movs	r3, #1
 1374 003e 84F83E30 		strb	r3, [r4, #62]
 1375              		.loc 1 574 3 discriminator 5 view .LVU410
 1376 0042 84F84230 		strb	r3, [r4, #66]
 1377              		.loc 1 577 3 discriminator 5 view .LVU411
 1378              		.loc 1 578 1 is_stmt 0 discriminator 5 view .LVU412
 1379 0046 0020     		movs	r0, #0
 1380 0048 10BD     		pop	{r4, pc}
 1381              	.LVL99:
 1382              	.L94:
 1383              		.loc 1 578 1 discriminator 5 view .LVU413
 1384 004a 00BF     		.align	2
 1385              	.L93:
 1386 004c 00000000 		.word	TIM_CCxChannelCmd
 1387 0050 00000000 		.word	HAL_DMA_Abort_IT
 1388              		.cfi_endproc
 1389              	.LFE74:
 1391              		.section	.text.HAL_TIMEx_OCN_Start,"ax",%progbits
 1392              		.align	1
 1393              		.global	HAL_TIMEx_OCN_Start
ARM GAS  C:\Users\38164\AppData\Local\Temp\ccqIV1nl.s 			page 25


 1394              		.syntax unified
 1395              		.thumb
 1396              		.thumb_func
 1397              		.fpu softvfp
 1399              	HAL_TIMEx_OCN_Start:
 1400              	.LVL100:
 1401              	.LFB75:
 1402              		.loc 1 616 1 is_stmt 1 view -0
 1403              		.cfi_startproc
 1404              		@ args = 0, pretend = 0, frame = 0
 1405              		@ frame_needed = 0, uses_anonymous_args = 0
 1406              		.loc 1 616 1 is_stmt 0 view .LVU415
 1407 0000 10B5     		push	{r4, lr}
 1408              	.LCFI16:
 1409              		.cfi_def_cfa_offset 8
 1410              		.cfi_offset 4, -8
 1411              		.cfi_offset 14, -4
 1412 0002 0446     		mov	r4, r0
 1413              		.loc 1 617 3 is_stmt 1 view .LVU416
 1414              		.loc 1 620 3 view .LVU417
 1415              		.loc 1 623 3 view .LVU418
 1416              		.loc 1 623 46 is_stmt 0 view .LVU419
 1417 0004 0846     		mov	r0, r1
 1418              	.LVL101:
 1419              		.loc 1 623 46 view .LVU420
 1420 0006 39BB     		cbnz	r1, .L96
 1421              		.loc 1 623 7 discriminator 1 view .LVU421
 1422 0008 94F84230 		ldrb	r3, [r4, #66]	@ zero_extendqisi2
 1423 000c DBB2     		uxtb	r3, r3
 1424              		.loc 1 623 46 discriminator 1 view .LVU422
 1425 000e 013B     		subs	r3, r3, #1
 1426 0010 18BF     		it	ne
 1427 0012 0123     		movne	r3, #1
 1428              	.L97:
 1429              		.loc 1 623 6 discriminator 12 view .LVU423
 1430 0014 002B     		cmp	r3, #0
 1431 0016 53D1     		bne	.L107
 1432              		.loc 1 629 3 is_stmt 1 view .LVU424
 1433 0018 0028     		cmp	r0, #0
 1434 001a 36D1     		bne	.L101
 1435              		.loc 1 629 3 is_stmt 0 discriminator 1 view .LVU425
 1436 001c 0223     		movs	r3, #2
 1437 001e 84F84230 		strb	r3, [r4, #66]
 1438              	.L102:
 1439              		.loc 1 632 3 is_stmt 1 view .LVU426
 1440 0022 0422     		movs	r2, #4
 1441 0024 0146     		mov	r1, r0
 1442              	.LVL102:
 1443              		.loc 1 632 3 is_stmt 0 view .LVU427
 1444 0026 2068     		ldr	r0, [r4]
 1445              	.LVL103:
 1446              		.loc 1 632 3 view .LVU428
 1447 0028 274B     		ldr	r3, .L114
 1448 002a 9847     		blx	r3
 1449              	.LVL104:
 1450              		.loc 1 635 3 is_stmt 1 view .LVU429
 1451 002c 2268     		ldr	r2, [r4]
ARM GAS  C:\Users\38164\AppData\Local\Temp\ccqIV1nl.s 			page 26


 1452 002e 536C     		ldr	r3, [r2, #68]
 1453 0030 43F40043 		orr	r3, r3, #32768
 1454 0034 5364     		str	r3, [r2, #68]
 1455              		.loc 1 638 3 view .LVU430
 1456              		.loc 1 638 7 is_stmt 0 view .LVU431
 1457 0036 2368     		ldr	r3, [r4]
 1458              		.loc 1 638 6 view .LVU432
 1459 0038 244A     		ldr	r2, .L114+4
 1460 003a 9342     		cmp	r3, r2
 1461 003c 35D0     		beq	.L105
 1462              		.loc 1 638 7 discriminator 1 view .LVU433
 1463 003e B3F1804F 		cmp	r3, #1073741824
 1464 0042 32D0     		beq	.L105
 1465              		.loc 1 638 7 discriminator 2 view .LVU434
 1466 0044 A2F59432 		sub	r2, r2, #75776
 1467 0048 9342     		cmp	r3, r2
 1468 004a 2ED0     		beq	.L105
 1469              		.loc 1 648 5 is_stmt 1 view .LVU435
 1470 004c 1A68     		ldr	r2, [r3]
 1471 004e 42F00102 		orr	r2, r2, #1
 1472 0052 1A60     		str	r2, [r3]
 1473              		.loc 1 652 10 is_stmt 0 view .LVU436
 1474 0054 0020     		movs	r0, #0
 1475 0056 34E0     		b	.L100
 1476              	.LVL105:
 1477              	.L96:
 1478              		.loc 1 623 46 discriminator 2 view .LVU437
 1479 0058 0429     		cmp	r1, #4
 1480 005a 08D0     		beq	.L110
 1481              		.loc 1 623 46 discriminator 5 view .LVU438
 1482 005c 0829     		cmp	r1, #8
 1483 005e 0DD0     		beq	.L111
 1484              		.loc 1 623 7 discriminator 8 view .LVU439
 1485 0060 94F84530 		ldrb	r3, [r4, #69]	@ zero_extendqisi2
 1486 0064 DBB2     		uxtb	r3, r3
 1487              		.loc 1 623 46 discriminator 8 view .LVU440
 1488 0066 013B     		subs	r3, r3, #1
 1489 0068 18BF     		it	ne
 1490 006a 0123     		movne	r3, #1
 1491 006c D2E7     		b	.L97
 1492              	.L110:
 1493              		.loc 1 623 7 discriminator 4 view .LVU441
 1494 006e 94F84330 		ldrb	r3, [r4, #67]	@ zero_extendqisi2
 1495 0072 DBB2     		uxtb	r3, r3
 1496              		.loc 1 623 46 discriminator 4 view .LVU442
 1497 0074 013B     		subs	r3, r3, #1
 1498 0076 18BF     		it	ne
 1499 0078 0123     		movne	r3, #1
 1500 007a CBE7     		b	.L97
 1501              	.L111:
 1502              		.loc 1 623 7 discriminator 7 view .LVU443
 1503 007c 94F84430 		ldrb	r3, [r4, #68]	@ zero_extendqisi2
 1504 0080 DBB2     		uxtb	r3, r3
 1505              		.loc 1 623 46 discriminator 7 view .LVU444
 1506 0082 013B     		subs	r3, r3, #1
 1507 0084 18BF     		it	ne
 1508 0086 0123     		movne	r3, #1
ARM GAS  C:\Users\38164\AppData\Local\Temp\ccqIV1nl.s 			page 27


 1509 0088 C4E7     		b	.L97
 1510              	.L101:
 1511              		.loc 1 629 3 discriminator 2 view .LVU445
 1512 008a 0428     		cmp	r0, #4
 1513 008c 05D0     		beq	.L112
 1514              		.loc 1 629 3 discriminator 4 view .LVU446
 1515 008e 0828     		cmp	r0, #8
 1516 0090 07D0     		beq	.L113
 1517              		.loc 1 629 3 discriminator 7 view .LVU447
 1518 0092 0223     		movs	r3, #2
 1519 0094 84F84530 		strb	r3, [r4, #69]
 1520 0098 C3E7     		b	.L102
 1521              	.L112:
 1522              		.loc 1 629 3 discriminator 3 view .LVU448
 1523 009a 0223     		movs	r3, #2
 1524 009c 84F84330 		strb	r3, [r4, #67]
 1525 00a0 BFE7     		b	.L102
 1526              	.L113:
 1527              		.loc 1 629 3 discriminator 6 view .LVU449
 1528 00a2 0223     		movs	r3, #2
 1529 00a4 84F84430 		strb	r3, [r4, #68]
 1530 00a8 BBE7     		b	.L102
 1531              	.LVL106:
 1532              	.L105:
 1533              		.loc 1 640 5 is_stmt 1 view .LVU450
 1534              		.loc 1 640 29 is_stmt 0 view .LVU451
 1535 00aa 9A68     		ldr	r2, [r3, #8]
 1536              		.loc 1 640 13 view .LVU452
 1537 00ac 02F00702 		and	r2, r2, #7
 1538              	.LVL107:
 1539              		.loc 1 641 5 is_stmt 1 view .LVU453
 1540              		.loc 1 641 8 is_stmt 0 view .LVU454
 1541 00b0 062A     		cmp	r2, #6
 1542 00b2 07D0     		beq	.L108
 1543              		.loc 1 643 7 is_stmt 1 view .LVU455
 1544 00b4 1A68     		ldr	r2, [r3]
 1545              	.LVL108:
 1546              		.loc 1 643 7 is_stmt 0 view .LVU456
 1547 00b6 42F00102 		orr	r2, r2, #1
 1548 00ba 1A60     		str	r2, [r3]
 1549              		.loc 1 652 10 view .LVU457
 1550 00bc 0020     		movs	r0, #0
 1551 00be 00E0     		b	.L100
 1552              	.LVL109:
 1553              	.L107:
 1554              		.loc 1 625 12 view .LVU458
 1555 00c0 0120     		movs	r0, #1
 1556              	.LVL110:
 1557              	.L100:
 1558              		.loc 1 653 1 view .LVU459
 1559 00c2 10BD     		pop	{r4, pc}
 1560              	.LVL111:
 1561              	.L108:
 1562              		.loc 1 652 10 view .LVU460
 1563 00c4 0020     		movs	r0, #0
 1564 00c6 FCE7     		b	.L100
 1565              	.L115:
ARM GAS  C:\Users\38164\AppData\Local\Temp\ccqIV1nl.s 			page 28


 1566              		.align	2
 1567              	.L114:
 1568 00c8 00000000 		.word	TIM_CCxNChannelCmd
 1569 00cc 002C0140 		.word	1073818624
 1570              		.cfi_endproc
 1571              	.LFE75:
 1573              		.section	.text.HAL_TIMEx_OCN_Stop,"ax",%progbits
 1574              		.align	1
 1575              		.global	HAL_TIMEx_OCN_Stop
 1576              		.syntax unified
 1577              		.thumb
 1578              		.thumb_func
 1579              		.fpu softvfp
 1581              	HAL_TIMEx_OCN_Stop:
 1582              	.LVL112:
 1583              	.LFB76:
 1584              		.loc 1 667 1 is_stmt 1 view -0
 1585              		.cfi_startproc
 1586              		@ args = 0, pretend = 0, frame = 0
 1587              		@ frame_needed = 0, uses_anonymous_args = 0
 1588              		.loc 1 667 1 is_stmt 0 view .LVU462
 1589 0000 38B5     		push	{r3, r4, r5, lr}
 1590              	.LCFI17:
 1591              		.cfi_def_cfa_offset 16
 1592              		.cfi_offset 3, -16
 1593              		.cfi_offset 4, -12
 1594              		.cfi_offset 5, -8
 1595              		.cfi_offset 14, -4
 1596 0002 0446     		mov	r4, r0
 1597 0004 0D46     		mov	r5, r1
 1598              		.loc 1 669 3 is_stmt 1 view .LVU463
 1599              		.loc 1 672 3 view .LVU464
 1600 0006 0022     		movs	r2, #0
 1601 0008 0068     		ldr	r0, [r0]
 1602              	.LVL113:
 1603              		.loc 1 672 3 is_stmt 0 view .LVU465
 1604 000a 1B4B     		ldr	r3, .L126
 1605 000c 9847     		blx	r3
 1606              	.LVL114:
 1607              		.loc 1 675 3 is_stmt 1 view .LVU466
 1608              		.loc 1 675 3 view .LVU467
 1609 000e 2368     		ldr	r3, [r4]
 1610 0010 196A     		ldr	r1, [r3, #32]
 1611 0012 41F21112 		movw	r2, #4369
 1612 0016 1142     		tst	r1, r2
 1613 0018 08D1     		bne	.L117
 1614              		.loc 1 675 3 discriminator 1 view .LVU468
 1615 001a 196A     		ldr	r1, [r3, #32]
 1616 001c 40F24442 		movw	r2, #1092
 1617 0020 1142     		tst	r1, r2
 1618 0022 03D1     		bne	.L117
 1619              		.loc 1 675 3 discriminator 3 view .LVU469
 1620 0024 5A6C     		ldr	r2, [r3, #68]
 1621 0026 22F40042 		bic	r2, r2, #32768
 1622 002a 5A64     		str	r2, [r3, #68]
 1623              	.L117:
 1624              		.loc 1 675 3 discriminator 5 view .LVU470
ARM GAS  C:\Users\38164\AppData\Local\Temp\ccqIV1nl.s 			page 29


 1625              		.loc 1 678 3 discriminator 5 view .LVU471
 1626              		.loc 1 678 3 discriminator 5 view .LVU472
 1627 002c 2368     		ldr	r3, [r4]
 1628 002e 196A     		ldr	r1, [r3, #32]
 1629 0030 41F21112 		movw	r2, #4369
 1630 0034 1142     		tst	r1, r2
 1631 0036 08D1     		bne	.L118
 1632              		.loc 1 678 3 discriminator 1 view .LVU473
 1633 0038 196A     		ldr	r1, [r3, #32]
 1634 003a 40F24442 		movw	r2, #1092
 1635 003e 1142     		tst	r1, r2
 1636 0040 03D1     		bne	.L118
 1637              		.loc 1 678 3 discriminator 3 view .LVU474
 1638 0042 1A68     		ldr	r2, [r3]
 1639 0044 22F00102 		bic	r2, r2, #1
 1640 0048 1A60     		str	r2, [r3]
 1641              	.L118:
 1642              		.loc 1 678 3 discriminator 5 view .LVU475
 1643              		.loc 1 681 3 discriminator 5 view .LVU476
 1644 004a 25B9     		cbnz	r5, .L119
 1645              		.loc 1 681 3 is_stmt 0 discriminator 1 view .LVU477
 1646 004c 0123     		movs	r3, #1
 1647 004e 84F84230 		strb	r3, [r4, #66]
 1648              	.L120:
 1649              		.loc 1 684 3 is_stmt 1 view .LVU478
 1650              		.loc 1 685 1 is_stmt 0 view .LVU479
 1651 0052 0020     		movs	r0, #0
 1652 0054 38BD     		pop	{r3, r4, r5, pc}
 1653              	.LVL115:
 1654              	.L119:
 1655              		.loc 1 681 3 discriminator 2 view .LVU480
 1656 0056 042D     		cmp	r5, #4
 1657 0058 05D0     		beq	.L124
 1658              		.loc 1 681 3 discriminator 4 view .LVU481
 1659 005a 082D     		cmp	r5, #8
 1660 005c 07D0     		beq	.L125
 1661              		.loc 1 681 3 discriminator 7 view .LVU482
 1662 005e 0123     		movs	r3, #1
 1663 0060 84F84530 		strb	r3, [r4, #69]
 1664 0064 F5E7     		b	.L120
 1665              	.L124:
 1666              		.loc 1 681 3 discriminator 3 view .LVU483
 1667 0066 0123     		movs	r3, #1
 1668 0068 84F84330 		strb	r3, [r4, #67]
 1669 006c F1E7     		b	.L120
 1670              	.L125:
 1671              		.loc 1 681 3 discriminator 6 view .LVU484
 1672 006e 0123     		movs	r3, #1
 1673 0070 84F84430 		strb	r3, [r4, #68]
 1674 0074 EDE7     		b	.L120
 1675              	.L127:
 1676 0076 00BF     		.align	2
 1677              	.L126:
 1678 0078 00000000 		.word	TIM_CCxNChannelCmd
 1679              		.cfi_endproc
 1680              	.LFE76:
 1682              		.section	.text.HAL_TIMEx_OCN_Start_IT,"ax",%progbits
ARM GAS  C:\Users\38164\AppData\Local\Temp\ccqIV1nl.s 			page 30


 1683              		.align	1
 1684              		.global	HAL_TIMEx_OCN_Start_IT
 1685              		.syntax unified
 1686              		.thumb
 1687              		.thumb_func
 1688              		.fpu softvfp
 1690              	HAL_TIMEx_OCN_Start_IT:
 1691              	.LVL116:
 1692              	.LFB77:
 1693              		.loc 1 699 1 is_stmt 1 view -0
 1694              		.cfi_startproc
 1695              		@ args = 0, pretend = 0, frame = 0
 1696              		@ frame_needed = 0, uses_anonymous_args = 0
 1697              		.loc 1 699 1 is_stmt 0 view .LVU486
 1698 0000 10B5     		push	{r4, lr}
 1699              	.LCFI18:
 1700              		.cfi_def_cfa_offset 8
 1701              		.cfi_offset 4, -8
 1702              		.cfi_offset 14, -4
 1703 0002 0446     		mov	r4, r0
 1704              		.loc 1 700 3 is_stmt 1 view .LVU487
 1705              		.loc 1 703 3 view .LVU488
 1706              		.loc 1 706 3 view .LVU489
 1707              		.loc 1 706 46 is_stmt 0 view .LVU490
 1708 0004 0846     		mov	r0, r1
 1709              	.LVL117:
 1710              		.loc 1 706 46 view .LVU491
 1711 0006 0029     		cmp	r1, #0
 1712 0008 32D1     		bne	.L129
 1713              		.loc 1 706 7 discriminator 1 view .LVU492
 1714 000a 94F84230 		ldrb	r3, [r4, #66]	@ zero_extendqisi2
 1715 000e DBB2     		uxtb	r3, r3
 1716              		.loc 1 706 46 discriminator 1 view .LVU493
 1717 0010 013B     		subs	r3, r3, #1
 1718 0012 18BF     		it	ne
 1719 0014 0123     		movne	r3, #1
 1720              	.L130:
 1721              		.loc 1 706 6 discriminator 12 view .LVU494
 1722 0016 002B     		cmp	r3, #0
 1723 0018 70D1     		bne	.L143
 1724              		.loc 1 712 3 is_stmt 1 view .LVU495
 1725 001a 0028     		cmp	r0, #0
 1726 001c 41D1     		bne	.L134
 1727              		.loc 1 712 3 is_stmt 0 discriminator 1 view .LVU496
 1728 001e 0223     		movs	r3, #2
 1729 0020 84F84230 		strb	r3, [r4, #66]
 1730              	.L135:
 1731              		.loc 1 714 3 is_stmt 1 view .LVU497
 1732 0024 0428     		cmp	r0, #4
 1733 0026 52D0     		beq	.L138
 1734 0028 0828     		cmp	r0, #8
 1735 002a 56D0     		beq	.L139
 1736 002c 0028     		cmp	r0, #0
 1737 002e 48D0     		beq	.L146
 1738              	.L140:
 1739              		.loc 1 743 3 view .LVU498
 1740 0030 2268     		ldr	r2, [r4]
ARM GAS  C:\Users\38164\AppData\Local\Temp\ccqIV1nl.s 			page 31


 1741 0032 D368     		ldr	r3, [r2, #12]
 1742 0034 43F08003 		orr	r3, r3, #128
 1743 0038 D360     		str	r3, [r2, #12]
 1744              		.loc 1 746 3 view .LVU499
 1745 003a 0422     		movs	r2, #4
 1746 003c 0146     		mov	r1, r0
 1747              	.LVL118:
 1748              		.loc 1 746 3 is_stmt 0 view .LVU500
 1749 003e 2068     		ldr	r0, [r4]
 1750              	.LVL119:
 1751              		.loc 1 746 3 view .LVU501
 1752 0040 304B     		ldr	r3, .L151
 1753 0042 9847     		blx	r3
 1754              	.LVL120:
 1755              		.loc 1 749 3 is_stmt 1 view .LVU502
 1756 0044 2268     		ldr	r2, [r4]
 1757 0046 536C     		ldr	r3, [r2, #68]
 1758 0048 43F40043 		orr	r3, r3, #32768
 1759 004c 5364     		str	r3, [r2, #68]
 1760              		.loc 1 752 3 view .LVU503
 1761              		.loc 1 752 7 is_stmt 0 view .LVU504
 1762 004e 2368     		ldr	r3, [r4]
 1763              		.loc 1 752 6 view .LVU505
 1764 0050 2D4A     		ldr	r2, .L151+4
 1765 0052 9342     		cmp	r3, r2
 1766 0054 47D0     		beq	.L141
 1767              		.loc 1 752 7 discriminator 1 view .LVU506
 1768 0056 B3F1804F 		cmp	r3, #1073741824
 1769 005a 44D0     		beq	.L141
 1770              		.loc 1 752 7 discriminator 2 view .LVU507
 1771 005c A2F59432 		sub	r2, r2, #75776
 1772 0060 9342     		cmp	r3, r2
 1773 0062 40D0     		beq	.L141
 1774              		.loc 1 762 5 is_stmt 1 view .LVU508
 1775 0064 1A68     		ldr	r2, [r3]
 1776 0066 42F00102 		orr	r2, r2, #1
 1777 006a 1A60     		str	r2, [r3]
 1778              		.loc 1 766 10 is_stmt 0 view .LVU509
 1779 006c 0020     		movs	r0, #0
 1780 006e 46E0     		b	.L133
 1781              	.LVL121:
 1782              	.L129:
 1783              		.loc 1 706 46 discriminator 2 view .LVU510
 1784 0070 0429     		cmp	r1, #4
 1785 0072 08D0     		beq	.L147
 1786              		.loc 1 706 46 discriminator 5 view .LVU511
 1787 0074 0829     		cmp	r1, #8
 1788 0076 0DD0     		beq	.L148
 1789              		.loc 1 706 7 discriminator 8 view .LVU512
 1790 0078 94F84530 		ldrb	r3, [r4, #69]	@ zero_extendqisi2
 1791 007c DBB2     		uxtb	r3, r3
 1792              		.loc 1 706 46 discriminator 8 view .LVU513
 1793 007e 013B     		subs	r3, r3, #1
 1794 0080 18BF     		it	ne
 1795 0082 0123     		movne	r3, #1
 1796 0084 C7E7     		b	.L130
 1797              	.L147:
ARM GAS  C:\Users\38164\AppData\Local\Temp\ccqIV1nl.s 			page 32


 1798              		.loc 1 706 7 discriminator 4 view .LVU514
 1799 0086 94F84330 		ldrb	r3, [r4, #67]	@ zero_extendqisi2
 1800 008a DBB2     		uxtb	r3, r3
 1801              		.loc 1 706 46 discriminator 4 view .LVU515
 1802 008c 013B     		subs	r3, r3, #1
 1803 008e 18BF     		it	ne
 1804 0090 0123     		movne	r3, #1
 1805 0092 C0E7     		b	.L130
 1806              	.L148:
 1807              		.loc 1 706 7 discriminator 7 view .LVU516
 1808 0094 94F84430 		ldrb	r3, [r4, #68]	@ zero_extendqisi2
 1809 0098 DBB2     		uxtb	r3, r3
 1810              		.loc 1 706 46 discriminator 7 view .LVU517
 1811 009a 013B     		subs	r3, r3, #1
 1812 009c 18BF     		it	ne
 1813 009e 0123     		movne	r3, #1
 1814 00a0 B9E7     		b	.L130
 1815              	.L134:
 1816              		.loc 1 712 3 discriminator 2 view .LVU518
 1817 00a2 0428     		cmp	r0, #4
 1818 00a4 05D0     		beq	.L149
 1819              		.loc 1 712 3 discriminator 4 view .LVU519
 1820 00a6 0828     		cmp	r0, #8
 1821 00a8 07D0     		beq	.L150
 1822              		.loc 1 712 3 discriminator 7 view .LVU520
 1823 00aa 0223     		movs	r3, #2
 1824 00ac 84F84530 		strb	r3, [r4, #69]
 1825 00b0 B8E7     		b	.L135
 1826              	.L149:
 1827              		.loc 1 712 3 discriminator 3 view .LVU521
 1828 00b2 0223     		movs	r3, #2
 1829 00b4 84F84330 		strb	r3, [r4, #67]
 1830 00b8 B4E7     		b	.L135
 1831              	.L150:
 1832              		.loc 1 712 3 discriminator 6 view .LVU522
 1833 00ba 0223     		movs	r3, #2
 1834 00bc 84F84430 		strb	r3, [r4, #68]
 1835 00c0 B0E7     		b	.L135
 1836              	.L146:
 1837              		.loc 1 719 7 is_stmt 1 view .LVU523
 1838 00c2 2268     		ldr	r2, [r4]
 1839 00c4 D368     		ldr	r3, [r2, #12]
 1840 00c6 43F00203 		orr	r3, r3, #2
 1841 00ca D360     		str	r3, [r2, #12]
 1842              		.loc 1 720 7 view .LVU524
 1843 00cc B0E7     		b	.L140
 1844              	.L138:
 1845              		.loc 1 726 7 view .LVU525
 1846 00ce 2268     		ldr	r2, [r4]
 1847 00d0 D368     		ldr	r3, [r2, #12]
 1848 00d2 43F00403 		orr	r3, r3, #4
 1849 00d6 D360     		str	r3, [r2, #12]
 1850              		.loc 1 727 7 view .LVU526
 1851 00d8 AAE7     		b	.L140
 1852              	.L139:
 1853              		.loc 1 733 7 view .LVU527
 1854 00da 2268     		ldr	r2, [r4]
ARM GAS  C:\Users\38164\AppData\Local\Temp\ccqIV1nl.s 			page 33


 1855 00dc D368     		ldr	r3, [r2, #12]
 1856 00de 43F00803 		orr	r3, r3, #8
 1857 00e2 D360     		str	r3, [r2, #12]
 1858              		.loc 1 734 7 view .LVU528
 1859 00e4 A4E7     		b	.L140
 1860              	.LVL122:
 1861              	.L141:
 1862              		.loc 1 754 5 view .LVU529
 1863              		.loc 1 754 29 is_stmt 0 view .LVU530
 1864 00e6 9A68     		ldr	r2, [r3, #8]
 1865              		.loc 1 754 13 view .LVU531
 1866 00e8 02F00702 		and	r2, r2, #7
 1867              	.LVL123:
 1868              		.loc 1 755 5 is_stmt 1 view .LVU532
 1869              		.loc 1 755 8 is_stmt 0 view .LVU533
 1870 00ec 062A     		cmp	r2, #6
 1871 00ee 07D0     		beq	.L144
 1872              		.loc 1 757 7 is_stmt 1 view .LVU534
 1873 00f0 1A68     		ldr	r2, [r3]
 1874              	.LVL124:
 1875              		.loc 1 757 7 is_stmt 0 view .LVU535
 1876 00f2 42F00102 		orr	r2, r2, #1
 1877 00f6 1A60     		str	r2, [r3]
 1878              		.loc 1 766 10 view .LVU536
 1879 00f8 0020     		movs	r0, #0
 1880 00fa 00E0     		b	.L133
 1881              	.LVL125:
 1882              	.L143:
 1883              		.loc 1 708 12 view .LVU537
 1884 00fc 0120     		movs	r0, #1
 1885              	.LVL126:
 1886              	.L133:
 1887              		.loc 1 767 1 view .LVU538
 1888 00fe 10BD     		pop	{r4, pc}
 1889              	.LVL127:
 1890              	.L144:
 1891              		.loc 1 766 10 view .LVU539
 1892 0100 0020     		movs	r0, #0
 1893 0102 FCE7     		b	.L133
 1894              	.L152:
 1895              		.align	2
 1896              	.L151:
 1897 0104 00000000 		.word	TIM_CCxNChannelCmd
 1898 0108 002C0140 		.word	1073818624
 1899              		.cfi_endproc
 1900              	.LFE77:
 1902              		.section	.text.HAL_TIMEx_OCN_Stop_IT,"ax",%progbits
 1903              		.align	1
 1904              		.global	HAL_TIMEx_OCN_Stop_IT
 1905              		.syntax unified
 1906              		.thumb
 1907              		.thumb_func
 1908              		.fpu softvfp
 1910              	HAL_TIMEx_OCN_Stop_IT:
 1911              	.LVL128:
 1912              	.LFB78:
 1913              		.loc 1 781 1 is_stmt 1 view -0
ARM GAS  C:\Users\38164\AppData\Local\Temp\ccqIV1nl.s 			page 34


 1914              		.cfi_startproc
 1915              		@ args = 0, pretend = 0, frame = 0
 1916              		@ frame_needed = 0, uses_anonymous_args = 0
 1917              		.loc 1 781 1 is_stmt 0 view .LVU541
 1918 0000 38B5     		push	{r3, r4, r5, lr}
 1919              	.LCFI19:
 1920              		.cfi_def_cfa_offset 16
 1921              		.cfi_offset 3, -16
 1922              		.cfi_offset 4, -12
 1923              		.cfi_offset 5, -8
 1924              		.cfi_offset 14, -4
 1925 0002 0546     		mov	r5, r0
 1926 0004 0C46     		mov	r4, r1
 1927              		.loc 1 782 3 is_stmt 1 view .LVU542
 1928              		.loc 1 784 3 view .LVU543
 1929              		.loc 1 786 3 view .LVU544
 1930 0006 0429     		cmp	r1, #4
 1931 0008 3CD0     		beq	.L154
 1932 000a 0829     		cmp	r1, #8
 1933 000c 40D0     		beq	.L155
 1934 000e 0029     		cmp	r1, #0
 1935 0010 32D0     		beq	.L165
 1936              	.L156:
 1937              		.loc 1 814 3 view .LVU545
 1938 0012 0022     		movs	r2, #0
 1939 0014 2146     		mov	r1, r4
 1940              	.LVL129:
 1941              		.loc 1 814 3 is_stmt 0 view .LVU546
 1942 0016 2868     		ldr	r0, [r5]
 1943              	.LVL130:
 1944              		.loc 1 814 3 view .LVU547
 1945 0018 284B     		ldr	r3, .L168
 1946 001a 9847     		blx	r3
 1947              	.LVL131:
 1948              		.loc 1 817 3 is_stmt 1 view .LVU548
 1949              		.loc 1 817 17 is_stmt 0 view .LVU549
 1950 001c 2B68     		ldr	r3, [r5]
 1951              		.loc 1 817 11 view .LVU550
 1952 001e 196A     		ldr	r1, [r3, #32]
 1953              	.LVL132:
 1954              		.loc 1 818 3 is_stmt 1 view .LVU551
 1955              		.loc 1 818 6 is_stmt 0 view .LVU552
 1956 0020 40F24442 		movw	r2, #1092
 1957 0024 1142     		tst	r1, r2
 1958 0026 03D1     		bne	.L157
 1959              		.loc 1 820 5 is_stmt 1 view .LVU553
 1960 0028 DA68     		ldr	r2, [r3, #12]
 1961 002a 22F08002 		bic	r2, r2, #128
 1962 002e DA60     		str	r2, [r3, #12]
 1963              	.L157:
 1964              		.loc 1 824 3 view .LVU554
 1965              		.loc 1 824 3 view .LVU555
 1966 0030 2B68     		ldr	r3, [r5]
 1967 0032 196A     		ldr	r1, [r3, #32]
 1968              	.LVL133:
 1969              		.loc 1 824 3 is_stmt 0 view .LVU556
 1970 0034 41F21112 		movw	r2, #4369
ARM GAS  C:\Users\38164\AppData\Local\Temp\ccqIV1nl.s 			page 35


 1971 0038 1142     		tst	r1, r2
 1972 003a 08D1     		bne	.L158
 1973              		.loc 1 824 3 is_stmt 1 discriminator 1 view .LVU557
 1974 003c 196A     		ldr	r1, [r3, #32]
 1975 003e 40F24442 		movw	r2, #1092
 1976 0042 1142     		tst	r1, r2
 1977 0044 03D1     		bne	.L158
 1978              		.loc 1 824 3 discriminator 3 view .LVU558
 1979 0046 5A6C     		ldr	r2, [r3, #68]
 1980 0048 22F40042 		bic	r2, r2, #32768
 1981 004c 5A64     		str	r2, [r3, #68]
 1982              	.L158:
 1983              		.loc 1 824 3 discriminator 5 view .LVU559
 1984              		.loc 1 827 3 discriminator 5 view .LVU560
 1985              		.loc 1 827 3 discriminator 5 view .LVU561
 1986 004e 2B68     		ldr	r3, [r5]
 1987 0050 196A     		ldr	r1, [r3, #32]
 1988 0052 41F21112 		movw	r2, #4369
 1989 0056 1142     		tst	r1, r2
 1990 0058 08D1     		bne	.L159
 1991              		.loc 1 827 3 discriminator 1 view .LVU562
 1992 005a 196A     		ldr	r1, [r3, #32]
 1993 005c 40F24442 		movw	r2, #1092
 1994 0060 1142     		tst	r1, r2
 1995 0062 03D1     		bne	.L159
 1996              		.loc 1 827 3 discriminator 3 view .LVU563
 1997 0064 1A68     		ldr	r2, [r3]
 1998 0066 22F00102 		bic	r2, r2, #1
 1999 006a 1A60     		str	r2, [r3]
 2000              	.L159:
 2001              		.loc 1 827 3 discriminator 5 view .LVU564
 2002              		.loc 1 830 3 discriminator 5 view .LVU565
 2003 006c B4B9     		cbnz	r4, .L160
 2004              		.loc 1 830 3 is_stmt 0 discriminator 1 view .LVU566
 2005 006e 0123     		movs	r3, #1
 2006 0070 85F84230 		strb	r3, [r5, #66]
 2007              	.L161:
 2008              		.loc 1 833 3 is_stmt 1 view .LVU567
 2009              		.loc 1 834 1 is_stmt 0 view .LVU568
 2010 0074 0020     		movs	r0, #0
 2011 0076 38BD     		pop	{r3, r4, r5, pc}
 2012              	.LVL134:
 2013              	.L165:
 2014              		.loc 1 791 7 is_stmt 1 view .LVU569
 2015 0078 0268     		ldr	r2, [r0]
 2016 007a D368     		ldr	r3, [r2, #12]
 2017 007c 23F00203 		bic	r3, r3, #2
 2018 0080 D360     		str	r3, [r2, #12]
 2019              		.loc 1 792 7 view .LVU570
 2020 0082 C6E7     		b	.L156
 2021              	.L154:
 2022              		.loc 1 798 7 view .LVU571
 2023 0084 0268     		ldr	r2, [r0]
 2024 0086 D368     		ldr	r3, [r2, #12]
 2025 0088 23F00403 		bic	r3, r3, #4
 2026 008c D360     		str	r3, [r2, #12]
 2027              		.loc 1 799 7 view .LVU572
ARM GAS  C:\Users\38164\AppData\Local\Temp\ccqIV1nl.s 			page 36


 2028 008e C0E7     		b	.L156
 2029              	.L155:
 2030              		.loc 1 805 7 view .LVU573
 2031 0090 0268     		ldr	r2, [r0]
 2032 0092 D368     		ldr	r3, [r2, #12]
 2033 0094 23F00803 		bic	r3, r3, #8
 2034 0098 D360     		str	r3, [r2, #12]
 2035              		.loc 1 806 7 view .LVU574
 2036 009a BAE7     		b	.L156
 2037              	.LVL135:
 2038              	.L160:
 2039              		.loc 1 830 3 is_stmt 0 discriminator 2 view .LVU575
 2040 009c 042C     		cmp	r4, #4
 2041 009e 05D0     		beq	.L166
 2042              		.loc 1 830 3 discriminator 4 view .LVU576
 2043 00a0 082C     		cmp	r4, #8
 2044 00a2 07D0     		beq	.L167
 2045              		.loc 1 830 3 discriminator 7 view .LVU577
 2046 00a4 0123     		movs	r3, #1
 2047 00a6 85F84530 		strb	r3, [r5, #69]
 2048 00aa E3E7     		b	.L161
 2049              	.L166:
 2050              		.loc 1 830 3 discriminator 3 view .LVU578
 2051 00ac 0123     		movs	r3, #1
 2052 00ae 85F84330 		strb	r3, [r5, #67]
 2053 00b2 DFE7     		b	.L161
 2054              	.L167:
 2055              		.loc 1 830 3 discriminator 6 view .LVU579
 2056 00b4 0123     		movs	r3, #1
 2057 00b6 85F84430 		strb	r3, [r5, #68]
 2058 00ba DBE7     		b	.L161
 2059              	.L169:
 2060              		.align	2
 2061              	.L168:
 2062 00bc 00000000 		.word	TIM_CCxNChannelCmd
 2063              		.cfi_endproc
 2064              	.LFE78:
 2066              		.section	.text.HAL_TIMEx_OCN_Start_DMA,"ax",%progbits
 2067              		.align	1
 2068              		.global	HAL_TIMEx_OCN_Start_DMA
 2069              		.syntax unified
 2070              		.thumb
 2071              		.thumb_func
 2072              		.fpu softvfp
 2074              	HAL_TIMEx_OCN_Start_DMA:
 2075              	.LVL136:
 2076              	.LFB79:
 2077              		.loc 1 850 1 is_stmt 1 view -0
 2078              		.cfi_startproc
 2079              		@ args = 0, pretend = 0, frame = 0
 2080              		@ frame_needed = 0, uses_anonymous_args = 0
 2081              		.loc 1 850 1 is_stmt 0 view .LVU581
 2082 0000 70B5     		push	{r4, r5, r6, lr}
 2083              	.LCFI20:
 2084              		.cfi_def_cfa_offset 16
 2085              		.cfi_offset 4, -16
 2086              		.cfi_offset 5, -12
ARM GAS  C:\Users\38164\AppData\Local\Temp\ccqIV1nl.s 			page 37


 2087              		.cfi_offset 6, -8
 2088              		.cfi_offset 14, -4
 2089 0002 0446     		mov	r4, r0
 2090 0004 1646     		mov	r6, r2
 2091              		.loc 1 851 3 is_stmt 1 view .LVU582
 2092              		.loc 1 854 3 view .LVU583
 2093              		.loc 1 857 3 view .LVU584
 2094              		.loc 1 857 46 is_stmt 0 view .LVU585
 2095 0006 0D46     		mov	r5, r1
 2096 0008 0029     		cmp	r1, #0
 2097 000a 42D1     		bne	.L171
 2098              		.loc 1 857 7 discriminator 1 view .LVU586
 2099 000c 90F84200 		ldrb	r0, [r0, #66]	@ zero_extendqisi2
 2100              	.LVL137:
 2101              		.loc 1 857 7 discriminator 1 view .LVU587
 2102 0010 C0B2     		uxtb	r0, r0
 2103              		.loc 1 857 46 discriminator 1 view .LVU588
 2104 0012 0228     		cmp	r0, #2
 2105 0014 14BF     		ite	ne
 2106 0016 0020     		movne	r0, #0
 2107 0018 0120     		moveq	r0, #1
 2108              	.L172:
 2109              		.loc 1 857 6 discriminator 12 view .LVU589
 2110 001a 0028     		cmp	r0, #0
 2111 001c 40F0D480 		bne	.L190
 2112              		.loc 1 861 8 is_stmt 1 view .LVU590
 2113              		.loc 1 861 51 is_stmt 0 view .LVU591
 2114 0020 002D     		cmp	r5, #0
 2115 0022 52D1     		bne	.L176
 2116              		.loc 1 861 12 discriminator 1 view .LVU592
 2117 0024 94F84220 		ldrb	r2, [r4, #66]	@ zero_extendqisi2
 2118              	.LVL138:
 2119              		.loc 1 861 12 discriminator 1 view .LVU593
 2120 0028 D2B2     		uxtb	r2, r2
 2121              		.loc 1 861 51 discriminator 1 view .LVU594
 2122 002a 012A     		cmp	r2, #1
 2123 002c 14BF     		ite	ne
 2124 002e 0022     		movne	r2, #0
 2125 0030 0122     		moveq	r2, #1
 2126              	.L177:
 2127              		.loc 1 861 11 discriminator 12 view .LVU595
 2128 0032 002A     		cmp	r2, #0
 2129 0034 00F0CA80 		beq	.L191
 2130              		.loc 1 863 5 is_stmt 1 view .LVU596
 2131              		.loc 1 863 8 is_stmt 0 view .LVU597
 2132 0038 002E     		cmp	r6, #0
 2133 003a 62D0     		beq	.L198
 2134              	.L180:
 2135              		.loc 1 869 7 is_stmt 1 view .LVU598
 2136 003c 002D     		cmp	r5, #0
 2137 003e 64D1     		bne	.L181
 2138              		.loc 1 869 7 is_stmt 0 discriminator 1 view .LVU599
 2139 0040 0222     		movs	r2, #2
 2140 0042 84F84220 		strb	r2, [r4, #66]
 2141              	.L182:
 2142              		.loc 1 877 3 is_stmt 1 view .LVU600
 2143 0046 042D     		cmp	r5, #4
ARM GAS  C:\Users\38164\AppData\Local\Temp\ccqIV1nl.s 			page 38


 2144 0048 00F08680 		beq	.L185
 2145 004c 082D     		cmp	r5, #8
 2146 004e 00F09A80 		beq	.L186
 2147 0052 002D     		cmp	r5, #0
 2148 0054 69D0     		beq	.L199
 2149              	.LVL139:
 2150              	.L187:
 2151              		.loc 1 944 3 view .LVU601
 2152 0056 0422     		movs	r2, #4
 2153 0058 2946     		mov	r1, r5
 2154 005a 2068     		ldr	r0, [r4]
 2155 005c 604B     		ldr	r3, .L206
 2156 005e 9847     		blx	r3
 2157              	.LVL140:
 2158              		.loc 1 947 3 view .LVU602
 2159 0060 2268     		ldr	r2, [r4]
 2160 0062 536C     		ldr	r3, [r2, #68]
 2161 0064 43F40043 		orr	r3, r3, #32768
 2162 0068 5364     		str	r3, [r2, #68]
 2163              		.loc 1 950 3 view .LVU603
 2164              		.loc 1 950 7 is_stmt 0 view .LVU604
 2165 006a 2368     		ldr	r3, [r4]
 2166              		.loc 1 950 6 view .LVU605
 2167 006c 5D4A     		ldr	r2, .L206+4
 2168 006e 9342     		cmp	r3, r2
 2169 0070 00F09F80 		beq	.L188
 2170              		.loc 1 950 7 discriminator 1 view .LVU606
 2171 0074 B3F1804F 		cmp	r3, #1073741824
 2172 0078 00F09B80 		beq	.L188
 2173              		.loc 1 950 7 discriminator 2 view .LVU607
 2174 007c A2F59432 		sub	r2, r2, #75776
 2175 0080 9342     		cmp	r3, r2
 2176 0082 00F09680 		beq	.L188
 2177              		.loc 1 960 5 is_stmt 1 view .LVU608
 2178 0086 1A68     		ldr	r2, [r3]
 2179 0088 42F00102 		orr	r2, r2, #1
 2180 008c 1A60     		str	r2, [r3]
 2181              		.loc 1 964 10 is_stmt 0 view .LVU609
 2182 008e 0020     		movs	r0, #0
 2183 0090 9DE0     		b	.L175
 2184              	.LVL141:
 2185              	.L171:
 2186              		.loc 1 857 46 discriminator 2 view .LVU610
 2187 0092 0429     		cmp	r1, #4
 2188 0094 09D0     		beq	.L200
 2189              		.loc 1 857 46 discriminator 5 view .LVU611
 2190 0096 0829     		cmp	r1, #8
 2191 0098 0FD0     		beq	.L201
 2192              		.loc 1 857 7 discriminator 8 view .LVU612
 2193 009a 90F84500 		ldrb	r0, [r0, #69]	@ zero_extendqisi2
 2194              	.LVL142:
 2195              		.loc 1 857 7 discriminator 8 view .LVU613
 2196 009e C0B2     		uxtb	r0, r0
 2197              		.loc 1 857 46 discriminator 8 view .LVU614
 2198 00a0 0228     		cmp	r0, #2
 2199 00a2 14BF     		ite	ne
 2200 00a4 0020     		movne	r0, #0
ARM GAS  C:\Users\38164\AppData\Local\Temp\ccqIV1nl.s 			page 39


 2201 00a6 0120     		moveq	r0, #1
 2202 00a8 B7E7     		b	.L172
 2203              	.LVL143:
 2204              	.L200:
 2205              		.loc 1 857 7 discriminator 4 view .LVU615
 2206 00aa 90F84300 		ldrb	r0, [r0, #67]	@ zero_extendqisi2
 2207              	.LVL144:
 2208              		.loc 1 857 7 discriminator 4 view .LVU616
 2209 00ae C0B2     		uxtb	r0, r0
 2210              		.loc 1 857 46 discriminator 4 view .LVU617
 2211 00b0 0228     		cmp	r0, #2
 2212 00b2 14BF     		ite	ne
 2213 00b4 0020     		movne	r0, #0
 2214 00b6 0120     		moveq	r0, #1
 2215 00b8 AFE7     		b	.L172
 2216              	.LVL145:
 2217              	.L201:
 2218              		.loc 1 857 7 discriminator 7 view .LVU618
 2219 00ba 90F84400 		ldrb	r0, [r0, #68]	@ zero_extendqisi2
 2220              	.LVL146:
 2221              		.loc 1 857 7 discriminator 7 view .LVU619
 2222 00be C0B2     		uxtb	r0, r0
 2223              		.loc 1 857 46 discriminator 7 view .LVU620
 2224 00c0 0228     		cmp	r0, #2
 2225 00c2 14BF     		ite	ne
 2226 00c4 0020     		movne	r0, #0
 2227 00c6 0120     		moveq	r0, #1
 2228 00c8 A7E7     		b	.L172
 2229              	.L176:
 2230              		.loc 1 861 51 discriminator 2 view .LVU621
 2231 00ca 042D     		cmp	r5, #4
 2232 00cc 09D0     		beq	.L202
 2233              		.loc 1 861 51 discriminator 5 view .LVU622
 2234 00ce 082D     		cmp	r5, #8
 2235 00d0 0FD0     		beq	.L203
 2236              		.loc 1 861 12 discriminator 8 view .LVU623
 2237 00d2 94F84520 		ldrb	r2, [r4, #69]	@ zero_extendqisi2
 2238              	.LVL147:
 2239              		.loc 1 861 12 discriminator 8 view .LVU624
 2240 00d6 D2B2     		uxtb	r2, r2
 2241              		.loc 1 861 51 discriminator 8 view .LVU625
 2242 00d8 012A     		cmp	r2, #1
 2243 00da 14BF     		ite	ne
 2244 00dc 0022     		movne	r2, #0
 2245 00de 0122     		moveq	r2, #1
 2246 00e0 A7E7     		b	.L177
 2247              	.LVL148:
 2248              	.L202:
 2249              		.loc 1 861 12 discriminator 4 view .LVU626
 2250 00e2 94F84320 		ldrb	r2, [r4, #67]	@ zero_extendqisi2
 2251              	.LVL149:
 2252              		.loc 1 861 12 discriminator 4 view .LVU627
 2253 00e6 D2B2     		uxtb	r2, r2
 2254              		.loc 1 861 51 discriminator 4 view .LVU628
 2255 00e8 012A     		cmp	r2, #1
 2256 00ea 14BF     		ite	ne
 2257 00ec 0022     		movne	r2, #0
ARM GAS  C:\Users\38164\AppData\Local\Temp\ccqIV1nl.s 			page 40


 2258 00ee 0122     		moveq	r2, #1
 2259 00f0 9FE7     		b	.L177
 2260              	.LVL150:
 2261              	.L203:
 2262              		.loc 1 861 12 discriminator 7 view .LVU629
 2263 00f2 94F84420 		ldrb	r2, [r4, #68]	@ zero_extendqisi2
 2264              	.LVL151:
 2265              		.loc 1 861 12 discriminator 7 view .LVU630
 2266 00f6 D2B2     		uxtb	r2, r2
 2267              		.loc 1 861 51 discriminator 7 view .LVU631
 2268 00f8 012A     		cmp	r2, #1
 2269 00fa 14BF     		ite	ne
 2270 00fc 0022     		movne	r2, #0
 2271 00fe 0122     		moveq	r2, #1
 2272 0100 97E7     		b	.L177
 2273              	.L198:
 2274              		.loc 1 863 25 discriminator 1 view .LVU632
 2275 0102 002B     		cmp	r3, #0
 2276 0104 9AD0     		beq	.L180
 2277              		.loc 1 865 14 view .LVU633
 2278 0106 0120     		movs	r0, #1
 2279 0108 61E0     		b	.L175
 2280              	.L181:
 2281              		.loc 1 869 7 discriminator 2 view .LVU634
 2282 010a 042D     		cmp	r5, #4
 2283 010c 05D0     		beq	.L204
 2284              		.loc 1 869 7 discriminator 4 view .LVU635
 2285 010e 082D     		cmp	r5, #8
 2286 0110 07D0     		beq	.L205
 2287              		.loc 1 869 7 discriminator 7 view .LVU636
 2288 0112 0222     		movs	r2, #2
 2289 0114 84F84520 		strb	r2, [r4, #69]
 2290 0118 95E7     		b	.L182
 2291              	.L204:
 2292              		.loc 1 869 7 discriminator 3 view .LVU637
 2293 011a 0222     		movs	r2, #2
 2294 011c 84F84320 		strb	r2, [r4, #67]
 2295 0120 91E7     		b	.L182
 2296              	.L205:
 2297              		.loc 1 869 7 discriminator 6 view .LVU638
 2298 0122 0222     		movs	r2, #2
 2299 0124 84F84420 		strb	r2, [r4, #68]
 2300 0128 8DE7     		b	.L182
 2301              	.L199:
 2302              		.loc 1 882 7 is_stmt 1 view .LVU639
 2303              		.loc 1 882 17 is_stmt 0 view .LVU640
 2304 012a 626A     		ldr	r2, [r4, #36]
 2305              		.loc 1 882 52 view .LVU641
 2306 012c 2E49     		ldr	r1, .L206+8
 2307              	.LVL152:
 2308              		.loc 1 882 52 view .LVU642
 2309 012e 9162     		str	r1, [r2, #40]
 2310              		.loc 1 883 7 is_stmt 1 view .LVU643
 2311              		.loc 1 883 17 is_stmt 0 view .LVU644
 2312 0130 626A     		ldr	r2, [r4, #36]
 2313              		.loc 1 883 56 view .LVU645
 2314 0132 2E49     		ldr	r1, .L206+12
ARM GAS  C:\Users\38164\AppData\Local\Temp\ccqIV1nl.s 			page 41


 2315 0134 D162     		str	r1, [r2, #44]
 2316              		.loc 1 886 7 is_stmt 1 view .LVU646
 2317              		.loc 1 886 17 is_stmt 0 view .LVU647
 2318 0136 626A     		ldr	r2, [r4, #36]
 2319              		.loc 1 886 53 view .LVU648
 2320 0138 2D49     		ldr	r1, .L206+16
 2321 013a 1163     		str	r1, [r2, #48]
 2322              		.loc 1 889 7 is_stmt 1 view .LVU649
 2323              		.loc 1 889 88 is_stmt 0 view .LVU650
 2324 013c 2268     		ldr	r2, [r4]
 2325              		.loc 1 889 11 view .LVU651
 2326 013e 3432     		adds	r2, r2, #52
 2327 0140 3146     		mov	r1, r6
 2328 0142 606A     		ldr	r0, [r4, #36]
 2329 0144 2B4E     		ldr	r6, .L206+20
 2330              	.LVL153:
 2331              		.loc 1 889 11 view .LVU652
 2332 0146 B047     		blx	r6
 2333              	.LVL154:
 2334              		.loc 1 889 10 view .LVU653
 2335 0148 0028     		cmp	r0, #0
 2336 014a 41D1     		bne	.L193
 2337              		.loc 1 895 7 is_stmt 1 view .LVU654
 2338 014c 2268     		ldr	r2, [r4]
 2339 014e D368     		ldr	r3, [r2, #12]
 2340 0150 43F40073 		orr	r3, r3, #512
 2341 0154 D360     		str	r3, [r2, #12]
 2342              		.loc 1 896 7 view .LVU655
 2343 0156 7EE7     		b	.L187
 2344              	.LVL155:
 2345              	.L185:
 2346              		.loc 1 902 7 view .LVU656
 2347              		.loc 1 902 17 is_stmt 0 view .LVU657
 2348 0158 A26A     		ldr	r2, [r4, #40]
 2349              		.loc 1 902 52 view .LVU658
 2350 015a 2349     		ldr	r1, .L206+8
 2351              	.LVL156:
 2352              		.loc 1 902 52 view .LVU659
 2353 015c 9162     		str	r1, [r2, #40]
 2354              		.loc 1 903 7 is_stmt 1 view .LVU660
 2355              		.loc 1 903 17 is_stmt 0 view .LVU661
 2356 015e A26A     		ldr	r2, [r4, #40]
 2357              		.loc 1 903 56 view .LVU662
 2358 0160 2249     		ldr	r1, .L206+12
 2359 0162 D162     		str	r1, [r2, #44]
 2360              		.loc 1 906 7 is_stmt 1 view .LVU663
 2361              		.loc 1 906 17 is_stmt 0 view .LVU664
 2362 0164 A26A     		ldr	r2, [r4, #40]
 2363              		.loc 1 906 53 view .LVU665
 2364 0166 2249     		ldr	r1, .L206+16
 2365 0168 1163     		str	r1, [r2, #48]
 2366              		.loc 1 909 7 is_stmt 1 view .LVU666
 2367              		.loc 1 909 88 is_stmt 0 view .LVU667
 2368 016a 2268     		ldr	r2, [r4]
 2369              		.loc 1 909 11 view .LVU668
 2370 016c 3832     		adds	r2, r2, #56
 2371 016e 3146     		mov	r1, r6
ARM GAS  C:\Users\38164\AppData\Local\Temp\ccqIV1nl.s 			page 42


 2372 0170 A06A     		ldr	r0, [r4, #40]
 2373 0172 204E     		ldr	r6, .L206+20
 2374              	.LVL157:
 2375              		.loc 1 909 11 view .LVU669
 2376 0174 B047     		blx	r6
 2377              	.LVL158:
 2378              		.loc 1 909 10 view .LVU670
 2379 0176 0028     		cmp	r0, #0
 2380 0178 2CD1     		bne	.L194
 2381              		.loc 1 915 7 is_stmt 1 view .LVU671
 2382 017a 2268     		ldr	r2, [r4]
 2383 017c D368     		ldr	r3, [r2, #12]
 2384 017e 43F48063 		orr	r3, r3, #1024
 2385 0182 D360     		str	r3, [r2, #12]
 2386              		.loc 1 916 7 view .LVU672
 2387 0184 67E7     		b	.L187
 2388              	.LVL159:
 2389              	.L186:
 2390              		.loc 1 922 7 view .LVU673
 2391              		.loc 1 922 17 is_stmt 0 view .LVU674
 2392 0186 E26A     		ldr	r2, [r4, #44]
 2393              		.loc 1 922 52 view .LVU675
 2394 0188 1749     		ldr	r1, .L206+8
 2395              	.LVL160:
 2396              		.loc 1 922 52 view .LVU676
 2397 018a 9162     		str	r1, [r2, #40]
 2398              		.loc 1 923 7 is_stmt 1 view .LVU677
 2399              		.loc 1 923 17 is_stmt 0 view .LVU678
 2400 018c E26A     		ldr	r2, [r4, #44]
 2401              		.loc 1 923 56 view .LVU679
 2402 018e 1749     		ldr	r1, .L206+12
 2403 0190 D162     		str	r1, [r2, #44]
 2404              		.loc 1 926 7 is_stmt 1 view .LVU680
 2405              		.loc 1 926 17 is_stmt 0 view .LVU681
 2406 0192 E26A     		ldr	r2, [r4, #44]
 2407              		.loc 1 926 53 view .LVU682
 2408 0194 1649     		ldr	r1, .L206+16
 2409 0196 1163     		str	r1, [r2, #48]
 2410              		.loc 1 929 7 is_stmt 1 view .LVU683
 2411              		.loc 1 929 88 is_stmt 0 view .LVU684
 2412 0198 2268     		ldr	r2, [r4]
 2413              		.loc 1 929 11 view .LVU685
 2414 019a 3C32     		adds	r2, r2, #60
 2415 019c 3146     		mov	r1, r6
 2416 019e E06A     		ldr	r0, [r4, #44]
 2417 01a0 144E     		ldr	r6, .L206+20
 2418              	.LVL161:
 2419              		.loc 1 929 11 view .LVU686
 2420 01a2 B047     		blx	r6
 2421              	.LVL162:
 2422              		.loc 1 929 10 view .LVU687
 2423 01a4 C0B9     		cbnz	r0, .L195
 2424              		.loc 1 935 7 is_stmt 1 view .LVU688
 2425 01a6 2268     		ldr	r2, [r4]
 2426 01a8 D368     		ldr	r3, [r2, #12]
 2427 01aa 43F40063 		orr	r3, r3, #2048
 2428 01ae D360     		str	r3, [r2, #12]
ARM GAS  C:\Users\38164\AppData\Local\Temp\ccqIV1nl.s 			page 43


 2429              		.loc 1 936 7 view .LVU689
 2430 01b0 51E7     		b	.L187
 2431              	.L188:
 2432              		.loc 1 952 5 view .LVU690
 2433              		.loc 1 952 29 is_stmt 0 view .LVU691
 2434 01b2 9A68     		ldr	r2, [r3, #8]
 2435              		.loc 1 952 13 view .LVU692
 2436 01b4 02F00702 		and	r2, r2, #7
 2437              	.LVL163:
 2438              		.loc 1 953 5 is_stmt 1 view .LVU693
 2439              		.loc 1 953 8 is_stmt 0 view .LVU694
 2440 01b8 062A     		cmp	r2, #6
 2441 01ba 0FD0     		beq	.L196
 2442              		.loc 1 955 7 is_stmt 1 view .LVU695
 2443 01bc 1A68     		ldr	r2, [r3]
 2444              	.LVL164:
 2445              		.loc 1 955 7 is_stmt 0 view .LVU696
 2446 01be 42F00102 		orr	r2, r2, #1
 2447 01c2 1A60     		str	r2, [r3]
 2448              		.loc 1 964 10 view .LVU697
 2449 01c4 0020     		movs	r0, #0
 2450 01c6 02E0     		b	.L175
 2451              	.LVL165:
 2452              	.L190:
 2453              		.loc 1 859 12 view .LVU698
 2454 01c8 0220     		movs	r0, #2
 2455 01ca 00E0     		b	.L175
 2456              	.LVL166:
 2457              	.L191:
 2458              		.loc 1 874 12 view .LVU699
 2459 01cc 0120     		movs	r0, #1
 2460              	.LVL167:
 2461              	.L175:
 2462              		.loc 1 965 1 view .LVU700
 2463 01ce 70BD     		pop	{r4, r5, r6, pc}
 2464              	.LVL168:
 2465              	.L193:
 2466              		.loc 1 892 16 view .LVU701
 2467 01d0 0120     		movs	r0, #1
 2468 01d2 FCE7     		b	.L175
 2469              	.L194:
 2470              		.loc 1 912 16 view .LVU702
 2471 01d4 0120     		movs	r0, #1
 2472 01d6 FAE7     		b	.L175
 2473              	.L195:
 2474              		.loc 1 932 16 view .LVU703
 2475 01d8 0120     		movs	r0, #1
 2476 01da F8E7     		b	.L175
 2477              	.LVL169:
 2478              	.L196:
 2479              		.loc 1 964 10 view .LVU704
 2480 01dc 0020     		movs	r0, #0
 2481 01de F6E7     		b	.L175
 2482              	.L207:
 2483              		.align	2
 2484              	.L206:
 2485 01e0 00000000 		.word	TIM_CCxNChannelCmd
ARM GAS  C:\Users\38164\AppData\Local\Temp\ccqIV1nl.s 			page 44


 2486 01e4 002C0140 		.word	1073818624
 2487 01e8 00000000 		.word	TIM_DMADelayPulseNCplt
 2488 01ec 00000000 		.word	TIM_DMADelayPulseHalfCplt
 2489 01f0 00000000 		.word	TIM_DMAErrorCCxN
 2490 01f4 00000000 		.word	HAL_DMA_Start_IT
 2491              		.cfi_endproc
 2492              	.LFE79:
 2494              		.section	.text.HAL_TIMEx_OCN_Stop_DMA,"ax",%progbits
 2495              		.align	1
 2496              		.global	HAL_TIMEx_OCN_Stop_DMA
 2497              		.syntax unified
 2498              		.thumb
 2499              		.thumb_func
 2500              		.fpu softvfp
 2502              	HAL_TIMEx_OCN_Stop_DMA:
 2503              	.LVL170:
 2504              	.LFB80:
 2505              		.loc 1 979 1 is_stmt 1 view -0
 2506              		.cfi_startproc
 2507              		@ args = 0, pretend = 0, frame = 0
 2508              		@ frame_needed = 0, uses_anonymous_args = 0
 2509              		.loc 1 979 1 is_stmt 0 view .LVU706
 2510 0000 38B5     		push	{r3, r4, r5, lr}
 2511              	.LCFI21:
 2512              		.cfi_def_cfa_offset 16
 2513              		.cfi_offset 3, -16
 2514              		.cfi_offset 4, -12
 2515              		.cfi_offset 5, -8
 2516              		.cfi_offset 14, -4
 2517 0002 0546     		mov	r5, r0
 2518 0004 0C46     		mov	r4, r1
 2519              		.loc 1 981 3 is_stmt 1 view .LVU707
 2520              		.loc 1 983 3 view .LVU708
 2521 0006 0429     		cmp	r1, #4
 2522 0008 34D0     		beq	.L209
 2523 000a 0829     		cmp	r1, #8
 2524 000c 3BD0     		beq	.L210
 2525 000e 41B3     		cbz	r1, .L219
 2526              	.LVL171:
 2527              	.L211:
 2528              		.loc 1 1014 3 view .LVU709
 2529 0010 0022     		movs	r2, #0
 2530 0012 2146     		mov	r1, r4
 2531 0014 2868     		ldr	r0, [r5]
 2532 0016 284B     		ldr	r3, .L222
 2533 0018 9847     		blx	r3
 2534              	.LVL172:
 2535              		.loc 1 1017 3 view .LVU710
 2536              		.loc 1 1017 3 view .LVU711
 2537 001a 2B68     		ldr	r3, [r5]
 2538 001c 196A     		ldr	r1, [r3, #32]
 2539 001e 41F21112 		movw	r2, #4369
 2540 0022 1142     		tst	r1, r2
 2541 0024 08D1     		bne	.L212
 2542              		.loc 1 1017 3 discriminator 1 view .LVU712
 2543 0026 196A     		ldr	r1, [r3, #32]
 2544 0028 40F24442 		movw	r2, #1092
ARM GAS  C:\Users\38164\AppData\Local\Temp\ccqIV1nl.s 			page 45


 2545 002c 1142     		tst	r1, r2
 2546 002e 03D1     		bne	.L212
 2547              		.loc 1 1017 3 discriminator 3 view .LVU713
 2548 0030 5A6C     		ldr	r2, [r3, #68]
 2549 0032 22F40042 		bic	r2, r2, #32768
 2550 0036 5A64     		str	r2, [r3, #68]
 2551              	.L212:
 2552              		.loc 1 1017 3 discriminator 5 view .LVU714
 2553              		.loc 1 1020 3 discriminator 5 view .LVU715
 2554              		.loc 1 1020 3 discriminator 5 view .LVU716
 2555 0038 2B68     		ldr	r3, [r5]
 2556 003a 196A     		ldr	r1, [r3, #32]
 2557 003c 41F21112 		movw	r2, #4369
 2558 0040 1142     		tst	r1, r2
 2559 0042 08D1     		bne	.L213
 2560              		.loc 1 1020 3 discriminator 1 view .LVU717
 2561 0044 196A     		ldr	r1, [r3, #32]
 2562 0046 40F24442 		movw	r2, #1092
 2563 004a 1142     		tst	r1, r2
 2564 004c 03D1     		bne	.L213
 2565              		.loc 1 1020 3 discriminator 3 view .LVU718
 2566 004e 1A68     		ldr	r2, [r3]
 2567 0050 22F00102 		bic	r2, r2, #1
 2568 0054 1A60     		str	r2, [r3]
 2569              	.L213:
 2570              		.loc 1 1020 3 discriminator 5 view .LVU719
 2571              		.loc 1 1023 3 discriminator 5 view .LVU720
 2572 0056 FCB9     		cbnz	r4, .L214
 2573              		.loc 1 1023 3 is_stmt 0 discriminator 1 view .LVU721
 2574 0058 0123     		movs	r3, #1
 2575 005a 85F84230 		strb	r3, [r5, #66]
 2576              	.L215:
 2577              		.loc 1 1026 3 is_stmt 1 view .LVU722
 2578              		.loc 1 1027 1 is_stmt 0 view .LVU723
 2579 005e 0020     		movs	r0, #0
 2580 0060 38BD     		pop	{r3, r4, r5, pc}
 2581              	.LVL173:
 2582              	.L219:
 2583              		.loc 1 988 7 is_stmt 1 view .LVU724
 2584 0062 0268     		ldr	r2, [r0]
 2585 0064 D368     		ldr	r3, [r2, #12]
 2586 0066 23F40073 		bic	r3, r3, #512
 2587 006a D360     		str	r3, [r2, #12]
 2588              		.loc 1 989 7 view .LVU725
 2589              		.loc 1 989 13 is_stmt 0 view .LVU726
 2590 006c 406A     		ldr	r0, [r0, #36]
 2591              	.LVL174:
 2592              		.loc 1 989 13 view .LVU727
 2593 006e 134B     		ldr	r3, .L222+4
 2594 0070 9847     		blx	r3
 2595              	.LVL175:
 2596              		.loc 1 990 7 is_stmt 1 view .LVU728
 2597 0072 CDE7     		b	.L211
 2598              	.LVL176:
 2599              	.L209:
 2600              		.loc 1 996 7 view .LVU729
 2601 0074 0268     		ldr	r2, [r0]
ARM GAS  C:\Users\38164\AppData\Local\Temp\ccqIV1nl.s 			page 46


 2602 0076 D368     		ldr	r3, [r2, #12]
 2603 0078 23F48063 		bic	r3, r3, #1024
 2604 007c D360     		str	r3, [r2, #12]
 2605              		.loc 1 997 7 view .LVU730
 2606              		.loc 1 997 13 is_stmt 0 view .LVU731
 2607 007e 806A     		ldr	r0, [r0, #40]
 2608              	.LVL177:
 2609              		.loc 1 997 13 view .LVU732
 2610 0080 0E4B     		ldr	r3, .L222+4
 2611 0082 9847     		blx	r3
 2612              	.LVL178:
 2613              		.loc 1 998 7 is_stmt 1 view .LVU733
 2614 0084 C4E7     		b	.L211
 2615              	.LVL179:
 2616              	.L210:
 2617              		.loc 1 1004 7 view .LVU734
 2618 0086 0268     		ldr	r2, [r0]
 2619 0088 D368     		ldr	r3, [r2, #12]
 2620 008a 23F40063 		bic	r3, r3, #2048
 2621 008e D360     		str	r3, [r2, #12]
 2622              		.loc 1 1005 7 view .LVU735
 2623              		.loc 1 1005 13 is_stmt 0 view .LVU736
 2624 0090 C06A     		ldr	r0, [r0, #44]
 2625              	.LVL180:
 2626              		.loc 1 1005 13 view .LVU737
 2627 0092 0A4B     		ldr	r3, .L222+4
 2628 0094 9847     		blx	r3
 2629              	.LVL181:
 2630              		.loc 1 1006 7 is_stmt 1 view .LVU738
 2631 0096 BBE7     		b	.L211
 2632              	.L214:
 2633              		.loc 1 1023 3 is_stmt 0 discriminator 2 view .LVU739
 2634 0098 042C     		cmp	r4, #4
 2635 009a 05D0     		beq	.L220
 2636              		.loc 1 1023 3 discriminator 4 view .LVU740
 2637 009c 082C     		cmp	r4, #8
 2638 009e 07D0     		beq	.L221
 2639              		.loc 1 1023 3 discriminator 7 view .LVU741
 2640 00a0 0123     		movs	r3, #1
 2641 00a2 85F84530 		strb	r3, [r5, #69]
 2642 00a6 DAE7     		b	.L215
 2643              	.L220:
 2644              		.loc 1 1023 3 discriminator 3 view .LVU742
 2645 00a8 0123     		movs	r3, #1
 2646 00aa 85F84330 		strb	r3, [r5, #67]
 2647 00ae D6E7     		b	.L215
 2648              	.L221:
 2649              		.loc 1 1023 3 discriminator 6 view .LVU743
 2650 00b0 0123     		movs	r3, #1
 2651 00b2 85F84430 		strb	r3, [r5, #68]
 2652 00b6 D2E7     		b	.L215
 2653              	.L223:
 2654              		.align	2
 2655              	.L222:
 2656 00b8 00000000 		.word	TIM_CCxNChannelCmd
 2657 00bc 00000000 		.word	HAL_DMA_Abort_IT
 2658              		.cfi_endproc
ARM GAS  C:\Users\38164\AppData\Local\Temp\ccqIV1nl.s 			page 47


 2659              	.LFE80:
 2661              		.section	.text.HAL_TIMEx_PWMN_Start,"ax",%progbits
 2662              		.align	1
 2663              		.global	HAL_TIMEx_PWMN_Start
 2664              		.syntax unified
 2665              		.thumb
 2666              		.thumb_func
 2667              		.fpu softvfp
 2669              	HAL_TIMEx_PWMN_Start:
 2670              	.LVL182:
 2671              	.LFB81:
 2672              		.loc 1 1074 1 is_stmt 1 view -0
 2673              		.cfi_startproc
 2674              		@ args = 0, pretend = 0, frame = 0
 2675              		@ frame_needed = 0, uses_anonymous_args = 0
 2676              		.loc 1 1074 1 is_stmt 0 view .LVU745
 2677 0000 10B5     		push	{r4, lr}
 2678              	.LCFI22:
 2679              		.cfi_def_cfa_offset 8
 2680              		.cfi_offset 4, -8
 2681              		.cfi_offset 14, -4
 2682 0002 0446     		mov	r4, r0
 2683              		.loc 1 1075 3 is_stmt 1 view .LVU746
 2684              		.loc 1 1078 3 view .LVU747
 2685              		.loc 1 1081 3 view .LVU748
 2686              		.loc 1 1081 46 is_stmt 0 view .LVU749
 2687 0004 0846     		mov	r0, r1
 2688              	.LVL183:
 2689              		.loc 1 1081 46 view .LVU750
 2690 0006 39BB     		cbnz	r1, .L225
 2691              		.loc 1 1081 7 discriminator 1 view .LVU751
 2692 0008 94F84230 		ldrb	r3, [r4, #66]	@ zero_extendqisi2
 2693 000c DBB2     		uxtb	r3, r3
 2694              		.loc 1 1081 46 discriminator 1 view .LVU752
 2695 000e 013B     		subs	r3, r3, #1
 2696 0010 18BF     		it	ne
 2697 0012 0123     		movne	r3, #1
 2698              	.L226:
 2699              		.loc 1 1081 6 discriminator 12 view .LVU753
 2700 0014 002B     		cmp	r3, #0
 2701 0016 53D1     		bne	.L236
 2702              		.loc 1 1087 3 is_stmt 1 view .LVU754
 2703 0018 0028     		cmp	r0, #0
 2704 001a 36D1     		bne	.L230
 2705              		.loc 1 1087 3 is_stmt 0 discriminator 1 view .LVU755
 2706 001c 0223     		movs	r3, #2
 2707 001e 84F84230 		strb	r3, [r4, #66]
 2708              	.L231:
 2709              		.loc 1 1090 3 is_stmt 1 view .LVU756
 2710 0022 0422     		movs	r2, #4
 2711 0024 0146     		mov	r1, r0
 2712              	.LVL184:
 2713              		.loc 1 1090 3 is_stmt 0 view .LVU757
 2714 0026 2068     		ldr	r0, [r4]
 2715              	.LVL185:
 2716              		.loc 1 1090 3 view .LVU758
 2717 0028 274B     		ldr	r3, .L243
ARM GAS  C:\Users\38164\AppData\Local\Temp\ccqIV1nl.s 			page 48


 2718 002a 9847     		blx	r3
 2719              	.LVL186:
 2720              		.loc 1 1093 3 is_stmt 1 view .LVU759
 2721 002c 2268     		ldr	r2, [r4]
 2722 002e 536C     		ldr	r3, [r2, #68]
 2723 0030 43F40043 		orr	r3, r3, #32768
 2724 0034 5364     		str	r3, [r2, #68]
 2725              		.loc 1 1096 3 view .LVU760
 2726              		.loc 1 1096 7 is_stmt 0 view .LVU761
 2727 0036 2368     		ldr	r3, [r4]
 2728              		.loc 1 1096 6 view .LVU762
 2729 0038 244A     		ldr	r2, .L243+4
 2730 003a 9342     		cmp	r3, r2
 2731 003c 35D0     		beq	.L234
 2732              		.loc 1 1096 7 discriminator 1 view .LVU763
 2733 003e B3F1804F 		cmp	r3, #1073741824
 2734 0042 32D0     		beq	.L234
 2735              		.loc 1 1096 7 discriminator 2 view .LVU764
 2736 0044 A2F59432 		sub	r2, r2, #75776
 2737 0048 9342     		cmp	r3, r2
 2738 004a 2ED0     		beq	.L234
 2739              		.loc 1 1106 5 is_stmt 1 view .LVU765
 2740 004c 1A68     		ldr	r2, [r3]
 2741 004e 42F00102 		orr	r2, r2, #1
 2742 0052 1A60     		str	r2, [r3]
 2743              		.loc 1 1110 10 is_stmt 0 view .LVU766
 2744 0054 0020     		movs	r0, #0
 2745 0056 34E0     		b	.L229
 2746              	.LVL187:
 2747              	.L225:
 2748              		.loc 1 1081 46 discriminator 2 view .LVU767
 2749 0058 0429     		cmp	r1, #4
 2750 005a 08D0     		beq	.L239
 2751              		.loc 1 1081 46 discriminator 5 view .LVU768
 2752 005c 0829     		cmp	r1, #8
 2753 005e 0DD0     		beq	.L240
 2754              		.loc 1 1081 7 discriminator 8 view .LVU769
 2755 0060 94F84530 		ldrb	r3, [r4, #69]	@ zero_extendqisi2
 2756 0064 DBB2     		uxtb	r3, r3
 2757              		.loc 1 1081 46 discriminator 8 view .LVU770
 2758 0066 013B     		subs	r3, r3, #1
 2759 0068 18BF     		it	ne
 2760 006a 0123     		movne	r3, #1
 2761 006c D2E7     		b	.L226
 2762              	.L239:
 2763              		.loc 1 1081 7 discriminator 4 view .LVU771
 2764 006e 94F84330 		ldrb	r3, [r4, #67]	@ zero_extendqisi2
 2765 0072 DBB2     		uxtb	r3, r3
 2766              		.loc 1 1081 46 discriminator 4 view .LVU772
 2767 0074 013B     		subs	r3, r3, #1
 2768 0076 18BF     		it	ne
 2769 0078 0123     		movne	r3, #1
 2770 007a CBE7     		b	.L226
 2771              	.L240:
 2772              		.loc 1 1081 7 discriminator 7 view .LVU773
 2773 007c 94F84430 		ldrb	r3, [r4, #68]	@ zero_extendqisi2
 2774 0080 DBB2     		uxtb	r3, r3
ARM GAS  C:\Users\38164\AppData\Local\Temp\ccqIV1nl.s 			page 49


 2775              		.loc 1 1081 46 discriminator 7 view .LVU774
 2776 0082 013B     		subs	r3, r3, #1
 2777 0084 18BF     		it	ne
 2778 0086 0123     		movne	r3, #1
 2779 0088 C4E7     		b	.L226
 2780              	.L230:
 2781              		.loc 1 1087 3 discriminator 2 view .LVU775
 2782 008a 0428     		cmp	r0, #4
 2783 008c 05D0     		beq	.L241
 2784              		.loc 1 1087 3 discriminator 4 view .LVU776
 2785 008e 0828     		cmp	r0, #8
 2786 0090 07D0     		beq	.L242
 2787              		.loc 1 1087 3 discriminator 7 view .LVU777
 2788 0092 0223     		movs	r3, #2
 2789 0094 84F84530 		strb	r3, [r4, #69]
 2790 0098 C3E7     		b	.L231
 2791              	.L241:
 2792              		.loc 1 1087 3 discriminator 3 view .LVU778
 2793 009a 0223     		movs	r3, #2
 2794 009c 84F84330 		strb	r3, [r4, #67]
 2795 00a0 BFE7     		b	.L231
 2796              	.L242:
 2797              		.loc 1 1087 3 discriminator 6 view .LVU779
 2798 00a2 0223     		movs	r3, #2
 2799 00a4 84F84430 		strb	r3, [r4, #68]
 2800 00a8 BBE7     		b	.L231
 2801              	.LVL188:
 2802              	.L234:
 2803              		.loc 1 1098 5 is_stmt 1 view .LVU780
 2804              		.loc 1 1098 29 is_stmt 0 view .LVU781
 2805 00aa 9A68     		ldr	r2, [r3, #8]
 2806              		.loc 1 1098 13 view .LVU782
 2807 00ac 02F00702 		and	r2, r2, #7
 2808              	.LVL189:
 2809              		.loc 1 1099 5 is_stmt 1 view .LVU783
 2810              		.loc 1 1099 8 is_stmt 0 view .LVU784
 2811 00b0 062A     		cmp	r2, #6
 2812 00b2 07D0     		beq	.L237
 2813              		.loc 1 1101 7 is_stmt 1 view .LVU785
 2814 00b4 1A68     		ldr	r2, [r3]
 2815              	.LVL190:
 2816              		.loc 1 1101 7 is_stmt 0 view .LVU786
 2817 00b6 42F00102 		orr	r2, r2, #1
 2818 00ba 1A60     		str	r2, [r3]
 2819              		.loc 1 1110 10 view .LVU787
 2820 00bc 0020     		movs	r0, #0
 2821 00be 00E0     		b	.L229
 2822              	.LVL191:
 2823              	.L236:
 2824              		.loc 1 1083 12 view .LVU788
 2825 00c0 0120     		movs	r0, #1
 2826              	.LVL192:
 2827              	.L229:
 2828              		.loc 1 1111 1 view .LVU789
 2829 00c2 10BD     		pop	{r4, pc}
 2830              	.LVL193:
 2831              	.L237:
ARM GAS  C:\Users\38164\AppData\Local\Temp\ccqIV1nl.s 			page 50


 2832              		.loc 1 1110 10 view .LVU790
 2833 00c4 0020     		movs	r0, #0
 2834 00c6 FCE7     		b	.L229
 2835              	.L244:
 2836              		.align	2
 2837              	.L243:
 2838 00c8 00000000 		.word	TIM_CCxNChannelCmd
 2839 00cc 002C0140 		.word	1073818624
 2840              		.cfi_endproc
 2841              	.LFE81:
 2843              		.section	.text.HAL_TIMEx_PWMN_Stop,"ax",%progbits
 2844              		.align	1
 2845              		.global	HAL_TIMEx_PWMN_Stop
 2846              		.syntax unified
 2847              		.thumb
 2848              		.thumb_func
 2849              		.fpu softvfp
 2851              	HAL_TIMEx_PWMN_Stop:
 2852              	.LVL194:
 2853              	.LFB82:
 2854              		.loc 1 1124 1 is_stmt 1 view -0
 2855              		.cfi_startproc
 2856              		@ args = 0, pretend = 0, frame = 0
 2857              		@ frame_needed = 0, uses_anonymous_args = 0
 2858              		.loc 1 1124 1 is_stmt 0 view .LVU792
 2859 0000 38B5     		push	{r3, r4, r5, lr}
 2860              	.LCFI23:
 2861              		.cfi_def_cfa_offset 16
 2862              		.cfi_offset 3, -16
 2863              		.cfi_offset 4, -12
 2864              		.cfi_offset 5, -8
 2865              		.cfi_offset 14, -4
 2866 0002 0446     		mov	r4, r0
 2867 0004 0D46     		mov	r5, r1
 2868              		.loc 1 1126 3 is_stmt 1 view .LVU793
 2869              		.loc 1 1129 3 view .LVU794
 2870 0006 0022     		movs	r2, #0
 2871 0008 0068     		ldr	r0, [r0]
 2872              	.LVL195:
 2873              		.loc 1 1129 3 is_stmt 0 view .LVU795
 2874 000a 1B4B     		ldr	r3, .L255
 2875 000c 9847     		blx	r3
 2876              	.LVL196:
 2877              		.loc 1 1132 3 is_stmt 1 view .LVU796
 2878              		.loc 1 1132 3 view .LVU797
 2879 000e 2368     		ldr	r3, [r4]
 2880 0010 196A     		ldr	r1, [r3, #32]
 2881 0012 41F21112 		movw	r2, #4369
 2882 0016 1142     		tst	r1, r2
 2883 0018 08D1     		bne	.L246
 2884              		.loc 1 1132 3 discriminator 1 view .LVU798
 2885 001a 196A     		ldr	r1, [r3, #32]
 2886 001c 40F24442 		movw	r2, #1092
 2887 0020 1142     		tst	r1, r2
 2888 0022 03D1     		bne	.L246
 2889              		.loc 1 1132 3 discriminator 3 view .LVU799
 2890 0024 5A6C     		ldr	r2, [r3, #68]
ARM GAS  C:\Users\38164\AppData\Local\Temp\ccqIV1nl.s 			page 51


 2891 0026 22F40042 		bic	r2, r2, #32768
 2892 002a 5A64     		str	r2, [r3, #68]
 2893              	.L246:
 2894              		.loc 1 1132 3 discriminator 5 view .LVU800
 2895              		.loc 1 1135 3 discriminator 5 view .LVU801
 2896              		.loc 1 1135 3 discriminator 5 view .LVU802
 2897 002c 2368     		ldr	r3, [r4]
 2898 002e 196A     		ldr	r1, [r3, #32]
 2899 0030 41F21112 		movw	r2, #4369
 2900 0034 1142     		tst	r1, r2
 2901 0036 08D1     		bne	.L247
 2902              		.loc 1 1135 3 discriminator 1 view .LVU803
 2903 0038 196A     		ldr	r1, [r3, #32]
 2904 003a 40F24442 		movw	r2, #1092
 2905 003e 1142     		tst	r1, r2
 2906 0040 03D1     		bne	.L247
 2907              		.loc 1 1135 3 discriminator 3 view .LVU804
 2908 0042 1A68     		ldr	r2, [r3]
 2909 0044 22F00102 		bic	r2, r2, #1
 2910 0048 1A60     		str	r2, [r3]
 2911              	.L247:
 2912              		.loc 1 1135 3 discriminator 5 view .LVU805
 2913              		.loc 1 1138 3 discriminator 5 view .LVU806
 2914 004a 25B9     		cbnz	r5, .L248
 2915              		.loc 1 1138 3 is_stmt 0 discriminator 1 view .LVU807
 2916 004c 0123     		movs	r3, #1
 2917 004e 84F84230 		strb	r3, [r4, #66]
 2918              	.L249:
 2919              		.loc 1 1141 3 is_stmt 1 view .LVU808
 2920              		.loc 1 1142 1 is_stmt 0 view .LVU809
 2921 0052 0020     		movs	r0, #0
 2922 0054 38BD     		pop	{r3, r4, r5, pc}
 2923              	.LVL197:
 2924              	.L248:
 2925              		.loc 1 1138 3 discriminator 2 view .LVU810
 2926 0056 042D     		cmp	r5, #4
 2927 0058 05D0     		beq	.L253
 2928              		.loc 1 1138 3 discriminator 4 view .LVU811
 2929 005a 082D     		cmp	r5, #8
 2930 005c 07D0     		beq	.L254
 2931              		.loc 1 1138 3 discriminator 7 view .LVU812
 2932 005e 0123     		movs	r3, #1
 2933 0060 84F84530 		strb	r3, [r4, #69]
 2934 0064 F5E7     		b	.L249
 2935              	.L253:
 2936              		.loc 1 1138 3 discriminator 3 view .LVU813
 2937 0066 0123     		movs	r3, #1
 2938 0068 84F84330 		strb	r3, [r4, #67]
 2939 006c F1E7     		b	.L249
 2940              	.L254:
 2941              		.loc 1 1138 3 discriminator 6 view .LVU814
 2942 006e 0123     		movs	r3, #1
 2943 0070 84F84430 		strb	r3, [r4, #68]
 2944 0074 EDE7     		b	.L249
 2945              	.L256:
 2946 0076 00BF     		.align	2
 2947              	.L255:
ARM GAS  C:\Users\38164\AppData\Local\Temp\ccqIV1nl.s 			page 52


 2948 0078 00000000 		.word	TIM_CCxNChannelCmd
 2949              		.cfi_endproc
 2950              	.LFE82:
 2952              		.section	.text.HAL_TIMEx_PWMN_Start_IT,"ax",%progbits
 2953              		.align	1
 2954              		.global	HAL_TIMEx_PWMN_Start_IT
 2955              		.syntax unified
 2956              		.thumb
 2957              		.thumb_func
 2958              		.fpu softvfp
 2960              	HAL_TIMEx_PWMN_Start_IT:
 2961              	.LVL198:
 2962              	.LFB83:
 2963              		.loc 1 1156 1 is_stmt 1 view -0
 2964              		.cfi_startproc
 2965              		@ args = 0, pretend = 0, frame = 0
 2966              		@ frame_needed = 0, uses_anonymous_args = 0
 2967              		.loc 1 1156 1 is_stmt 0 view .LVU816
 2968 0000 10B5     		push	{r4, lr}
 2969              	.LCFI24:
 2970              		.cfi_def_cfa_offset 8
 2971              		.cfi_offset 4, -8
 2972              		.cfi_offset 14, -4
 2973 0002 0446     		mov	r4, r0
 2974              		.loc 1 1157 3 is_stmt 1 view .LVU817
 2975              		.loc 1 1160 3 view .LVU818
 2976              		.loc 1 1163 3 view .LVU819
 2977              		.loc 1 1163 46 is_stmt 0 view .LVU820
 2978 0004 0846     		mov	r0, r1
 2979              	.LVL199:
 2980              		.loc 1 1163 46 view .LVU821
 2981 0006 0029     		cmp	r1, #0
 2982 0008 32D1     		bne	.L258
 2983              		.loc 1 1163 7 discriminator 1 view .LVU822
 2984 000a 94F84230 		ldrb	r3, [r4, #66]	@ zero_extendqisi2
 2985 000e DBB2     		uxtb	r3, r3
 2986              		.loc 1 1163 46 discriminator 1 view .LVU823
 2987 0010 013B     		subs	r3, r3, #1
 2988 0012 18BF     		it	ne
 2989 0014 0123     		movne	r3, #1
 2990              	.L259:
 2991              		.loc 1 1163 6 discriminator 12 view .LVU824
 2992 0016 002B     		cmp	r3, #0
 2993 0018 70D1     		bne	.L272
 2994              		.loc 1 1169 3 is_stmt 1 view .LVU825
 2995 001a 0028     		cmp	r0, #0
 2996 001c 41D1     		bne	.L263
 2997              		.loc 1 1169 3 is_stmt 0 discriminator 1 view .LVU826
 2998 001e 0223     		movs	r3, #2
 2999 0020 84F84230 		strb	r3, [r4, #66]
 3000              	.L264:
 3001              		.loc 1 1171 3 is_stmt 1 view .LVU827
 3002 0024 0428     		cmp	r0, #4
 3003 0026 52D0     		beq	.L267
 3004 0028 0828     		cmp	r0, #8
 3005 002a 56D0     		beq	.L268
 3006 002c 0028     		cmp	r0, #0
ARM GAS  C:\Users\38164\AppData\Local\Temp\ccqIV1nl.s 			page 53


 3007 002e 48D0     		beq	.L275
 3008              	.L269:
 3009              		.loc 1 1199 3 view .LVU828
 3010 0030 2268     		ldr	r2, [r4]
 3011 0032 D368     		ldr	r3, [r2, #12]
 3012 0034 43F08003 		orr	r3, r3, #128
 3013 0038 D360     		str	r3, [r2, #12]
 3014              		.loc 1 1202 3 view .LVU829
 3015 003a 0422     		movs	r2, #4
 3016 003c 0146     		mov	r1, r0
 3017              	.LVL200:
 3018              		.loc 1 1202 3 is_stmt 0 view .LVU830
 3019 003e 2068     		ldr	r0, [r4]
 3020              	.LVL201:
 3021              		.loc 1 1202 3 view .LVU831
 3022 0040 304B     		ldr	r3, .L280
 3023 0042 9847     		blx	r3
 3024              	.LVL202:
 3025              		.loc 1 1205 3 is_stmt 1 view .LVU832
 3026 0044 2268     		ldr	r2, [r4]
 3027 0046 536C     		ldr	r3, [r2, #68]
 3028 0048 43F40043 		orr	r3, r3, #32768
 3029 004c 5364     		str	r3, [r2, #68]
 3030              		.loc 1 1208 3 view .LVU833
 3031              		.loc 1 1208 7 is_stmt 0 view .LVU834
 3032 004e 2368     		ldr	r3, [r4]
 3033              		.loc 1 1208 6 view .LVU835
 3034 0050 2D4A     		ldr	r2, .L280+4
 3035 0052 9342     		cmp	r3, r2
 3036 0054 47D0     		beq	.L270
 3037              		.loc 1 1208 7 discriminator 1 view .LVU836
 3038 0056 B3F1804F 		cmp	r3, #1073741824
 3039 005a 44D0     		beq	.L270
 3040              		.loc 1 1208 7 discriminator 2 view .LVU837
 3041 005c A2F59432 		sub	r2, r2, #75776
 3042 0060 9342     		cmp	r3, r2
 3043 0062 40D0     		beq	.L270
 3044              		.loc 1 1218 5 is_stmt 1 view .LVU838
 3045 0064 1A68     		ldr	r2, [r3]
 3046 0066 42F00102 		orr	r2, r2, #1
 3047 006a 1A60     		str	r2, [r3]
 3048              		.loc 1 1222 10 is_stmt 0 view .LVU839
 3049 006c 0020     		movs	r0, #0
 3050 006e 46E0     		b	.L262
 3051              	.LVL203:
 3052              	.L258:
 3053              		.loc 1 1163 46 discriminator 2 view .LVU840
 3054 0070 0429     		cmp	r1, #4
 3055 0072 08D0     		beq	.L276
 3056              		.loc 1 1163 46 discriminator 5 view .LVU841
 3057 0074 0829     		cmp	r1, #8
 3058 0076 0DD0     		beq	.L277
 3059              		.loc 1 1163 7 discriminator 8 view .LVU842
 3060 0078 94F84530 		ldrb	r3, [r4, #69]	@ zero_extendqisi2
 3061 007c DBB2     		uxtb	r3, r3
 3062              		.loc 1 1163 46 discriminator 8 view .LVU843
 3063 007e 013B     		subs	r3, r3, #1
ARM GAS  C:\Users\38164\AppData\Local\Temp\ccqIV1nl.s 			page 54


 3064 0080 18BF     		it	ne
 3065 0082 0123     		movne	r3, #1
 3066 0084 C7E7     		b	.L259
 3067              	.L276:
 3068              		.loc 1 1163 7 discriminator 4 view .LVU844
 3069 0086 94F84330 		ldrb	r3, [r4, #67]	@ zero_extendqisi2
 3070 008a DBB2     		uxtb	r3, r3
 3071              		.loc 1 1163 46 discriminator 4 view .LVU845
 3072 008c 013B     		subs	r3, r3, #1
 3073 008e 18BF     		it	ne
 3074 0090 0123     		movne	r3, #1
 3075 0092 C0E7     		b	.L259
 3076              	.L277:
 3077              		.loc 1 1163 7 discriminator 7 view .LVU846
 3078 0094 94F84430 		ldrb	r3, [r4, #68]	@ zero_extendqisi2
 3079 0098 DBB2     		uxtb	r3, r3
 3080              		.loc 1 1163 46 discriminator 7 view .LVU847
 3081 009a 013B     		subs	r3, r3, #1
 3082 009c 18BF     		it	ne
 3083 009e 0123     		movne	r3, #1
 3084 00a0 B9E7     		b	.L259
 3085              	.L263:
 3086              		.loc 1 1169 3 discriminator 2 view .LVU848
 3087 00a2 0428     		cmp	r0, #4
 3088 00a4 05D0     		beq	.L278
 3089              		.loc 1 1169 3 discriminator 4 view .LVU849
 3090 00a6 0828     		cmp	r0, #8
 3091 00a8 07D0     		beq	.L279
 3092              		.loc 1 1169 3 discriminator 7 view .LVU850
 3093 00aa 0223     		movs	r3, #2
 3094 00ac 84F84530 		strb	r3, [r4, #69]
 3095 00b0 B8E7     		b	.L264
 3096              	.L278:
 3097              		.loc 1 1169 3 discriminator 3 view .LVU851
 3098 00b2 0223     		movs	r3, #2
 3099 00b4 84F84330 		strb	r3, [r4, #67]
 3100 00b8 B4E7     		b	.L264
 3101              	.L279:
 3102              		.loc 1 1169 3 discriminator 6 view .LVU852
 3103 00ba 0223     		movs	r3, #2
 3104 00bc 84F84430 		strb	r3, [r4, #68]
 3105 00c0 B0E7     		b	.L264
 3106              	.L275:
 3107              		.loc 1 1176 7 is_stmt 1 view .LVU853
 3108 00c2 2268     		ldr	r2, [r4]
 3109 00c4 D368     		ldr	r3, [r2, #12]
 3110 00c6 43F00203 		orr	r3, r3, #2
 3111 00ca D360     		str	r3, [r2, #12]
 3112              		.loc 1 1177 7 view .LVU854
 3113 00cc B0E7     		b	.L269
 3114              	.L267:
 3115              		.loc 1 1183 7 view .LVU855
 3116 00ce 2268     		ldr	r2, [r4]
 3117 00d0 D368     		ldr	r3, [r2, #12]
 3118 00d2 43F00403 		orr	r3, r3, #4
 3119 00d6 D360     		str	r3, [r2, #12]
 3120              		.loc 1 1184 7 view .LVU856
ARM GAS  C:\Users\38164\AppData\Local\Temp\ccqIV1nl.s 			page 55


 3121 00d8 AAE7     		b	.L269
 3122              	.L268:
 3123              		.loc 1 1190 7 view .LVU857
 3124 00da 2268     		ldr	r2, [r4]
 3125 00dc D368     		ldr	r3, [r2, #12]
 3126 00de 43F00803 		orr	r3, r3, #8
 3127 00e2 D360     		str	r3, [r2, #12]
 3128              		.loc 1 1191 7 view .LVU858
 3129 00e4 A4E7     		b	.L269
 3130              	.LVL204:
 3131              	.L270:
 3132              		.loc 1 1210 5 view .LVU859
 3133              		.loc 1 1210 29 is_stmt 0 view .LVU860
 3134 00e6 9A68     		ldr	r2, [r3, #8]
 3135              		.loc 1 1210 13 view .LVU861
 3136 00e8 02F00702 		and	r2, r2, #7
 3137              	.LVL205:
 3138              		.loc 1 1211 5 is_stmt 1 view .LVU862
 3139              		.loc 1 1211 8 is_stmt 0 view .LVU863
 3140 00ec 062A     		cmp	r2, #6
 3141 00ee 07D0     		beq	.L273
 3142              		.loc 1 1213 7 is_stmt 1 view .LVU864
 3143 00f0 1A68     		ldr	r2, [r3]
 3144              	.LVL206:
 3145              		.loc 1 1213 7 is_stmt 0 view .LVU865
 3146 00f2 42F00102 		orr	r2, r2, #1
 3147 00f6 1A60     		str	r2, [r3]
 3148              		.loc 1 1222 10 view .LVU866
 3149 00f8 0020     		movs	r0, #0
 3150 00fa 00E0     		b	.L262
 3151              	.LVL207:
 3152              	.L272:
 3153              		.loc 1 1165 12 view .LVU867
 3154 00fc 0120     		movs	r0, #1
 3155              	.LVL208:
 3156              	.L262:
 3157              		.loc 1 1223 1 view .LVU868
 3158 00fe 10BD     		pop	{r4, pc}
 3159              	.LVL209:
 3160              	.L273:
 3161              		.loc 1 1222 10 view .LVU869
 3162 0100 0020     		movs	r0, #0
 3163 0102 FCE7     		b	.L262
 3164              	.L281:
 3165              		.align	2
 3166              	.L280:
 3167 0104 00000000 		.word	TIM_CCxNChannelCmd
 3168 0108 002C0140 		.word	1073818624
 3169              		.cfi_endproc
 3170              	.LFE83:
 3172              		.section	.text.HAL_TIMEx_PWMN_Stop_IT,"ax",%progbits
 3173              		.align	1
 3174              		.global	HAL_TIMEx_PWMN_Stop_IT
 3175              		.syntax unified
 3176              		.thumb
 3177              		.thumb_func
 3178              		.fpu softvfp
ARM GAS  C:\Users\38164\AppData\Local\Temp\ccqIV1nl.s 			page 56


 3180              	HAL_TIMEx_PWMN_Stop_IT:
 3181              	.LVL210:
 3182              	.LFB84:
 3183              		.loc 1 1237 1 is_stmt 1 view -0
 3184              		.cfi_startproc
 3185              		@ args = 0, pretend = 0, frame = 0
 3186              		@ frame_needed = 0, uses_anonymous_args = 0
 3187              		.loc 1 1237 1 is_stmt 0 view .LVU871
 3188 0000 38B5     		push	{r3, r4, r5, lr}
 3189              	.LCFI25:
 3190              		.cfi_def_cfa_offset 16
 3191              		.cfi_offset 3, -16
 3192              		.cfi_offset 4, -12
 3193              		.cfi_offset 5, -8
 3194              		.cfi_offset 14, -4
 3195 0002 0546     		mov	r5, r0
 3196 0004 0C46     		mov	r4, r1
 3197              		.loc 1 1238 3 is_stmt 1 view .LVU872
 3198              		.loc 1 1241 3 view .LVU873
 3199              		.loc 1 1243 3 view .LVU874
 3200 0006 0429     		cmp	r1, #4
 3201 0008 3CD0     		beq	.L283
 3202 000a 0829     		cmp	r1, #8
 3203 000c 40D0     		beq	.L284
 3204 000e 0029     		cmp	r1, #0
 3205 0010 32D0     		beq	.L294
 3206              	.L285:
 3207              		.loc 1 1271 3 view .LVU875
 3208 0012 0022     		movs	r2, #0
 3209 0014 2146     		mov	r1, r4
 3210              	.LVL211:
 3211              		.loc 1 1271 3 is_stmt 0 view .LVU876
 3212 0016 2868     		ldr	r0, [r5]
 3213              	.LVL212:
 3214              		.loc 1 1271 3 view .LVU877
 3215 0018 284B     		ldr	r3, .L297
 3216 001a 9847     		blx	r3
 3217              	.LVL213:
 3218              		.loc 1 1274 3 is_stmt 1 view .LVU878
 3219              		.loc 1 1274 17 is_stmt 0 view .LVU879
 3220 001c 2B68     		ldr	r3, [r5]
 3221              		.loc 1 1274 11 view .LVU880
 3222 001e 196A     		ldr	r1, [r3, #32]
 3223              	.LVL214:
 3224              		.loc 1 1275 3 is_stmt 1 view .LVU881
 3225              		.loc 1 1275 6 is_stmt 0 view .LVU882
 3226 0020 40F24442 		movw	r2, #1092
 3227 0024 1142     		tst	r1, r2
 3228 0026 03D1     		bne	.L286
 3229              		.loc 1 1277 5 is_stmt 1 view .LVU883
 3230 0028 DA68     		ldr	r2, [r3, #12]
 3231 002a 22F08002 		bic	r2, r2, #128
 3232 002e DA60     		str	r2, [r3, #12]
 3233              	.L286:
 3234              		.loc 1 1281 3 view .LVU884
 3235              		.loc 1 1281 3 view .LVU885
 3236 0030 2B68     		ldr	r3, [r5]
ARM GAS  C:\Users\38164\AppData\Local\Temp\ccqIV1nl.s 			page 57


 3237 0032 196A     		ldr	r1, [r3, #32]
 3238              	.LVL215:
 3239              		.loc 1 1281 3 is_stmt 0 view .LVU886
 3240 0034 41F21112 		movw	r2, #4369
 3241 0038 1142     		tst	r1, r2
 3242 003a 08D1     		bne	.L287
 3243              		.loc 1 1281 3 is_stmt 1 discriminator 1 view .LVU887
 3244 003c 196A     		ldr	r1, [r3, #32]
 3245 003e 40F24442 		movw	r2, #1092
 3246 0042 1142     		tst	r1, r2
 3247 0044 03D1     		bne	.L287
 3248              		.loc 1 1281 3 discriminator 3 view .LVU888
 3249 0046 5A6C     		ldr	r2, [r3, #68]
 3250 0048 22F40042 		bic	r2, r2, #32768
 3251 004c 5A64     		str	r2, [r3, #68]
 3252              	.L287:
 3253              		.loc 1 1281 3 discriminator 5 view .LVU889
 3254              		.loc 1 1284 3 discriminator 5 view .LVU890
 3255              		.loc 1 1284 3 discriminator 5 view .LVU891
 3256 004e 2B68     		ldr	r3, [r5]
 3257 0050 196A     		ldr	r1, [r3, #32]
 3258 0052 41F21112 		movw	r2, #4369
 3259 0056 1142     		tst	r1, r2
 3260 0058 08D1     		bne	.L288
 3261              		.loc 1 1284 3 discriminator 1 view .LVU892
 3262 005a 196A     		ldr	r1, [r3, #32]
 3263 005c 40F24442 		movw	r2, #1092
 3264 0060 1142     		tst	r1, r2
 3265 0062 03D1     		bne	.L288
 3266              		.loc 1 1284 3 discriminator 3 view .LVU893
 3267 0064 1A68     		ldr	r2, [r3]
 3268 0066 22F00102 		bic	r2, r2, #1
 3269 006a 1A60     		str	r2, [r3]
 3270              	.L288:
 3271              		.loc 1 1284 3 discriminator 5 view .LVU894
 3272              		.loc 1 1287 3 discriminator 5 view .LVU895
 3273 006c B4B9     		cbnz	r4, .L289
 3274              		.loc 1 1287 3 is_stmt 0 discriminator 1 view .LVU896
 3275 006e 0123     		movs	r3, #1
 3276 0070 85F84230 		strb	r3, [r5, #66]
 3277              	.L290:
 3278              		.loc 1 1290 3 is_stmt 1 view .LVU897
 3279              		.loc 1 1291 1 is_stmt 0 view .LVU898
 3280 0074 0020     		movs	r0, #0
 3281 0076 38BD     		pop	{r3, r4, r5, pc}
 3282              	.LVL216:
 3283              	.L294:
 3284              		.loc 1 1248 7 is_stmt 1 view .LVU899
 3285 0078 0268     		ldr	r2, [r0]
 3286 007a D368     		ldr	r3, [r2, #12]
 3287 007c 23F00203 		bic	r3, r3, #2
 3288 0080 D360     		str	r3, [r2, #12]
 3289              		.loc 1 1249 7 view .LVU900
 3290 0082 C6E7     		b	.L285
 3291              	.L283:
 3292              		.loc 1 1255 7 view .LVU901
 3293 0084 0268     		ldr	r2, [r0]
ARM GAS  C:\Users\38164\AppData\Local\Temp\ccqIV1nl.s 			page 58


 3294 0086 D368     		ldr	r3, [r2, #12]
 3295 0088 23F00403 		bic	r3, r3, #4
 3296 008c D360     		str	r3, [r2, #12]
 3297              		.loc 1 1256 7 view .LVU902
 3298 008e C0E7     		b	.L285
 3299              	.L284:
 3300              		.loc 1 1262 7 view .LVU903
 3301 0090 0268     		ldr	r2, [r0]
 3302 0092 D368     		ldr	r3, [r2, #12]
 3303 0094 23F00803 		bic	r3, r3, #8
 3304 0098 D360     		str	r3, [r2, #12]
 3305              		.loc 1 1263 7 view .LVU904
 3306 009a BAE7     		b	.L285
 3307              	.LVL217:
 3308              	.L289:
 3309              		.loc 1 1287 3 is_stmt 0 discriminator 2 view .LVU905
 3310 009c 042C     		cmp	r4, #4
 3311 009e 05D0     		beq	.L295
 3312              		.loc 1 1287 3 discriminator 4 view .LVU906
 3313 00a0 082C     		cmp	r4, #8
 3314 00a2 07D0     		beq	.L296
 3315              		.loc 1 1287 3 discriminator 7 view .LVU907
 3316 00a4 0123     		movs	r3, #1
 3317 00a6 85F84530 		strb	r3, [r5, #69]
 3318 00aa E3E7     		b	.L290
 3319              	.L295:
 3320              		.loc 1 1287 3 discriminator 3 view .LVU908
 3321 00ac 0123     		movs	r3, #1
 3322 00ae 85F84330 		strb	r3, [r5, #67]
 3323 00b2 DFE7     		b	.L290
 3324              	.L296:
 3325              		.loc 1 1287 3 discriminator 6 view .LVU909
 3326 00b4 0123     		movs	r3, #1
 3327 00b6 85F84430 		strb	r3, [r5, #68]
 3328 00ba DBE7     		b	.L290
 3329              	.L298:
 3330              		.align	2
 3331              	.L297:
 3332 00bc 00000000 		.word	TIM_CCxNChannelCmd
 3333              		.cfi_endproc
 3334              	.LFE84:
 3336              		.section	.text.HAL_TIMEx_PWMN_Start_DMA,"ax",%progbits
 3337              		.align	1
 3338              		.global	HAL_TIMEx_PWMN_Start_DMA
 3339              		.syntax unified
 3340              		.thumb
 3341              		.thumb_func
 3342              		.fpu softvfp
 3344              	HAL_TIMEx_PWMN_Start_DMA:
 3345              	.LVL218:
 3346              	.LFB85:
 3347              		.loc 1 1307 1 is_stmt 1 view -0
 3348              		.cfi_startproc
 3349              		@ args = 0, pretend = 0, frame = 0
 3350              		@ frame_needed = 0, uses_anonymous_args = 0
 3351              		.loc 1 1307 1 is_stmt 0 view .LVU911
 3352 0000 70B5     		push	{r4, r5, r6, lr}
ARM GAS  C:\Users\38164\AppData\Local\Temp\ccqIV1nl.s 			page 59


 3353              	.LCFI26:
 3354              		.cfi_def_cfa_offset 16
 3355              		.cfi_offset 4, -16
 3356              		.cfi_offset 5, -12
 3357              		.cfi_offset 6, -8
 3358              		.cfi_offset 14, -4
 3359 0002 0446     		mov	r4, r0
 3360 0004 1646     		mov	r6, r2
 3361              		.loc 1 1308 3 is_stmt 1 view .LVU912
 3362              		.loc 1 1311 3 view .LVU913
 3363              		.loc 1 1314 3 view .LVU914
 3364              		.loc 1 1314 46 is_stmt 0 view .LVU915
 3365 0006 0D46     		mov	r5, r1
 3366 0008 0029     		cmp	r1, #0
 3367 000a 42D1     		bne	.L300
 3368              		.loc 1 1314 7 discriminator 1 view .LVU916
 3369 000c 90F84200 		ldrb	r0, [r0, #66]	@ zero_extendqisi2
 3370              	.LVL219:
 3371              		.loc 1 1314 7 discriminator 1 view .LVU917
 3372 0010 C0B2     		uxtb	r0, r0
 3373              		.loc 1 1314 46 discriminator 1 view .LVU918
 3374 0012 0228     		cmp	r0, #2
 3375 0014 14BF     		ite	ne
 3376 0016 0020     		movne	r0, #0
 3377 0018 0120     		moveq	r0, #1
 3378              	.L301:
 3379              		.loc 1 1314 6 discriminator 12 view .LVU919
 3380 001a 0028     		cmp	r0, #0
 3381 001c 40F0D480 		bne	.L319
 3382              		.loc 1 1318 8 is_stmt 1 view .LVU920
 3383              		.loc 1 1318 51 is_stmt 0 view .LVU921
 3384 0020 002D     		cmp	r5, #0
 3385 0022 52D1     		bne	.L305
 3386              		.loc 1 1318 12 discriminator 1 view .LVU922
 3387 0024 94F84220 		ldrb	r2, [r4, #66]	@ zero_extendqisi2
 3388              	.LVL220:
 3389              		.loc 1 1318 12 discriminator 1 view .LVU923
 3390 0028 D2B2     		uxtb	r2, r2
 3391              		.loc 1 1318 51 discriminator 1 view .LVU924
 3392 002a 012A     		cmp	r2, #1
 3393 002c 14BF     		ite	ne
 3394 002e 0022     		movne	r2, #0
 3395 0030 0122     		moveq	r2, #1
 3396              	.L306:
 3397              		.loc 1 1318 11 discriminator 12 view .LVU925
 3398 0032 002A     		cmp	r2, #0
 3399 0034 00F0CA80 		beq	.L320
 3400              		.loc 1 1320 5 is_stmt 1 view .LVU926
 3401              		.loc 1 1320 8 is_stmt 0 view .LVU927
 3402 0038 002E     		cmp	r6, #0
 3403 003a 62D0     		beq	.L327
 3404              	.L309:
 3405              		.loc 1 1326 7 is_stmt 1 view .LVU928
 3406 003c 002D     		cmp	r5, #0
 3407 003e 64D1     		bne	.L310
 3408              		.loc 1 1326 7 is_stmt 0 discriminator 1 view .LVU929
 3409 0040 0222     		movs	r2, #2
ARM GAS  C:\Users\38164\AppData\Local\Temp\ccqIV1nl.s 			page 60


 3410 0042 84F84220 		strb	r2, [r4, #66]
 3411              	.L311:
 3412              		.loc 1 1334 3 is_stmt 1 view .LVU930
 3413 0046 042D     		cmp	r5, #4
 3414 0048 00F08680 		beq	.L314
 3415 004c 082D     		cmp	r5, #8
 3416 004e 00F09A80 		beq	.L315
 3417 0052 002D     		cmp	r5, #0
 3418 0054 69D0     		beq	.L328
 3419              	.LVL221:
 3420              	.L316:
 3421              		.loc 1 1401 3 view .LVU931
 3422 0056 0422     		movs	r2, #4
 3423 0058 2946     		mov	r1, r5
 3424 005a 2068     		ldr	r0, [r4]
 3425 005c 604B     		ldr	r3, .L335
 3426 005e 9847     		blx	r3
 3427              	.LVL222:
 3428              		.loc 1 1404 3 view .LVU932
 3429 0060 2268     		ldr	r2, [r4]
 3430 0062 536C     		ldr	r3, [r2, #68]
 3431 0064 43F40043 		orr	r3, r3, #32768
 3432 0068 5364     		str	r3, [r2, #68]
 3433              		.loc 1 1407 3 view .LVU933
 3434              		.loc 1 1407 7 is_stmt 0 view .LVU934
 3435 006a 2368     		ldr	r3, [r4]
 3436              		.loc 1 1407 6 view .LVU935
 3437 006c 5D4A     		ldr	r2, .L335+4
 3438 006e 9342     		cmp	r3, r2
 3439 0070 00F09F80 		beq	.L317
 3440              		.loc 1 1407 7 discriminator 1 view .LVU936
 3441 0074 B3F1804F 		cmp	r3, #1073741824
 3442 0078 00F09B80 		beq	.L317
 3443              		.loc 1 1407 7 discriminator 2 view .LVU937
 3444 007c A2F59432 		sub	r2, r2, #75776
 3445 0080 9342     		cmp	r3, r2
 3446 0082 00F09680 		beq	.L317
 3447              		.loc 1 1417 5 is_stmt 1 view .LVU938
 3448 0086 1A68     		ldr	r2, [r3]
 3449 0088 42F00102 		orr	r2, r2, #1
 3450 008c 1A60     		str	r2, [r3]
 3451              		.loc 1 1421 10 is_stmt 0 view .LVU939
 3452 008e 0020     		movs	r0, #0
 3453 0090 9DE0     		b	.L304
 3454              	.LVL223:
 3455              	.L300:
 3456              		.loc 1 1314 46 discriminator 2 view .LVU940
 3457 0092 0429     		cmp	r1, #4
 3458 0094 09D0     		beq	.L329
 3459              		.loc 1 1314 46 discriminator 5 view .LVU941
 3460 0096 0829     		cmp	r1, #8
 3461 0098 0FD0     		beq	.L330
 3462              		.loc 1 1314 7 discriminator 8 view .LVU942
 3463 009a 90F84500 		ldrb	r0, [r0, #69]	@ zero_extendqisi2
 3464              	.LVL224:
 3465              		.loc 1 1314 7 discriminator 8 view .LVU943
 3466 009e C0B2     		uxtb	r0, r0
ARM GAS  C:\Users\38164\AppData\Local\Temp\ccqIV1nl.s 			page 61


 3467              		.loc 1 1314 46 discriminator 8 view .LVU944
 3468 00a0 0228     		cmp	r0, #2
 3469 00a2 14BF     		ite	ne
 3470 00a4 0020     		movne	r0, #0
 3471 00a6 0120     		moveq	r0, #1
 3472 00a8 B7E7     		b	.L301
 3473              	.LVL225:
 3474              	.L329:
 3475              		.loc 1 1314 7 discriminator 4 view .LVU945
 3476 00aa 90F84300 		ldrb	r0, [r0, #67]	@ zero_extendqisi2
 3477              	.LVL226:
 3478              		.loc 1 1314 7 discriminator 4 view .LVU946
 3479 00ae C0B2     		uxtb	r0, r0
 3480              		.loc 1 1314 46 discriminator 4 view .LVU947
 3481 00b0 0228     		cmp	r0, #2
 3482 00b2 14BF     		ite	ne
 3483 00b4 0020     		movne	r0, #0
 3484 00b6 0120     		moveq	r0, #1
 3485 00b8 AFE7     		b	.L301
 3486              	.LVL227:
 3487              	.L330:
 3488              		.loc 1 1314 7 discriminator 7 view .LVU948
 3489 00ba 90F84400 		ldrb	r0, [r0, #68]	@ zero_extendqisi2
 3490              	.LVL228:
 3491              		.loc 1 1314 7 discriminator 7 view .LVU949
 3492 00be C0B2     		uxtb	r0, r0
 3493              		.loc 1 1314 46 discriminator 7 view .LVU950
 3494 00c0 0228     		cmp	r0, #2
 3495 00c2 14BF     		ite	ne
 3496 00c4 0020     		movne	r0, #0
 3497 00c6 0120     		moveq	r0, #1
 3498 00c8 A7E7     		b	.L301
 3499              	.L305:
 3500              		.loc 1 1318 51 discriminator 2 view .LVU951
 3501 00ca 042D     		cmp	r5, #4
 3502 00cc 09D0     		beq	.L331
 3503              		.loc 1 1318 51 discriminator 5 view .LVU952
 3504 00ce 082D     		cmp	r5, #8
 3505 00d0 0FD0     		beq	.L332
 3506              		.loc 1 1318 12 discriminator 8 view .LVU953
 3507 00d2 94F84520 		ldrb	r2, [r4, #69]	@ zero_extendqisi2
 3508              	.LVL229:
 3509              		.loc 1 1318 12 discriminator 8 view .LVU954
 3510 00d6 D2B2     		uxtb	r2, r2
 3511              		.loc 1 1318 51 discriminator 8 view .LVU955
 3512 00d8 012A     		cmp	r2, #1
 3513 00da 14BF     		ite	ne
 3514 00dc 0022     		movne	r2, #0
 3515 00de 0122     		moveq	r2, #1
 3516 00e0 A7E7     		b	.L306
 3517              	.LVL230:
 3518              	.L331:
 3519              		.loc 1 1318 12 discriminator 4 view .LVU956
 3520 00e2 94F84320 		ldrb	r2, [r4, #67]	@ zero_extendqisi2
 3521              	.LVL231:
 3522              		.loc 1 1318 12 discriminator 4 view .LVU957
 3523 00e6 D2B2     		uxtb	r2, r2
ARM GAS  C:\Users\38164\AppData\Local\Temp\ccqIV1nl.s 			page 62


 3524              		.loc 1 1318 51 discriminator 4 view .LVU958
 3525 00e8 012A     		cmp	r2, #1
 3526 00ea 14BF     		ite	ne
 3527 00ec 0022     		movne	r2, #0
 3528 00ee 0122     		moveq	r2, #1
 3529 00f0 9FE7     		b	.L306
 3530              	.LVL232:
 3531              	.L332:
 3532              		.loc 1 1318 12 discriminator 7 view .LVU959
 3533 00f2 94F84420 		ldrb	r2, [r4, #68]	@ zero_extendqisi2
 3534              	.LVL233:
 3535              		.loc 1 1318 12 discriminator 7 view .LVU960
 3536 00f6 D2B2     		uxtb	r2, r2
 3537              		.loc 1 1318 51 discriminator 7 view .LVU961
 3538 00f8 012A     		cmp	r2, #1
 3539 00fa 14BF     		ite	ne
 3540 00fc 0022     		movne	r2, #0
 3541 00fe 0122     		moveq	r2, #1
 3542 0100 97E7     		b	.L306
 3543              	.L327:
 3544              		.loc 1 1320 25 discriminator 1 view .LVU962
 3545 0102 002B     		cmp	r3, #0
 3546 0104 9AD0     		beq	.L309
 3547              		.loc 1 1322 14 view .LVU963
 3548 0106 0120     		movs	r0, #1
 3549 0108 61E0     		b	.L304
 3550              	.L310:
 3551              		.loc 1 1326 7 discriminator 2 view .LVU964
 3552 010a 042D     		cmp	r5, #4
 3553 010c 05D0     		beq	.L333
 3554              		.loc 1 1326 7 discriminator 4 view .LVU965
 3555 010e 082D     		cmp	r5, #8
 3556 0110 07D0     		beq	.L334
 3557              		.loc 1 1326 7 discriminator 7 view .LVU966
 3558 0112 0222     		movs	r2, #2
 3559 0114 84F84520 		strb	r2, [r4, #69]
 3560 0118 95E7     		b	.L311
 3561              	.L333:
 3562              		.loc 1 1326 7 discriminator 3 view .LVU967
 3563 011a 0222     		movs	r2, #2
 3564 011c 84F84320 		strb	r2, [r4, #67]
 3565 0120 91E7     		b	.L311
 3566              	.L334:
 3567              		.loc 1 1326 7 discriminator 6 view .LVU968
 3568 0122 0222     		movs	r2, #2
 3569 0124 84F84420 		strb	r2, [r4, #68]
 3570 0128 8DE7     		b	.L311
 3571              	.L328:
 3572              		.loc 1 1339 7 is_stmt 1 view .LVU969
 3573              		.loc 1 1339 17 is_stmt 0 view .LVU970
 3574 012a 626A     		ldr	r2, [r4, #36]
 3575              		.loc 1 1339 52 view .LVU971
 3576 012c 2E49     		ldr	r1, .L335+8
 3577              	.LVL234:
 3578              		.loc 1 1339 52 view .LVU972
 3579 012e 9162     		str	r1, [r2, #40]
 3580              		.loc 1 1340 7 is_stmt 1 view .LVU973
ARM GAS  C:\Users\38164\AppData\Local\Temp\ccqIV1nl.s 			page 63


 3581              		.loc 1 1340 17 is_stmt 0 view .LVU974
 3582 0130 626A     		ldr	r2, [r4, #36]
 3583              		.loc 1 1340 56 view .LVU975
 3584 0132 2E49     		ldr	r1, .L335+12
 3585 0134 D162     		str	r1, [r2, #44]
 3586              		.loc 1 1343 7 is_stmt 1 view .LVU976
 3587              		.loc 1 1343 17 is_stmt 0 view .LVU977
 3588 0136 626A     		ldr	r2, [r4, #36]
 3589              		.loc 1 1343 53 view .LVU978
 3590 0138 2D49     		ldr	r1, .L335+16
 3591 013a 1163     		str	r1, [r2, #48]
 3592              		.loc 1 1346 7 is_stmt 1 view .LVU979
 3593              		.loc 1 1346 88 is_stmt 0 view .LVU980
 3594 013c 2268     		ldr	r2, [r4]
 3595              		.loc 1 1346 11 view .LVU981
 3596 013e 3432     		adds	r2, r2, #52
 3597 0140 3146     		mov	r1, r6
 3598 0142 606A     		ldr	r0, [r4, #36]
 3599 0144 2B4E     		ldr	r6, .L335+20
 3600              	.LVL235:
 3601              		.loc 1 1346 11 view .LVU982
 3602 0146 B047     		blx	r6
 3603              	.LVL236:
 3604              		.loc 1 1346 10 view .LVU983
 3605 0148 0028     		cmp	r0, #0
 3606 014a 41D1     		bne	.L322
 3607              		.loc 1 1352 7 is_stmt 1 view .LVU984
 3608 014c 2268     		ldr	r2, [r4]
 3609 014e D368     		ldr	r3, [r2, #12]
 3610 0150 43F40073 		orr	r3, r3, #512
 3611 0154 D360     		str	r3, [r2, #12]
 3612              		.loc 1 1353 7 view .LVU985
 3613 0156 7EE7     		b	.L316
 3614              	.LVL237:
 3615              	.L314:
 3616              		.loc 1 1359 7 view .LVU986
 3617              		.loc 1 1359 17 is_stmt 0 view .LVU987
 3618 0158 A26A     		ldr	r2, [r4, #40]
 3619              		.loc 1 1359 52 view .LVU988
 3620 015a 2349     		ldr	r1, .L335+8
 3621              	.LVL238:
 3622              		.loc 1 1359 52 view .LVU989
 3623 015c 9162     		str	r1, [r2, #40]
 3624              		.loc 1 1360 7 is_stmt 1 view .LVU990
 3625              		.loc 1 1360 17 is_stmt 0 view .LVU991
 3626 015e A26A     		ldr	r2, [r4, #40]
 3627              		.loc 1 1360 56 view .LVU992
 3628 0160 2249     		ldr	r1, .L335+12
 3629 0162 D162     		str	r1, [r2, #44]
 3630              		.loc 1 1363 7 is_stmt 1 view .LVU993
 3631              		.loc 1 1363 17 is_stmt 0 view .LVU994
 3632 0164 A26A     		ldr	r2, [r4, #40]
 3633              		.loc 1 1363 53 view .LVU995
 3634 0166 2249     		ldr	r1, .L335+16
 3635 0168 1163     		str	r1, [r2, #48]
 3636              		.loc 1 1366 7 is_stmt 1 view .LVU996
 3637              		.loc 1 1366 88 is_stmt 0 view .LVU997
ARM GAS  C:\Users\38164\AppData\Local\Temp\ccqIV1nl.s 			page 64


 3638 016a 2268     		ldr	r2, [r4]
 3639              		.loc 1 1366 11 view .LVU998
 3640 016c 3832     		adds	r2, r2, #56
 3641 016e 3146     		mov	r1, r6
 3642 0170 A06A     		ldr	r0, [r4, #40]
 3643 0172 204E     		ldr	r6, .L335+20
 3644              	.LVL239:
 3645              		.loc 1 1366 11 view .LVU999
 3646 0174 B047     		blx	r6
 3647              	.LVL240:
 3648              		.loc 1 1366 10 view .LVU1000
 3649 0176 0028     		cmp	r0, #0
 3650 0178 2CD1     		bne	.L323
 3651              		.loc 1 1372 7 is_stmt 1 view .LVU1001
 3652 017a 2268     		ldr	r2, [r4]
 3653 017c D368     		ldr	r3, [r2, #12]
 3654 017e 43F48063 		orr	r3, r3, #1024
 3655 0182 D360     		str	r3, [r2, #12]
 3656              		.loc 1 1373 7 view .LVU1002
 3657 0184 67E7     		b	.L316
 3658              	.LVL241:
 3659              	.L315:
 3660              		.loc 1 1379 7 view .LVU1003
 3661              		.loc 1 1379 17 is_stmt 0 view .LVU1004
 3662 0186 E26A     		ldr	r2, [r4, #44]
 3663              		.loc 1 1379 52 view .LVU1005
 3664 0188 1749     		ldr	r1, .L335+8
 3665              	.LVL242:
 3666              		.loc 1 1379 52 view .LVU1006
 3667 018a 9162     		str	r1, [r2, #40]
 3668              		.loc 1 1380 7 is_stmt 1 view .LVU1007
 3669              		.loc 1 1380 17 is_stmt 0 view .LVU1008
 3670 018c E26A     		ldr	r2, [r4, #44]
 3671              		.loc 1 1380 56 view .LVU1009
 3672 018e 1749     		ldr	r1, .L335+12
 3673 0190 D162     		str	r1, [r2, #44]
 3674              		.loc 1 1383 7 is_stmt 1 view .LVU1010
 3675              		.loc 1 1383 17 is_stmt 0 view .LVU1011
 3676 0192 E26A     		ldr	r2, [r4, #44]
 3677              		.loc 1 1383 53 view .LVU1012
 3678 0194 1649     		ldr	r1, .L335+16
 3679 0196 1163     		str	r1, [r2, #48]
 3680              		.loc 1 1386 7 is_stmt 1 view .LVU1013
 3681              		.loc 1 1386 88 is_stmt 0 view .LVU1014
 3682 0198 2268     		ldr	r2, [r4]
 3683              		.loc 1 1386 11 view .LVU1015
 3684 019a 3C32     		adds	r2, r2, #60
 3685 019c 3146     		mov	r1, r6
 3686 019e E06A     		ldr	r0, [r4, #44]
 3687 01a0 144E     		ldr	r6, .L335+20
 3688              	.LVL243:
 3689              		.loc 1 1386 11 view .LVU1016
 3690 01a2 B047     		blx	r6
 3691              	.LVL244:
 3692              		.loc 1 1386 10 view .LVU1017
 3693 01a4 C0B9     		cbnz	r0, .L324
 3694              		.loc 1 1392 7 is_stmt 1 view .LVU1018
ARM GAS  C:\Users\38164\AppData\Local\Temp\ccqIV1nl.s 			page 65


 3695 01a6 2268     		ldr	r2, [r4]
 3696 01a8 D368     		ldr	r3, [r2, #12]
 3697 01aa 43F40063 		orr	r3, r3, #2048
 3698 01ae D360     		str	r3, [r2, #12]
 3699              		.loc 1 1393 7 view .LVU1019
 3700 01b0 51E7     		b	.L316
 3701              	.L317:
 3702              		.loc 1 1409 5 view .LVU1020
 3703              		.loc 1 1409 29 is_stmt 0 view .LVU1021
 3704 01b2 9A68     		ldr	r2, [r3, #8]
 3705              		.loc 1 1409 13 view .LVU1022
 3706 01b4 02F00702 		and	r2, r2, #7
 3707              	.LVL245:
 3708              		.loc 1 1410 5 is_stmt 1 view .LVU1023
 3709              		.loc 1 1410 8 is_stmt 0 view .LVU1024
 3710 01b8 062A     		cmp	r2, #6
 3711 01ba 0FD0     		beq	.L325
 3712              		.loc 1 1412 7 is_stmt 1 view .LVU1025
 3713 01bc 1A68     		ldr	r2, [r3]
 3714              	.LVL246:
 3715              		.loc 1 1412 7 is_stmt 0 view .LVU1026
 3716 01be 42F00102 		orr	r2, r2, #1
 3717 01c2 1A60     		str	r2, [r3]
 3718              		.loc 1 1421 10 view .LVU1027
 3719 01c4 0020     		movs	r0, #0
 3720 01c6 02E0     		b	.L304
 3721              	.LVL247:
 3722              	.L319:
 3723              		.loc 1 1316 12 view .LVU1028
 3724 01c8 0220     		movs	r0, #2
 3725 01ca 00E0     		b	.L304
 3726              	.LVL248:
 3727              	.L320:
 3728              		.loc 1 1331 12 view .LVU1029
 3729 01cc 0120     		movs	r0, #1
 3730              	.LVL249:
 3731              	.L304:
 3732              		.loc 1 1422 1 view .LVU1030
 3733 01ce 70BD     		pop	{r4, r5, r6, pc}
 3734              	.LVL250:
 3735              	.L322:
 3736              		.loc 1 1349 16 view .LVU1031
 3737 01d0 0120     		movs	r0, #1
 3738 01d2 FCE7     		b	.L304
 3739              	.L323:
 3740              		.loc 1 1369 16 view .LVU1032
 3741 01d4 0120     		movs	r0, #1
 3742 01d6 FAE7     		b	.L304
 3743              	.L324:
 3744              		.loc 1 1389 16 view .LVU1033
 3745 01d8 0120     		movs	r0, #1
 3746 01da F8E7     		b	.L304
 3747              	.LVL251:
 3748              	.L325:
 3749              		.loc 1 1421 10 view .LVU1034
 3750 01dc 0020     		movs	r0, #0
 3751 01de F6E7     		b	.L304
ARM GAS  C:\Users\38164\AppData\Local\Temp\ccqIV1nl.s 			page 66


 3752              	.L336:
 3753              		.align	2
 3754              	.L335:
 3755 01e0 00000000 		.word	TIM_CCxNChannelCmd
 3756 01e4 002C0140 		.word	1073818624
 3757 01e8 00000000 		.word	TIM_DMADelayPulseNCplt
 3758 01ec 00000000 		.word	TIM_DMADelayPulseHalfCplt
 3759 01f0 00000000 		.word	TIM_DMAErrorCCxN
 3760 01f4 00000000 		.word	HAL_DMA_Start_IT
 3761              		.cfi_endproc
 3762              	.LFE85:
 3764              		.section	.text.HAL_TIMEx_PWMN_Stop_DMA,"ax",%progbits
 3765              		.align	1
 3766              		.global	HAL_TIMEx_PWMN_Stop_DMA
 3767              		.syntax unified
 3768              		.thumb
 3769              		.thumb_func
 3770              		.fpu softvfp
 3772              	HAL_TIMEx_PWMN_Stop_DMA:
 3773              	.LVL252:
 3774              	.LFB86:
 3775              		.loc 1 1436 1 is_stmt 1 view -0
 3776              		.cfi_startproc
 3777              		@ args = 0, pretend = 0, frame = 0
 3778              		@ frame_needed = 0, uses_anonymous_args = 0
 3779              		.loc 1 1436 1 is_stmt 0 view .LVU1036
 3780 0000 38B5     		push	{r3, r4, r5, lr}
 3781              	.LCFI27:
 3782              		.cfi_def_cfa_offset 16
 3783              		.cfi_offset 3, -16
 3784              		.cfi_offset 4, -12
 3785              		.cfi_offset 5, -8
 3786              		.cfi_offset 14, -4
 3787 0002 0546     		mov	r5, r0
 3788 0004 0C46     		mov	r4, r1
 3789              		.loc 1 1438 3 is_stmt 1 view .LVU1037
 3790              		.loc 1 1440 3 view .LVU1038
 3791 0006 0429     		cmp	r1, #4
 3792 0008 34D0     		beq	.L338
 3793 000a 0829     		cmp	r1, #8
 3794 000c 3BD0     		beq	.L339
 3795 000e 41B3     		cbz	r1, .L348
 3796              	.LVL253:
 3797              	.L340:
 3798              		.loc 1 1471 3 view .LVU1039
 3799 0010 0022     		movs	r2, #0
 3800 0012 2146     		mov	r1, r4
 3801 0014 2868     		ldr	r0, [r5]
 3802 0016 284B     		ldr	r3, .L351
 3803 0018 9847     		blx	r3
 3804              	.LVL254:
 3805              		.loc 1 1474 3 view .LVU1040
 3806              		.loc 1 1474 3 view .LVU1041
 3807 001a 2B68     		ldr	r3, [r5]
 3808 001c 196A     		ldr	r1, [r3, #32]
 3809 001e 41F21112 		movw	r2, #4369
 3810 0022 1142     		tst	r1, r2
ARM GAS  C:\Users\38164\AppData\Local\Temp\ccqIV1nl.s 			page 67


 3811 0024 08D1     		bne	.L341
 3812              		.loc 1 1474 3 discriminator 1 view .LVU1042
 3813 0026 196A     		ldr	r1, [r3, #32]
 3814 0028 40F24442 		movw	r2, #1092
 3815 002c 1142     		tst	r1, r2
 3816 002e 03D1     		bne	.L341
 3817              		.loc 1 1474 3 discriminator 3 view .LVU1043
 3818 0030 5A6C     		ldr	r2, [r3, #68]
 3819 0032 22F40042 		bic	r2, r2, #32768
 3820 0036 5A64     		str	r2, [r3, #68]
 3821              	.L341:
 3822              		.loc 1 1474 3 discriminator 5 view .LVU1044
 3823              		.loc 1 1477 3 discriminator 5 view .LVU1045
 3824              		.loc 1 1477 3 discriminator 5 view .LVU1046
 3825 0038 2B68     		ldr	r3, [r5]
 3826 003a 196A     		ldr	r1, [r3, #32]
 3827 003c 41F21112 		movw	r2, #4369
 3828 0040 1142     		tst	r1, r2
 3829 0042 08D1     		bne	.L342
 3830              		.loc 1 1477 3 discriminator 1 view .LVU1047
 3831 0044 196A     		ldr	r1, [r3, #32]
 3832 0046 40F24442 		movw	r2, #1092
 3833 004a 1142     		tst	r1, r2
 3834 004c 03D1     		bne	.L342
 3835              		.loc 1 1477 3 discriminator 3 view .LVU1048
 3836 004e 1A68     		ldr	r2, [r3]
 3837 0050 22F00102 		bic	r2, r2, #1
 3838 0054 1A60     		str	r2, [r3]
 3839              	.L342:
 3840              		.loc 1 1477 3 discriminator 5 view .LVU1049
 3841              		.loc 1 1480 3 discriminator 5 view .LVU1050
 3842 0056 FCB9     		cbnz	r4, .L343
 3843              		.loc 1 1480 3 is_stmt 0 discriminator 1 view .LVU1051
 3844 0058 0123     		movs	r3, #1
 3845 005a 85F84230 		strb	r3, [r5, #66]
 3846              	.L344:
 3847              		.loc 1 1483 3 is_stmt 1 view .LVU1052
 3848              		.loc 1 1484 1 is_stmt 0 view .LVU1053
 3849 005e 0020     		movs	r0, #0
 3850 0060 38BD     		pop	{r3, r4, r5, pc}
 3851              	.LVL255:
 3852              	.L348:
 3853              		.loc 1 1445 7 is_stmt 1 view .LVU1054
 3854 0062 0268     		ldr	r2, [r0]
 3855 0064 D368     		ldr	r3, [r2, #12]
 3856 0066 23F40073 		bic	r3, r3, #512
 3857 006a D360     		str	r3, [r2, #12]
 3858              		.loc 1 1446 7 view .LVU1055
 3859              		.loc 1 1446 13 is_stmt 0 view .LVU1056
 3860 006c 406A     		ldr	r0, [r0, #36]
 3861              	.LVL256:
 3862              		.loc 1 1446 13 view .LVU1057
 3863 006e 134B     		ldr	r3, .L351+4
 3864 0070 9847     		blx	r3
 3865              	.LVL257:
 3866              		.loc 1 1447 7 is_stmt 1 view .LVU1058
 3867 0072 CDE7     		b	.L340
ARM GAS  C:\Users\38164\AppData\Local\Temp\ccqIV1nl.s 			page 68


 3868              	.LVL258:
 3869              	.L338:
 3870              		.loc 1 1453 7 view .LVU1059
 3871 0074 0268     		ldr	r2, [r0]
 3872 0076 D368     		ldr	r3, [r2, #12]
 3873 0078 23F48063 		bic	r3, r3, #1024
 3874 007c D360     		str	r3, [r2, #12]
 3875              		.loc 1 1454 7 view .LVU1060
 3876              		.loc 1 1454 13 is_stmt 0 view .LVU1061
 3877 007e 806A     		ldr	r0, [r0, #40]
 3878              	.LVL259:
 3879              		.loc 1 1454 13 view .LVU1062
 3880 0080 0E4B     		ldr	r3, .L351+4
 3881 0082 9847     		blx	r3
 3882              	.LVL260:
 3883              		.loc 1 1455 7 is_stmt 1 view .LVU1063
 3884 0084 C4E7     		b	.L340
 3885              	.LVL261:
 3886              	.L339:
 3887              		.loc 1 1461 7 view .LVU1064
 3888 0086 0268     		ldr	r2, [r0]
 3889 0088 D368     		ldr	r3, [r2, #12]
 3890 008a 23F40063 		bic	r3, r3, #2048
 3891 008e D360     		str	r3, [r2, #12]
 3892              		.loc 1 1462 7 view .LVU1065
 3893              		.loc 1 1462 13 is_stmt 0 view .LVU1066
 3894 0090 C06A     		ldr	r0, [r0, #44]
 3895              	.LVL262:
 3896              		.loc 1 1462 13 view .LVU1067
 3897 0092 0A4B     		ldr	r3, .L351+4
 3898 0094 9847     		blx	r3
 3899              	.LVL263:
 3900              		.loc 1 1463 7 is_stmt 1 view .LVU1068
 3901 0096 BBE7     		b	.L340
 3902              	.L343:
 3903              		.loc 1 1480 3 is_stmt 0 discriminator 2 view .LVU1069
 3904 0098 042C     		cmp	r4, #4
 3905 009a 05D0     		beq	.L349
 3906              		.loc 1 1480 3 discriminator 4 view .LVU1070
 3907 009c 082C     		cmp	r4, #8
 3908 009e 07D0     		beq	.L350
 3909              		.loc 1 1480 3 discriminator 7 view .LVU1071
 3910 00a0 0123     		movs	r3, #1
 3911 00a2 85F84530 		strb	r3, [r5, #69]
 3912 00a6 DAE7     		b	.L344
 3913              	.L349:
 3914              		.loc 1 1480 3 discriminator 3 view .LVU1072
 3915 00a8 0123     		movs	r3, #1
 3916 00aa 85F84330 		strb	r3, [r5, #67]
 3917 00ae D6E7     		b	.L344
 3918              	.L350:
 3919              		.loc 1 1480 3 discriminator 6 view .LVU1073
 3920 00b0 0123     		movs	r3, #1
 3921 00b2 85F84430 		strb	r3, [r5, #68]
 3922 00b6 D2E7     		b	.L344
 3923              	.L352:
 3924              		.align	2
ARM GAS  C:\Users\38164\AppData\Local\Temp\ccqIV1nl.s 			page 69


 3925              	.L351:
 3926 00b8 00000000 		.word	TIM_CCxNChannelCmd
 3927 00bc 00000000 		.word	HAL_DMA_Abort_IT
 3928              		.cfi_endproc
 3929              	.LFE86:
 3931              		.section	.text.HAL_TIMEx_OnePulseN_Start,"ax",%progbits
 3932              		.align	1
 3933              		.global	HAL_TIMEx_OnePulseN_Start
 3934              		.syntax unified
 3935              		.thumb
 3936              		.thumb_func
 3937              		.fpu softvfp
 3939              	HAL_TIMEx_OnePulseN_Start:
 3940              	.LVL264:
 3941              	.LFB87:
 3942              		.loc 1 1519 1 is_stmt 1 view -0
 3943              		.cfi_startproc
 3944              		@ args = 0, pretend = 0, frame = 0
 3945              		@ frame_needed = 0, uses_anonymous_args = 0
 3946              		.loc 1 1519 1 is_stmt 0 view .LVU1075
 3947 0000 38B5     		push	{r3, r4, r5, lr}
 3948              	.LCFI28:
 3949              		.cfi_def_cfa_offset 16
 3950              		.cfi_offset 3, -16
 3951              		.cfi_offset 4, -12
 3952              		.cfi_offset 5, -8
 3953              		.cfi_offset 14, -4
 3954 0002 0446     		mov	r4, r0
 3955              		.loc 1 1520 3 is_stmt 1 view .LVU1076
 3956              		.loc 1 1520 77 is_stmt 0 view .LVU1077
 3957 0004 0B46     		mov	r3, r1
 3958 0006 29B3     		cbz	r1, .L354
 3959              	.LVL265:
 3960              		.loc 1 1521 3 is_stmt 1 view .LVU1078
 3961              		.loc 1 1521 53 is_stmt 0 view .LVU1079
 3962 0008 90F83E20 		ldrb	r2, [r0, #62]	@ zero_extendqisi2
 3963 000c D2B2     		uxtb	r2, r2
 3964              		.loc 1 1520 77 view .LVU1080
 3965 000e 0025     		movs	r5, #0
 3966              	.LVL266:
 3967              	.L355:
 3968              		.loc 1 1522 3 is_stmt 1 discriminator 12 view .LVU1081
 3969              		.loc 1 1522 54 is_stmt 0 discriminator 12 view .LVU1082
 3970 0010 2BBB     		cbnz	r3, .L356
 3971              		.loc 1 1522 54 discriminator 1 view .LVU1083
 3972 0012 94F84200 		ldrb	r0, [r4, #66]	@ zero_extendqisi2
 3973              	.LVL267:
 3974              		.loc 1 1522 54 discriminator 1 view .LVU1084
 3975 0016 C0B2     		uxtb	r0, r0
 3976              	.L357:
 3977              	.LVL268:
 3978              		.loc 1 1525 3 is_stmt 1 discriminator 12 view .LVU1085
 3979              		.loc 1 1528 3 discriminator 12 view .LVU1086
 3980              		.loc 1 1528 6 is_stmt 0 discriminator 12 view .LVU1087
 3981 0018 0128     		cmp	r0, #1
 3982 001a 49D1     		bne	.L368
 3983              		.loc 1 1529 7 view .LVU1088
ARM GAS  C:\Users\38164\AppData\Local\Temp\ccqIV1nl.s 			page 70


 3984 001c 012A     		cmp	r2, #1
 3985 001e 48D1     		bne	.L360
 3986              		.loc 1 1535 3 is_stmt 1 view .LVU1089
 3987 0020 6BBB     		cbnz	r3, .L361
 3988              		.loc 1 1535 3 is_stmt 0 discriminator 1 view .LVU1090
 3989 0022 0222     		movs	r2, #2
 3990              	.LVL269:
 3991              		.loc 1 1535 3 discriminator 1 view .LVU1091
 3992 0024 84F84220 		strb	r2, [r4, #66]
 3993              	.L362:
 3994              		.loc 1 1536 3 is_stmt 1 view .LVU1092
 3995 0028 002D     		cmp	r5, #0
 3996 002a 38D1     		bne	.L365
 3997              		.loc 1 1536 3 is_stmt 0 discriminator 1 view .LVU1093
 3998 002c 0222     		movs	r2, #2
 3999 002e 84F83E20 		strb	r2, [r4, #62]
 4000              	.L366:
 4001              		.loc 1 1539 3 is_stmt 1 view .LVU1094
 4002 0032 0422     		movs	r2, #4
 4003 0034 1946     		mov	r1, r3
 4004              	.LVL270:
 4005              		.loc 1 1539 3 is_stmt 0 view .LVU1095
 4006 0036 2068     		ldr	r0, [r4]
 4007              	.LVL271:
 4008              		.loc 1 1539 3 view .LVU1096
 4009 0038 1E4B     		ldr	r3, .L375
 4010              	.LVL272:
 4011              		.loc 1 1539 3 view .LVU1097
 4012 003a 9847     		blx	r3
 4013              	.LVL273:
 4014              		.loc 1 1540 3 is_stmt 1 view .LVU1098
 4015 003c 0122     		movs	r2, #1
 4016 003e 2946     		mov	r1, r5
 4017 0040 2068     		ldr	r0, [r4]
 4018 0042 1D4B     		ldr	r3, .L375+4
 4019 0044 9847     		blx	r3
 4020              	.LVL274:
 4021              		.loc 1 1543 3 view .LVU1099
 4022 0046 2268     		ldr	r2, [r4]
 4023 0048 536C     		ldr	r3, [r2, #68]
 4024 004a 43F40043 		orr	r3, r3, #32768
 4025 004e 5364     		str	r3, [r2, #68]
 4026              		.loc 1 1546 3 view .LVU1100
 4027              		.loc 1 1546 10 is_stmt 0 view .LVU1101
 4028 0050 0020     		movs	r0, #0
 4029 0052 2EE0     		b	.L360
 4030              	.LVL275:
 4031              	.L354:
 4032              		.loc 1 1521 3 is_stmt 1 discriminator 4 view .LVU1102
 4033              		.loc 1 1521 53 is_stmt 0 discriminator 4 view .LVU1103
 4034 0054 90F83F20 		ldrb	r2, [r0, #63]	@ zero_extendqisi2
 4035 0058 D2B2     		uxtb	r2, r2
 4036              		.loc 1 1520 77 discriminator 4 view .LVU1104
 4037 005a 0425     		movs	r5, #4
 4038 005c D8E7     		b	.L355
 4039              	.LVL276:
 4040              	.L356:
ARM GAS  C:\Users\38164\AppData\Local\Temp\ccqIV1nl.s 			page 71


 4041              		.loc 1 1522 54 discriminator 2 view .LVU1105
 4042 005e 042B     		cmp	r3, #4
 4043 0060 05D0     		beq	.L370
 4044              		.loc 1 1522 54 discriminator 5 view .LVU1106
 4045 0062 082B     		cmp	r3, #8
 4046 0064 07D0     		beq	.L371
 4047              		.loc 1 1522 54 discriminator 8 view .LVU1107
 4048 0066 94F84500 		ldrb	r0, [r4, #69]	@ zero_extendqisi2
 4049              	.LVL277:
 4050              		.loc 1 1522 54 discriminator 8 view .LVU1108
 4051 006a C0B2     		uxtb	r0, r0
 4052 006c D4E7     		b	.L357
 4053              	.LVL278:
 4054              	.L370:
 4055              		.loc 1 1522 54 discriminator 4 view .LVU1109
 4056 006e 94F84300 		ldrb	r0, [r4, #67]	@ zero_extendqisi2
 4057              	.LVL279:
 4058              		.loc 1 1522 54 discriminator 4 view .LVU1110
 4059 0072 C0B2     		uxtb	r0, r0
 4060 0074 D0E7     		b	.L357
 4061              	.LVL280:
 4062              	.L371:
 4063              		.loc 1 1522 54 discriminator 7 view .LVU1111
 4064 0076 94F84400 		ldrb	r0, [r4, #68]	@ zero_extendqisi2
 4065              	.LVL281:
 4066              		.loc 1 1522 54 discriminator 7 view .LVU1112
 4067 007a C0B2     		uxtb	r0, r0
 4068 007c CCE7     		b	.L357
 4069              	.LVL282:
 4070              	.L361:
 4071              		.loc 1 1535 3 discriminator 2 view .LVU1113
 4072 007e 042B     		cmp	r3, #4
 4073 0080 05D0     		beq	.L372
 4074              		.loc 1 1535 3 discriminator 4 view .LVU1114
 4075 0082 082B     		cmp	r3, #8
 4076 0084 07D0     		beq	.L373
 4077              		.loc 1 1535 3 discriminator 7 view .LVU1115
 4078 0086 0222     		movs	r2, #2
 4079              	.LVL283:
 4080              		.loc 1 1535 3 discriminator 7 view .LVU1116
 4081 0088 84F84520 		strb	r2, [r4, #69]
 4082 008c CCE7     		b	.L362
 4083              	.LVL284:
 4084              	.L372:
 4085              		.loc 1 1535 3 discriminator 3 view .LVU1117
 4086 008e 0222     		movs	r2, #2
 4087              	.LVL285:
 4088              		.loc 1 1535 3 discriminator 3 view .LVU1118
 4089 0090 84F84320 		strb	r2, [r4, #67]
 4090 0094 C8E7     		b	.L362
 4091              	.LVL286:
 4092              	.L373:
 4093              		.loc 1 1535 3 discriminator 6 view .LVU1119
 4094 0096 0222     		movs	r2, #2
 4095              	.LVL287:
 4096              		.loc 1 1535 3 discriminator 6 view .LVU1120
 4097 0098 84F84420 		strb	r2, [r4, #68]
ARM GAS  C:\Users\38164\AppData\Local\Temp\ccqIV1nl.s 			page 72


 4098 009c C4E7     		b	.L362
 4099              	.L365:
 4100              		.loc 1 1536 3 discriminator 2 view .LVU1121
 4101 009e 1DB9     		cbnz	r5, .L374
 4102              		.loc 1 1536 3 discriminator 7 view .LVU1122
 4103 00a0 0222     		movs	r2, #2
 4104 00a2 84F84120 		strb	r2, [r4, #65]
 4105 00a6 C4E7     		b	.L366
 4106              	.L374:
 4107              		.loc 1 1536 3 discriminator 3 view .LVU1123
 4108 00a8 0222     		movs	r2, #2
 4109 00aa 84F83F20 		strb	r2, [r4, #63]
 4110 00ae C0E7     		b	.L366
 4111              	.LVL288:
 4112              	.L368:
 4113              		.loc 1 1531 12 view .LVU1124
 4114 00b0 0120     		movs	r0, #1
 4115              	.LVL289:
 4116              	.L360:
 4117              		.loc 1 1547 1 view .LVU1125
 4118 00b2 38BD     		pop	{r3, r4, r5, pc}
 4119              	.LVL290:
 4120              	.L376:
 4121              		.loc 1 1547 1 view .LVU1126
 4122              		.align	2
 4123              	.L375:
 4124 00b4 00000000 		.word	TIM_CCxNChannelCmd
 4125 00b8 00000000 		.word	TIM_CCxChannelCmd
 4126              		.cfi_endproc
 4127              	.LFE87:
 4129              		.section	.text.HAL_TIMEx_OnePulseN_Stop,"ax",%progbits
 4130              		.align	1
 4131              		.global	HAL_TIMEx_OnePulseN_Stop
 4132              		.syntax unified
 4133              		.thumb
 4134              		.thumb_func
 4135              		.fpu softvfp
 4137              	HAL_TIMEx_OnePulseN_Stop:
 4138              	.LVL291:
 4139              	.LFB88:
 4140              		.loc 1 1560 1 is_stmt 1 view -0
 4141              		.cfi_startproc
 4142              		@ args = 0, pretend = 0, frame = 0
 4143              		@ frame_needed = 0, uses_anonymous_args = 0
 4144              		.loc 1 1560 1 is_stmt 0 view .LVU1128
 4145 0000 70B5     		push	{r4, r5, r6, lr}
 4146              	.LCFI29:
 4147              		.cfi_def_cfa_offset 16
 4148              		.cfi_offset 4, -16
 4149              		.cfi_offset 5, -12
 4150              		.cfi_offset 6, -8
 4151              		.cfi_offset 14, -4
 4152 0002 0446     		mov	r4, r0
 4153              		.loc 1 1561 3 is_stmt 1 view .LVU1129
 4154              		.loc 1 1561 77 is_stmt 0 view .LVU1130
 4155 0004 0D46     		mov	r5, r1
 4156 0006 0029     		cmp	r1, #0
ARM GAS  C:\Users\38164\AppData\Local\Temp\ccqIV1nl.s 			page 73


 4157 0008 32D1     		bne	.L388
 4158 000a 0426     		movs	r6, #4
 4159              	.L378:
 4160              	.LVL292:
 4161              		.loc 1 1564 3 is_stmt 1 discriminator 4 view .LVU1131
 4162              		.loc 1 1567 3 discriminator 4 view .LVU1132
 4163 000c 0022     		movs	r2, #0
 4164 000e 2946     		mov	r1, r5
 4165              	.LVL293:
 4166              		.loc 1 1567 3 is_stmt 0 discriminator 4 view .LVU1133
 4167 0010 2068     		ldr	r0, [r4]
 4168              	.LVL294:
 4169              		.loc 1 1567 3 discriminator 4 view .LVU1134
 4170 0012 254B     		ldr	r3, .L393
 4171 0014 9847     		blx	r3
 4172              	.LVL295:
 4173              		.loc 1 1568 3 is_stmt 1 discriminator 4 view .LVU1135
 4174 0016 0022     		movs	r2, #0
 4175 0018 3146     		mov	r1, r6
 4176 001a 2068     		ldr	r0, [r4]
 4177 001c 234B     		ldr	r3, .L393+4
 4178 001e 9847     		blx	r3
 4179              	.LVL296:
 4180              		.loc 1 1571 3 discriminator 4 view .LVU1136
 4181              		.loc 1 1571 3 discriminator 4 view .LVU1137
 4182 0020 2368     		ldr	r3, [r4]
 4183 0022 196A     		ldr	r1, [r3, #32]
 4184 0024 41F21112 		movw	r2, #4369
 4185 0028 1142     		tst	r1, r2
 4186 002a 08D1     		bne	.L379
 4187              		.loc 1 1571 3 discriminator 1 view .LVU1138
 4188 002c 196A     		ldr	r1, [r3, #32]
 4189 002e 40F24442 		movw	r2, #1092
 4190 0032 1142     		tst	r1, r2
 4191 0034 03D1     		bne	.L379
 4192              		.loc 1 1571 3 discriminator 3 view .LVU1139
 4193 0036 5A6C     		ldr	r2, [r3, #68]
 4194 0038 22F40042 		bic	r2, r2, #32768
 4195 003c 5A64     		str	r2, [r3, #68]
 4196              	.L379:
 4197              		.loc 1 1571 3 discriminator 5 view .LVU1140
 4198              		.loc 1 1574 3 discriminator 5 view .LVU1141
 4199              		.loc 1 1574 3 discriminator 5 view .LVU1142
 4200 003e 2368     		ldr	r3, [r4]
 4201 0040 196A     		ldr	r1, [r3, #32]
 4202 0042 41F21112 		movw	r2, #4369
 4203 0046 1142     		tst	r1, r2
 4204 0048 08D1     		bne	.L380
 4205              		.loc 1 1574 3 discriminator 1 view .LVU1143
 4206 004a 196A     		ldr	r1, [r3, #32]
 4207 004c 40F24442 		movw	r2, #1092
 4208 0050 1142     		tst	r1, r2
 4209 0052 03D1     		bne	.L380
 4210              		.loc 1 1574 3 discriminator 3 view .LVU1144
 4211 0054 1A68     		ldr	r2, [r3]
 4212 0056 22F00102 		bic	r2, r2, #1
 4213 005a 1A60     		str	r2, [r3]
ARM GAS  C:\Users\38164\AppData\Local\Temp\ccqIV1nl.s 			page 74


 4214              	.L380:
 4215              		.loc 1 1574 3 discriminator 5 view .LVU1145
 4216              		.loc 1 1577 3 discriminator 5 view .LVU1146
 4217 005c 55B9     		cbnz	r5, .L381
 4218              		.loc 1 1577 3 is_stmt 0 discriminator 1 view .LVU1147
 4219 005e 0123     		movs	r3, #1
 4220 0060 84F84230 		strb	r3, [r4, #66]
 4221              	.L382:
 4222              		.loc 1 1578 3 is_stmt 1 view .LVU1148
 4223 0064 B6B9     		cbnz	r6, .L385
 4224              		.loc 1 1578 3 is_stmt 0 discriminator 1 view .LVU1149
 4225 0066 0123     		movs	r3, #1
 4226 0068 84F83E30 		strb	r3, [r4, #62]
 4227              	.L386:
 4228              		.loc 1 1581 3 is_stmt 1 view .LVU1150
 4229              		.loc 1 1582 1 is_stmt 0 view .LVU1151
 4230 006c 0020     		movs	r0, #0
 4231 006e 70BD     		pop	{r4, r5, r6, pc}
 4232              	.LVL297:
 4233              	.L388:
 4234              		.loc 1 1561 77 view .LVU1152
 4235 0070 0026     		movs	r6, #0
 4236 0072 CBE7     		b	.L378
 4237              	.LVL298:
 4238              	.L381:
 4239              		.loc 1 1577 3 discriminator 2 view .LVU1153
 4240 0074 042D     		cmp	r5, #4
 4241 0076 05D0     		beq	.L390
 4242              		.loc 1 1577 3 discriminator 4 view .LVU1154
 4243 0078 082D     		cmp	r5, #8
 4244 007a 07D0     		beq	.L391
 4245              		.loc 1 1577 3 discriminator 7 view .LVU1155
 4246 007c 0123     		movs	r3, #1
 4247 007e 84F84530 		strb	r3, [r4, #69]
 4248 0082 EFE7     		b	.L382
 4249              	.L390:
 4250              		.loc 1 1577 3 discriminator 3 view .LVU1156
 4251 0084 0123     		movs	r3, #1
 4252 0086 84F84330 		strb	r3, [r4, #67]
 4253 008a EBE7     		b	.L382
 4254              	.L391:
 4255              		.loc 1 1577 3 discriminator 6 view .LVU1157
 4256 008c 0123     		movs	r3, #1
 4257 008e 84F84430 		strb	r3, [r4, #68]
 4258 0092 E7E7     		b	.L382
 4259              	.L385:
 4260              		.loc 1 1578 3 discriminator 2 view .LVU1158
 4261 0094 1EB9     		cbnz	r6, .L392
 4262              		.loc 1 1578 3 discriminator 7 view .LVU1159
 4263 0096 0123     		movs	r3, #1
 4264 0098 84F84130 		strb	r3, [r4, #65]
 4265 009c E6E7     		b	.L386
 4266              	.L392:
 4267              		.loc 1 1578 3 discriminator 3 view .LVU1160
 4268 009e 0123     		movs	r3, #1
 4269 00a0 84F83F30 		strb	r3, [r4, #63]
 4270 00a4 E2E7     		b	.L386
ARM GAS  C:\Users\38164\AppData\Local\Temp\ccqIV1nl.s 			page 75


 4271              	.L394:
 4272 00a6 00BF     		.align	2
 4273              	.L393:
 4274 00a8 00000000 		.word	TIM_CCxNChannelCmd
 4275 00ac 00000000 		.word	TIM_CCxChannelCmd
 4276              		.cfi_endproc
 4277              	.LFE88:
 4279              		.section	.text.HAL_TIMEx_OnePulseN_Start_IT,"ax",%progbits
 4280              		.align	1
 4281              		.global	HAL_TIMEx_OnePulseN_Start_IT
 4282              		.syntax unified
 4283              		.thumb
 4284              		.thumb_func
 4285              		.fpu softvfp
 4287              	HAL_TIMEx_OnePulseN_Start_IT:
 4288              	.LVL299:
 4289              	.LFB89:
 4290              		.loc 1 1595 1 is_stmt 1 view -0
 4291              		.cfi_startproc
 4292              		@ args = 0, pretend = 0, frame = 0
 4293              		@ frame_needed = 0, uses_anonymous_args = 0
 4294              		.loc 1 1595 1 is_stmt 0 view .LVU1162
 4295 0000 38B5     		push	{r3, r4, r5, lr}
 4296              	.LCFI30:
 4297              		.cfi_def_cfa_offset 16
 4298              		.cfi_offset 3, -16
 4299              		.cfi_offset 4, -12
 4300              		.cfi_offset 5, -8
 4301              		.cfi_offset 14, -4
 4302 0002 0446     		mov	r4, r0
 4303              		.loc 1 1596 3 is_stmt 1 view .LVU1163
 4304              		.loc 1 1596 77 is_stmt 0 view .LVU1164
 4305 0004 0B46     		mov	r3, r1
 4306 0006 0029     		cmp	r1, #0
 4307 0008 31D0     		beq	.L396
 4308              	.LVL300:
 4309              		.loc 1 1597 3 is_stmt 1 view .LVU1165
 4310              		.loc 1 1597 53 is_stmt 0 view .LVU1166
 4311 000a 90F83E20 		ldrb	r2, [r0, #62]	@ zero_extendqisi2
 4312 000e D2B2     		uxtb	r2, r2
 4313              		.loc 1 1596 77 view .LVU1167
 4314 0010 0025     		movs	r5, #0
 4315              	.LVL301:
 4316              	.L397:
 4317              		.loc 1 1598 3 is_stmt 1 discriminator 12 view .LVU1168
 4318              		.loc 1 1598 54 is_stmt 0 discriminator 12 view .LVU1169
 4319 0012 002B     		cmp	r3, #0
 4320 0014 30D1     		bne	.L398
 4321              		.loc 1 1598 54 discriminator 1 view .LVU1170
 4322 0016 94F84200 		ldrb	r0, [r4, #66]	@ zero_extendqisi2
 4323              	.LVL302:
 4324              		.loc 1 1598 54 discriminator 1 view .LVU1171
 4325 001a C0B2     		uxtb	r0, r0
 4326              	.L399:
 4327              	.LVL303:
 4328              		.loc 1 1601 3 is_stmt 1 discriminator 12 view .LVU1172
 4329              		.loc 1 1604 3 discriminator 12 view .LVU1173
ARM GAS  C:\Users\38164\AppData\Local\Temp\ccqIV1nl.s 			page 76


 4330              		.loc 1 1604 6 is_stmt 0 discriminator 12 view .LVU1174
 4331 001c 0128     		cmp	r0, #1
 4332 001e 54D1     		bne	.L410
 4333              		.loc 1 1605 7 view .LVU1175
 4334 0020 012A     		cmp	r2, #1
 4335 0022 53D1     		bne	.L402
 4336              		.loc 1 1611 3 is_stmt 1 view .LVU1176
 4337 0024 002B     		cmp	r3, #0
 4338 0026 37D1     		bne	.L403
 4339              		.loc 1 1611 3 is_stmt 0 discriminator 1 view .LVU1177
 4340 0028 0222     		movs	r2, #2
 4341              	.LVL304:
 4342              		.loc 1 1611 3 discriminator 1 view .LVU1178
 4343 002a 84F84220 		strb	r2, [r4, #66]
 4344              	.L404:
 4345              		.loc 1 1612 3 is_stmt 1 view .LVU1179
 4346 002e 002D     		cmp	r5, #0
 4347 0030 42D1     		bne	.L407
 4348              		.loc 1 1612 3 is_stmt 0 discriminator 1 view .LVU1180
 4349 0032 0222     		movs	r2, #2
 4350 0034 84F83E20 		strb	r2, [r4, #62]
 4351              	.L408:
 4352              		.loc 1 1615 3 is_stmt 1 view .LVU1181
 4353 0038 2168     		ldr	r1, [r4]
 4354              	.LVL305:
 4355              		.loc 1 1615 3 is_stmt 0 view .LVU1182
 4356 003a CA68     		ldr	r2, [r1, #12]
 4357 003c 42F00202 		orr	r2, r2, #2
 4358 0040 CA60     		str	r2, [r1, #12]
 4359              		.loc 1 1618 3 is_stmt 1 view .LVU1183
 4360 0042 2168     		ldr	r1, [r4]
 4361 0044 CA68     		ldr	r2, [r1, #12]
 4362 0046 42F00402 		orr	r2, r2, #4
 4363 004a CA60     		str	r2, [r1, #12]
 4364              		.loc 1 1621 3 view .LVU1184
 4365 004c 0422     		movs	r2, #4
 4366 004e 1946     		mov	r1, r3
 4367 0050 2068     		ldr	r0, [r4]
 4368              	.LVL306:
 4369              		.loc 1 1621 3 is_stmt 0 view .LVU1185
 4370 0052 1F4B     		ldr	r3, .L417
 4371              	.LVL307:
 4372              		.loc 1 1621 3 view .LVU1186
 4373 0054 9847     		blx	r3
 4374              	.LVL308:
 4375              		.loc 1 1622 3 is_stmt 1 view .LVU1187
 4376 0056 0122     		movs	r2, #1
 4377 0058 2946     		mov	r1, r5
 4378 005a 2068     		ldr	r0, [r4]
 4379 005c 1D4B     		ldr	r3, .L417+4
 4380 005e 9847     		blx	r3
 4381              	.LVL309:
 4382              		.loc 1 1625 3 view .LVU1188
 4383 0060 2268     		ldr	r2, [r4]
 4384 0062 536C     		ldr	r3, [r2, #68]
 4385 0064 43F40043 		orr	r3, r3, #32768
 4386 0068 5364     		str	r3, [r2, #68]
ARM GAS  C:\Users\38164\AppData\Local\Temp\ccqIV1nl.s 			page 77


 4387              		.loc 1 1628 3 view .LVU1189
 4388              		.loc 1 1628 10 is_stmt 0 view .LVU1190
 4389 006a 0020     		movs	r0, #0
 4390 006c 2EE0     		b	.L402
 4391              	.LVL310:
 4392              	.L396:
 4393              		.loc 1 1597 3 is_stmt 1 discriminator 4 view .LVU1191
 4394              		.loc 1 1597 53 is_stmt 0 discriminator 4 view .LVU1192
 4395 006e 90F83F20 		ldrb	r2, [r0, #63]	@ zero_extendqisi2
 4396 0072 D2B2     		uxtb	r2, r2
 4397              		.loc 1 1596 77 discriminator 4 view .LVU1193
 4398 0074 0425     		movs	r5, #4
 4399 0076 CCE7     		b	.L397
 4400              	.LVL311:
 4401              	.L398:
 4402              		.loc 1 1598 54 discriminator 2 view .LVU1194
 4403 0078 042B     		cmp	r3, #4
 4404 007a 05D0     		beq	.L412
 4405              		.loc 1 1598 54 discriminator 5 view .LVU1195
 4406 007c 082B     		cmp	r3, #8
 4407 007e 07D0     		beq	.L413
 4408              		.loc 1 1598 54 discriminator 8 view .LVU1196
 4409 0080 94F84500 		ldrb	r0, [r4, #69]	@ zero_extendqisi2
 4410              	.LVL312:
 4411              		.loc 1 1598 54 discriminator 8 view .LVU1197
 4412 0084 C0B2     		uxtb	r0, r0
 4413 0086 C9E7     		b	.L399
 4414              	.LVL313:
 4415              	.L412:
 4416              		.loc 1 1598 54 discriminator 4 view .LVU1198
 4417 0088 94F84300 		ldrb	r0, [r4, #67]	@ zero_extendqisi2
 4418              	.LVL314:
 4419              		.loc 1 1598 54 discriminator 4 view .LVU1199
 4420 008c C0B2     		uxtb	r0, r0
 4421 008e C5E7     		b	.L399
 4422              	.LVL315:
 4423              	.L413:
 4424              		.loc 1 1598 54 discriminator 7 view .LVU1200
 4425 0090 94F84400 		ldrb	r0, [r4, #68]	@ zero_extendqisi2
 4426              	.LVL316:
 4427              		.loc 1 1598 54 discriminator 7 view .LVU1201
 4428 0094 C0B2     		uxtb	r0, r0
 4429 0096 C1E7     		b	.L399
 4430              	.LVL317:
 4431              	.L403:
 4432              		.loc 1 1611 3 discriminator 2 view .LVU1202
 4433 0098 042B     		cmp	r3, #4
 4434 009a 05D0     		beq	.L414
 4435              		.loc 1 1611 3 discriminator 4 view .LVU1203
 4436 009c 082B     		cmp	r3, #8
 4437 009e 07D0     		beq	.L415
 4438              		.loc 1 1611 3 discriminator 7 view .LVU1204
 4439 00a0 0222     		movs	r2, #2
 4440              	.LVL318:
 4441              		.loc 1 1611 3 discriminator 7 view .LVU1205
 4442 00a2 84F84520 		strb	r2, [r4, #69]
 4443 00a6 C2E7     		b	.L404
ARM GAS  C:\Users\38164\AppData\Local\Temp\ccqIV1nl.s 			page 78


 4444              	.LVL319:
 4445              	.L414:
 4446              		.loc 1 1611 3 discriminator 3 view .LVU1206
 4447 00a8 0222     		movs	r2, #2
 4448              	.LVL320:
 4449              		.loc 1 1611 3 discriminator 3 view .LVU1207
 4450 00aa 84F84320 		strb	r2, [r4, #67]
 4451 00ae BEE7     		b	.L404
 4452              	.LVL321:
 4453              	.L415:
 4454              		.loc 1 1611 3 discriminator 6 view .LVU1208
 4455 00b0 0222     		movs	r2, #2
 4456              	.LVL322:
 4457              		.loc 1 1611 3 discriminator 6 view .LVU1209
 4458 00b2 84F84420 		strb	r2, [r4, #68]
 4459 00b6 BAE7     		b	.L404
 4460              	.L407:
 4461              		.loc 1 1612 3 discriminator 2 view .LVU1210
 4462 00b8 1DB9     		cbnz	r5, .L416
 4463              		.loc 1 1612 3 discriminator 7 view .LVU1211
 4464 00ba 0222     		movs	r2, #2
 4465 00bc 84F84120 		strb	r2, [r4, #65]
 4466 00c0 BAE7     		b	.L408
 4467              	.L416:
 4468              		.loc 1 1612 3 discriminator 3 view .LVU1212
 4469 00c2 0222     		movs	r2, #2
 4470 00c4 84F83F20 		strb	r2, [r4, #63]
 4471 00c8 B6E7     		b	.L408
 4472              	.LVL323:
 4473              	.L410:
 4474              		.loc 1 1607 12 view .LVU1213
 4475 00ca 0120     		movs	r0, #1
 4476              	.LVL324:
 4477              	.L402:
 4478              		.loc 1 1629 1 view .LVU1214
 4479 00cc 38BD     		pop	{r3, r4, r5, pc}
 4480              	.LVL325:
 4481              	.L418:
 4482              		.loc 1 1629 1 view .LVU1215
 4483 00ce 00BF     		.align	2
 4484              	.L417:
 4485 00d0 00000000 		.word	TIM_CCxNChannelCmd
 4486 00d4 00000000 		.word	TIM_CCxChannelCmd
 4487              		.cfi_endproc
 4488              	.LFE89:
 4490              		.section	.text.HAL_TIMEx_OnePulseN_Stop_IT,"ax",%progbits
 4491              		.align	1
 4492              		.global	HAL_TIMEx_OnePulseN_Stop_IT
 4493              		.syntax unified
 4494              		.thumb
 4495              		.thumb_func
 4496              		.fpu softvfp
 4498              	HAL_TIMEx_OnePulseN_Stop_IT:
 4499              	.LVL326:
 4500              	.LFB90:
 4501              		.loc 1 1642 1 is_stmt 1 view -0
 4502              		.cfi_startproc
ARM GAS  C:\Users\38164\AppData\Local\Temp\ccqIV1nl.s 			page 79


 4503              		@ args = 0, pretend = 0, frame = 0
 4504              		@ frame_needed = 0, uses_anonymous_args = 0
 4505              		.loc 1 1642 1 is_stmt 0 view .LVU1217
 4506 0000 70B5     		push	{r4, r5, r6, lr}
 4507              	.LCFI31:
 4508              		.cfi_def_cfa_offset 16
 4509              		.cfi_offset 4, -16
 4510              		.cfi_offset 5, -12
 4511              		.cfi_offset 6, -8
 4512              		.cfi_offset 14, -4
 4513 0002 0446     		mov	r4, r0
 4514              		.loc 1 1643 3 is_stmt 1 view .LVU1218
 4515              		.loc 1 1643 77 is_stmt 0 view .LVU1219
 4516 0004 0D46     		mov	r5, r1
 4517 0006 0029     		cmp	r1, #0
 4518 0008 3CD1     		bne	.L430
 4519 000a 0426     		movs	r6, #4
 4520              	.L420:
 4521              	.LVL327:
 4522              		.loc 1 1646 3 is_stmt 1 discriminator 4 view .LVU1220
 4523              		.loc 1 1649 3 discriminator 4 view .LVU1221
 4524 000c 2268     		ldr	r2, [r4]
 4525 000e D368     		ldr	r3, [r2, #12]
 4526 0010 23F00203 		bic	r3, r3, #2
 4527 0014 D360     		str	r3, [r2, #12]
 4528              		.loc 1 1652 3 discriminator 4 view .LVU1222
 4529 0016 2268     		ldr	r2, [r4]
 4530 0018 D368     		ldr	r3, [r2, #12]
 4531 001a 23F00403 		bic	r3, r3, #4
 4532 001e D360     		str	r3, [r2, #12]
 4533              		.loc 1 1655 3 discriminator 4 view .LVU1223
 4534 0020 0022     		movs	r2, #0
 4535 0022 2946     		mov	r1, r5
 4536              	.LVL328:
 4537              		.loc 1 1655 3 is_stmt 0 discriminator 4 view .LVU1224
 4538 0024 2068     		ldr	r0, [r4]
 4539              	.LVL329:
 4540              		.loc 1 1655 3 discriminator 4 view .LVU1225
 4541 0026 254B     		ldr	r3, .L435
 4542 0028 9847     		blx	r3
 4543              	.LVL330:
 4544              		.loc 1 1656 3 is_stmt 1 discriminator 4 view .LVU1226
 4545 002a 0022     		movs	r2, #0
 4546 002c 3146     		mov	r1, r6
 4547 002e 2068     		ldr	r0, [r4]
 4548 0030 234B     		ldr	r3, .L435+4
 4549 0032 9847     		blx	r3
 4550              	.LVL331:
 4551              		.loc 1 1659 3 discriminator 4 view .LVU1227
 4552              		.loc 1 1659 3 discriminator 4 view .LVU1228
 4553 0034 2368     		ldr	r3, [r4]
 4554 0036 196A     		ldr	r1, [r3, #32]
 4555 0038 41F21112 		movw	r2, #4369
 4556 003c 1142     		tst	r1, r2
 4557 003e 08D1     		bne	.L421
 4558              		.loc 1 1659 3 discriminator 1 view .LVU1229
 4559 0040 196A     		ldr	r1, [r3, #32]
ARM GAS  C:\Users\38164\AppData\Local\Temp\ccqIV1nl.s 			page 80


 4560 0042 40F24442 		movw	r2, #1092
 4561 0046 1142     		tst	r1, r2
 4562 0048 03D1     		bne	.L421
 4563              		.loc 1 1659 3 discriminator 3 view .LVU1230
 4564 004a 5A6C     		ldr	r2, [r3, #68]
 4565 004c 22F40042 		bic	r2, r2, #32768
 4566 0050 5A64     		str	r2, [r3, #68]
 4567              	.L421:
 4568              		.loc 1 1659 3 discriminator 5 view .LVU1231
 4569              		.loc 1 1662 3 discriminator 5 view .LVU1232
 4570              		.loc 1 1662 3 discriminator 5 view .LVU1233
 4571 0052 2368     		ldr	r3, [r4]
 4572 0054 196A     		ldr	r1, [r3, #32]
 4573 0056 41F21112 		movw	r2, #4369
 4574 005a 1142     		tst	r1, r2
 4575 005c 08D1     		bne	.L422
 4576              		.loc 1 1662 3 discriminator 1 view .LVU1234
 4577 005e 196A     		ldr	r1, [r3, #32]
 4578 0060 40F24442 		movw	r2, #1092
 4579 0064 1142     		tst	r1, r2
 4580 0066 03D1     		bne	.L422
 4581              		.loc 1 1662 3 discriminator 3 view .LVU1235
 4582 0068 1A68     		ldr	r2, [r3]
 4583 006a 22F00102 		bic	r2, r2, #1
 4584 006e 1A60     		str	r2, [r3]
 4585              	.L422:
 4586              		.loc 1 1662 3 discriminator 5 view .LVU1236
 4587              		.loc 1 1665 3 discriminator 5 view .LVU1237
 4588 0070 55B9     		cbnz	r5, .L423
 4589              		.loc 1 1665 3 is_stmt 0 discriminator 1 view .LVU1238
 4590 0072 0123     		movs	r3, #1
 4591 0074 84F84230 		strb	r3, [r4, #66]
 4592              	.L424:
 4593              		.loc 1 1666 3 is_stmt 1 view .LVU1239
 4594 0078 B6B9     		cbnz	r6, .L427
 4595              		.loc 1 1666 3 is_stmt 0 discriminator 1 view .LVU1240
 4596 007a 0123     		movs	r3, #1
 4597 007c 84F83E30 		strb	r3, [r4, #62]
 4598              	.L428:
 4599              		.loc 1 1669 3 is_stmt 1 view .LVU1241
 4600              		.loc 1 1670 1 is_stmt 0 view .LVU1242
 4601 0080 0020     		movs	r0, #0
 4602 0082 70BD     		pop	{r4, r5, r6, pc}
 4603              	.LVL332:
 4604              	.L430:
 4605              		.loc 1 1643 77 view .LVU1243
 4606 0084 0026     		movs	r6, #0
 4607 0086 C1E7     		b	.L420
 4608              	.LVL333:
 4609              	.L423:
 4610              		.loc 1 1665 3 discriminator 2 view .LVU1244
 4611 0088 042D     		cmp	r5, #4
 4612 008a 05D0     		beq	.L432
 4613              		.loc 1 1665 3 discriminator 4 view .LVU1245
 4614 008c 082D     		cmp	r5, #8
 4615 008e 07D0     		beq	.L433
 4616              		.loc 1 1665 3 discriminator 7 view .LVU1246
ARM GAS  C:\Users\38164\AppData\Local\Temp\ccqIV1nl.s 			page 81


 4617 0090 0123     		movs	r3, #1
 4618 0092 84F84530 		strb	r3, [r4, #69]
 4619 0096 EFE7     		b	.L424
 4620              	.L432:
 4621              		.loc 1 1665 3 discriminator 3 view .LVU1247
 4622 0098 0123     		movs	r3, #1
 4623 009a 84F84330 		strb	r3, [r4, #67]
 4624 009e EBE7     		b	.L424
 4625              	.L433:
 4626              		.loc 1 1665 3 discriminator 6 view .LVU1248
 4627 00a0 0123     		movs	r3, #1
 4628 00a2 84F84430 		strb	r3, [r4, #68]
 4629 00a6 E7E7     		b	.L424
 4630              	.L427:
 4631              		.loc 1 1666 3 discriminator 2 view .LVU1249
 4632 00a8 1EB9     		cbnz	r6, .L434
 4633              		.loc 1 1666 3 discriminator 7 view .LVU1250
 4634 00aa 0123     		movs	r3, #1
 4635 00ac 84F84130 		strb	r3, [r4, #65]
 4636 00b0 E6E7     		b	.L428
 4637              	.L434:
 4638              		.loc 1 1666 3 discriminator 3 view .LVU1251
 4639 00b2 0123     		movs	r3, #1
 4640 00b4 84F83F30 		strb	r3, [r4, #63]
 4641 00b8 E2E7     		b	.L428
 4642              	.L436:
 4643 00ba 00BF     		.align	2
 4644              	.L435:
 4645 00bc 00000000 		.word	TIM_CCxNChannelCmd
 4646 00c0 00000000 		.word	TIM_CCxChannelCmd
 4647              		.cfi_endproc
 4648              	.LFE90:
 4650              		.section	.text.HAL_TIMEx_ConfigCommutEvent,"ax",%progbits
 4651              		.align	1
 4652              		.global	HAL_TIMEx_ConfigCommutEvent
 4653              		.syntax unified
 4654              		.thumb
 4655              		.thumb_func
 4656              		.fpu softvfp
 4658              	HAL_TIMEx_ConfigCommutEvent:
 4659              	.LVL334:
 4660              	.LFB91:
 4661              		.loc 1 1720 1 is_stmt 1 view -0
 4662              		.cfi_startproc
 4663              		@ args = 0, pretend = 0, frame = 0
 4664              		@ frame_needed = 0, uses_anonymous_args = 0
 4665              		@ link register save eliminated.
 4666              		.loc 1 1722 3 view .LVU1253
 4667              		.loc 1 1723 3 view .LVU1254
 4668              		.loc 1 1725 3 view .LVU1255
 4669              		.loc 1 1725 3 view .LVU1256
 4670 0000 90F83C30 		ldrb	r3, [r0, #60]	@ zero_extendqisi2
 4671 0004 012B     		cmp	r3, #1
 4672 0006 31D0     		beq	.L441
 4673              		.loc 1 1720 1 is_stmt 0 discriminator 2 view .LVU1257
 4674 0008 10B4     		push	{r4}
 4675              	.LCFI32:
ARM GAS  C:\Users\38164\AppData\Local\Temp\ccqIV1nl.s 			page 82


 4676              		.cfi_def_cfa_offset 4
 4677              		.cfi_offset 4, -4
 4678              		.loc 1 1725 3 is_stmt 1 discriminator 2 view .LVU1258
 4679 000a 0123     		movs	r3, #1
 4680 000c 80F83C30 		strb	r3, [r0, #60]
 4681              		.loc 1 1725 3 discriminator 2 view .LVU1259
 4682              		.loc 1 1727 3 discriminator 2 view .LVU1260
 4683              		.loc 1 1727 6 is_stmt 0 discriminator 2 view .LVU1261
 4684 0010 29B1     		cbz	r1, .L439
 4685              		.loc 1 1727 37 discriminator 1 view .LVU1262
 4686 0012 1029     		cmp	r1, #16
 4687 0014 03D0     		beq	.L439
 4688              		.loc 1 1727 70 discriminator 2 view .LVU1263
 4689 0016 2029     		cmp	r1, #32
 4690 0018 01D0     		beq	.L439
 4691              		.loc 1 1728 37 view .LVU1264
 4692 001a 3029     		cmp	r1, #48
 4693 001c 08D1     		bne	.L440
 4694              	.L439:
 4695              		.loc 1 1731 5 is_stmt 1 view .LVU1265
 4696              		.loc 1 1731 9 is_stmt 0 view .LVU1266
 4697 001e 0468     		ldr	r4, [r0]
 4698              		.loc 1 1731 26 view .LVU1267
 4699 0020 A368     		ldr	r3, [r4, #8]
 4700 0022 23F07003 		bic	r3, r3, #112
 4701 0026 A360     		str	r3, [r4, #8]
 4702              		.loc 1 1732 5 is_stmt 1 view .LVU1268
 4703              		.loc 1 1732 9 is_stmt 0 view .LVU1269
 4704 0028 0468     		ldr	r4, [r0]
 4705              		.loc 1 1732 26 view .LVU1270
 4706 002a A368     		ldr	r3, [r4, #8]
 4707 002c 1943     		orrs	r1, r1, r3
 4708              	.LVL335:
 4709              		.loc 1 1732 26 view .LVU1271
 4710 002e A160     		str	r1, [r4, #8]
 4711              	.L440:
 4712              		.loc 1 1736 3 is_stmt 1 view .LVU1272
 4713              		.loc 1 1736 7 is_stmt 0 view .LVU1273
 4714 0030 0168     		ldr	r1, [r0]
 4715              		.loc 1 1736 23 view .LVU1274
 4716 0032 4B68     		ldr	r3, [r1, #4]
 4717 0034 43F00103 		orr	r3, r3, #1
 4718 0038 4B60     		str	r3, [r1, #4]
 4719              		.loc 1 1738 3 is_stmt 1 view .LVU1275
 4720              		.loc 1 1738 7 is_stmt 0 view .LVU1276
 4721 003a 0168     		ldr	r1, [r0]
 4722              		.loc 1 1738 23 view .LVU1277
 4723 003c 4B68     		ldr	r3, [r1, #4]
 4724 003e 23F00403 		bic	r3, r3, #4
 4725 0042 4B60     		str	r3, [r1, #4]
 4726              		.loc 1 1739 3 is_stmt 1 view .LVU1278
 4727              		.loc 1 1739 7 is_stmt 0 view .LVU1279
 4728 0044 0168     		ldr	r1, [r0]
 4729              		.loc 1 1739 23 view .LVU1280
 4730 0046 4B68     		ldr	r3, [r1, #4]
 4731 0048 1A43     		orrs	r2, r2, r3
 4732              	.LVL336:
ARM GAS  C:\Users\38164\AppData\Local\Temp\ccqIV1nl.s 			page 83


 4733              		.loc 1 1739 23 view .LVU1281
 4734 004a 4A60     		str	r2, [r1, #4]
 4735              		.loc 1 1742 3 is_stmt 1 view .LVU1282
 4736 004c 0268     		ldr	r2, [r0]
 4737 004e D368     		ldr	r3, [r2, #12]
 4738 0050 23F02003 		bic	r3, r3, #32
 4739 0054 D360     		str	r3, [r2, #12]
 4740              		.loc 1 1745 3 view .LVU1283
 4741 0056 0268     		ldr	r2, [r0]
 4742 0058 D368     		ldr	r3, [r2, #12]
 4743 005a 23F40053 		bic	r3, r3, #8192
 4744 005e D360     		str	r3, [r2, #12]
 4745              		.loc 1 1747 3 view .LVU1284
 4746              		.loc 1 1747 3 view .LVU1285
 4747 0060 0023     		movs	r3, #0
 4748 0062 80F83C30 		strb	r3, [r0, #60]
 4749              		.loc 1 1747 3 view .LVU1286
 4750              		.loc 1 1749 3 view .LVU1287
 4751              		.loc 1 1749 10 is_stmt 0 view .LVU1288
 4752 0066 1846     		mov	r0, r3
 4753              	.LVL337:
 4754              		.loc 1 1750 1 view .LVU1289
 4755 0068 10BC     		pop	{r4}
 4756              	.LCFI33:
 4757              		.cfi_restore 4
 4758              		.cfi_def_cfa_offset 0
 4759 006a 7047     		bx	lr
 4760              	.LVL338:
 4761              	.L441:
 4762              		.loc 1 1725 3 view .LVU1290
 4763 006c 0220     		movs	r0, #2
 4764              	.LVL339:
 4765              		.loc 1 1750 1 view .LVU1291
 4766 006e 7047     		bx	lr
 4767              		.cfi_endproc
 4768              	.LFE91:
 4770              		.section	.text.HAL_TIMEx_ConfigCommutEvent_IT,"ax",%progbits
 4771              		.align	1
 4772              		.global	HAL_TIMEx_ConfigCommutEvent_IT
 4773              		.syntax unified
 4774              		.thumb
 4775              		.thumb_func
 4776              		.fpu softvfp
 4778              	HAL_TIMEx_ConfigCommutEvent_IT:
 4779              	.LVL340:
 4780              	.LFB92:
 4781              		.loc 1 1776 1 is_stmt 1 view -0
 4782              		.cfi_startproc
 4783              		@ args = 0, pretend = 0, frame = 0
 4784              		@ frame_needed = 0, uses_anonymous_args = 0
 4785              		@ link register save eliminated.
 4786              		.loc 1 1778 3 view .LVU1293
 4787              		.loc 1 1779 3 view .LVU1294
 4788              		.loc 1 1781 3 view .LVU1295
 4789              		.loc 1 1781 3 view .LVU1296
 4790 0000 90F83C30 		ldrb	r3, [r0, #60]	@ zero_extendqisi2
 4791 0004 012B     		cmp	r3, #1
ARM GAS  C:\Users\38164\AppData\Local\Temp\ccqIV1nl.s 			page 84


 4792 0006 31D0     		beq	.L450
 4793              		.loc 1 1776 1 is_stmt 0 discriminator 2 view .LVU1297
 4794 0008 10B4     		push	{r4}
 4795              	.LCFI34:
 4796              		.cfi_def_cfa_offset 4
 4797              		.cfi_offset 4, -4
 4798              		.loc 1 1781 3 is_stmt 1 discriminator 2 view .LVU1298
 4799 000a 0123     		movs	r3, #1
 4800 000c 80F83C30 		strb	r3, [r0, #60]
 4801              		.loc 1 1781 3 discriminator 2 view .LVU1299
 4802              		.loc 1 1783 3 discriminator 2 view .LVU1300
 4803              		.loc 1 1783 6 is_stmt 0 discriminator 2 view .LVU1301
 4804 0010 29B1     		cbz	r1, .L448
 4805              		.loc 1 1783 37 discriminator 1 view .LVU1302
 4806 0012 1029     		cmp	r1, #16
 4807 0014 03D0     		beq	.L448
 4808              		.loc 1 1783 70 discriminator 2 view .LVU1303
 4809 0016 2029     		cmp	r1, #32
 4810 0018 01D0     		beq	.L448
 4811              		.loc 1 1784 37 view .LVU1304
 4812 001a 3029     		cmp	r1, #48
 4813 001c 08D1     		bne	.L449
 4814              	.L448:
 4815              		.loc 1 1787 5 is_stmt 1 view .LVU1305
 4816              		.loc 1 1787 9 is_stmt 0 view .LVU1306
 4817 001e 0468     		ldr	r4, [r0]
 4818              		.loc 1 1787 26 view .LVU1307
 4819 0020 A368     		ldr	r3, [r4, #8]
 4820 0022 23F07003 		bic	r3, r3, #112
 4821 0026 A360     		str	r3, [r4, #8]
 4822              		.loc 1 1788 5 is_stmt 1 view .LVU1308
 4823              		.loc 1 1788 9 is_stmt 0 view .LVU1309
 4824 0028 0468     		ldr	r4, [r0]
 4825              		.loc 1 1788 26 view .LVU1310
 4826 002a A368     		ldr	r3, [r4, #8]
 4827 002c 1943     		orrs	r1, r1, r3
 4828              	.LVL341:
 4829              		.loc 1 1788 26 view .LVU1311
 4830 002e A160     		str	r1, [r4, #8]
 4831              	.L449:
 4832              		.loc 1 1792 3 is_stmt 1 view .LVU1312
 4833              		.loc 1 1792 7 is_stmt 0 view .LVU1313
 4834 0030 0168     		ldr	r1, [r0]
 4835              		.loc 1 1792 23 view .LVU1314
 4836 0032 4B68     		ldr	r3, [r1, #4]
 4837 0034 43F00103 		orr	r3, r3, #1
 4838 0038 4B60     		str	r3, [r1, #4]
 4839              		.loc 1 1794 3 is_stmt 1 view .LVU1315
 4840              		.loc 1 1794 7 is_stmt 0 view .LVU1316
 4841 003a 0168     		ldr	r1, [r0]
 4842              		.loc 1 1794 23 view .LVU1317
 4843 003c 4B68     		ldr	r3, [r1, #4]
 4844 003e 23F00403 		bic	r3, r3, #4
 4845 0042 4B60     		str	r3, [r1, #4]
 4846              		.loc 1 1795 3 is_stmt 1 view .LVU1318
 4847              		.loc 1 1795 7 is_stmt 0 view .LVU1319
 4848 0044 0168     		ldr	r1, [r0]
ARM GAS  C:\Users\38164\AppData\Local\Temp\ccqIV1nl.s 			page 85


 4849              		.loc 1 1795 23 view .LVU1320
 4850 0046 4B68     		ldr	r3, [r1, #4]
 4851 0048 1A43     		orrs	r2, r2, r3
 4852              	.LVL342:
 4853              		.loc 1 1795 23 view .LVU1321
 4854 004a 4A60     		str	r2, [r1, #4]
 4855              		.loc 1 1798 3 is_stmt 1 view .LVU1322
 4856 004c 0268     		ldr	r2, [r0]
 4857 004e D368     		ldr	r3, [r2, #12]
 4858 0050 23F40053 		bic	r3, r3, #8192
 4859 0054 D360     		str	r3, [r2, #12]
 4860              		.loc 1 1801 3 view .LVU1323
 4861 0056 0268     		ldr	r2, [r0]
 4862 0058 D368     		ldr	r3, [r2, #12]
 4863 005a 43F02003 		orr	r3, r3, #32
 4864 005e D360     		str	r3, [r2, #12]
 4865              		.loc 1 1803 3 view .LVU1324
 4866              		.loc 1 1803 3 view .LVU1325
 4867 0060 0023     		movs	r3, #0
 4868 0062 80F83C30 		strb	r3, [r0, #60]
 4869              		.loc 1 1803 3 view .LVU1326
 4870              		.loc 1 1805 3 view .LVU1327
 4871              		.loc 1 1805 10 is_stmt 0 view .LVU1328
 4872 0066 1846     		mov	r0, r3
 4873              	.LVL343:
 4874              		.loc 1 1806 1 view .LVU1329
 4875 0068 10BC     		pop	{r4}
 4876              	.LCFI35:
 4877              		.cfi_restore 4
 4878              		.cfi_def_cfa_offset 0
 4879 006a 7047     		bx	lr
 4880              	.LVL344:
 4881              	.L450:
 4882              		.loc 1 1781 3 view .LVU1330
 4883 006c 0220     		movs	r0, #2
 4884              	.LVL345:
 4885              		.loc 1 1806 1 view .LVU1331
 4886 006e 7047     		bx	lr
 4887              		.cfi_endproc
 4888              	.LFE92:
 4890              		.section	.text.HAL_TIMEx_ConfigCommutEvent_DMA,"ax",%progbits
 4891              		.align	1
 4892              		.global	HAL_TIMEx_ConfigCommutEvent_DMA
 4893              		.syntax unified
 4894              		.thumb
 4895              		.thumb_func
 4896              		.fpu softvfp
 4898              	HAL_TIMEx_ConfigCommutEvent_DMA:
 4899              	.LVL346:
 4900              	.LFB93:
 4901              		.loc 1 1833 1 is_stmt 1 view -0
 4902              		.cfi_startproc
 4903              		@ args = 0, pretend = 0, frame = 0
 4904              		@ frame_needed = 0, uses_anonymous_args = 0
 4905              		@ link register save eliminated.
 4906              		.loc 1 1835 3 view .LVU1333
 4907              		.loc 1 1836 3 view .LVU1334
ARM GAS  C:\Users\38164\AppData\Local\Temp\ccqIV1nl.s 			page 86


 4908              		.loc 1 1838 3 view .LVU1335
 4909              		.loc 1 1838 3 view .LVU1336
 4910 0000 90F83C30 		ldrb	r3, [r0, #60]	@ zero_extendqisi2
 4911 0004 012B     		cmp	r3, #1
 4912 0006 3AD0     		beq	.L459
 4913              		.loc 1 1833 1 is_stmt 0 discriminator 2 view .LVU1337
 4914 0008 10B4     		push	{r4}
 4915              	.LCFI36:
 4916              		.cfi_def_cfa_offset 4
 4917              		.cfi_offset 4, -4
 4918              		.loc 1 1838 3 is_stmt 1 discriminator 2 view .LVU1338
 4919 000a 0123     		movs	r3, #1
 4920 000c 80F83C30 		strb	r3, [r0, #60]
 4921              		.loc 1 1838 3 discriminator 2 view .LVU1339
 4922              		.loc 1 1840 3 discriminator 2 view .LVU1340
 4923              		.loc 1 1840 6 is_stmt 0 discriminator 2 view .LVU1341
 4924 0010 29B1     		cbz	r1, .L457
 4925              		.loc 1 1840 37 discriminator 1 view .LVU1342
 4926 0012 1029     		cmp	r1, #16
 4927 0014 03D0     		beq	.L457
 4928              		.loc 1 1840 70 discriminator 2 view .LVU1343
 4929 0016 2029     		cmp	r1, #32
 4930 0018 01D0     		beq	.L457
 4931              		.loc 1 1841 37 view .LVU1344
 4932 001a 3029     		cmp	r1, #48
 4933 001c 08D1     		bne	.L458
 4934              	.L457:
 4935              		.loc 1 1844 5 is_stmt 1 view .LVU1345
 4936              		.loc 1 1844 9 is_stmt 0 view .LVU1346
 4937 001e 0468     		ldr	r4, [r0]
 4938              		.loc 1 1844 26 view .LVU1347
 4939 0020 A368     		ldr	r3, [r4, #8]
 4940 0022 23F07003 		bic	r3, r3, #112
 4941 0026 A360     		str	r3, [r4, #8]
 4942              		.loc 1 1845 5 is_stmt 1 view .LVU1348
 4943              		.loc 1 1845 9 is_stmt 0 view .LVU1349
 4944 0028 0468     		ldr	r4, [r0]
 4945              		.loc 1 1845 26 view .LVU1350
 4946 002a A368     		ldr	r3, [r4, #8]
 4947 002c 1943     		orrs	r1, r1, r3
 4948              	.LVL347:
 4949              		.loc 1 1845 26 view .LVU1351
 4950 002e A160     		str	r1, [r4, #8]
 4951              	.L458:
 4952              		.loc 1 1849 3 is_stmt 1 view .LVU1352
 4953              		.loc 1 1849 7 is_stmt 0 view .LVU1353
 4954 0030 0168     		ldr	r1, [r0]
 4955              		.loc 1 1849 23 view .LVU1354
 4956 0032 4B68     		ldr	r3, [r1, #4]
 4957 0034 43F00103 		orr	r3, r3, #1
 4958 0038 4B60     		str	r3, [r1, #4]
 4959              		.loc 1 1851 3 is_stmt 1 view .LVU1355
 4960              		.loc 1 1851 7 is_stmt 0 view .LVU1356
 4961 003a 0168     		ldr	r1, [r0]
 4962              		.loc 1 1851 23 view .LVU1357
 4963 003c 4B68     		ldr	r3, [r1, #4]
 4964 003e 23F00403 		bic	r3, r3, #4
ARM GAS  C:\Users\38164\AppData\Local\Temp\ccqIV1nl.s 			page 87


 4965 0042 4B60     		str	r3, [r1, #4]
 4966              		.loc 1 1852 3 is_stmt 1 view .LVU1358
 4967              		.loc 1 1852 7 is_stmt 0 view .LVU1359
 4968 0044 0168     		ldr	r1, [r0]
 4969              		.loc 1 1852 23 view .LVU1360
 4970 0046 4B68     		ldr	r3, [r1, #4]
 4971 0048 1A43     		orrs	r2, r2, r3
 4972              	.LVL348:
 4973              		.loc 1 1852 23 view .LVU1361
 4974 004a 4A60     		str	r2, [r1, #4]
 4975              		.loc 1 1856 3 is_stmt 1 view .LVU1362
 4976              		.loc 1 1856 13 is_stmt 0 view .LVU1363
 4977 004c 436B     		ldr	r3, [r0, #52]
 4978              		.loc 1 1856 56 view .LVU1364
 4979 004e 0D4A     		ldr	r2, .L464
 4980 0050 9A62     		str	r2, [r3, #40]
 4981              		.loc 1 1857 3 is_stmt 1 view .LVU1365
 4982              		.loc 1 1857 13 is_stmt 0 view .LVU1366
 4983 0052 436B     		ldr	r3, [r0, #52]
 4984              		.loc 1 1857 60 view .LVU1367
 4985 0054 0C4A     		ldr	r2, .L464+4
 4986 0056 DA62     		str	r2, [r3, #44]
 4987              		.loc 1 1859 3 is_stmt 1 view .LVU1368
 4988              		.loc 1 1859 13 is_stmt 0 view .LVU1369
 4989 0058 436B     		ldr	r3, [r0, #52]
 4990              		.loc 1 1859 57 view .LVU1370
 4991 005a 0C4A     		ldr	r2, .L464+8
 4992 005c 1A63     		str	r2, [r3, #48]
 4993              		.loc 1 1862 3 is_stmt 1 view .LVU1371
 4994 005e 0268     		ldr	r2, [r0]
 4995 0060 D368     		ldr	r3, [r2, #12]
 4996 0062 23F02003 		bic	r3, r3, #32
 4997 0066 D360     		str	r3, [r2, #12]
 4998              		.loc 1 1865 3 view .LVU1372
 4999 0068 0268     		ldr	r2, [r0]
 5000 006a D368     		ldr	r3, [r2, #12]
 5001 006c 43F40053 		orr	r3, r3, #8192
 5002 0070 D360     		str	r3, [r2, #12]
 5003              		.loc 1 1867 3 view .LVU1373
 5004              		.loc 1 1867 3 view .LVU1374
 5005 0072 0023     		movs	r3, #0
 5006 0074 80F83C30 		strb	r3, [r0, #60]
 5007              		.loc 1 1867 3 view .LVU1375
 5008              		.loc 1 1869 3 view .LVU1376
 5009              		.loc 1 1869 10 is_stmt 0 view .LVU1377
 5010 0078 1846     		mov	r0, r3
 5011              	.LVL349:
 5012              		.loc 1 1870 1 view .LVU1378
 5013 007a 10BC     		pop	{r4}
 5014              	.LCFI37:
 5015              		.cfi_restore 4
 5016              		.cfi_def_cfa_offset 0
 5017 007c 7047     		bx	lr
 5018              	.LVL350:
 5019              	.L459:
 5020              		.loc 1 1838 3 view .LVU1379
 5021 007e 0220     		movs	r0, #2
ARM GAS  C:\Users\38164\AppData\Local\Temp\ccqIV1nl.s 			page 88


 5022              	.LVL351:
 5023              		.loc 1 1870 1 view .LVU1380
 5024 0080 7047     		bx	lr
 5025              	.L465:
 5026 0082 00BF     		.align	2
 5027              	.L464:
 5028 0084 00000000 		.word	TIMEx_DMACommutationCplt
 5029 0088 00000000 		.word	TIMEx_DMACommutationHalfCplt
 5030 008c 00000000 		.word	TIM_DMAError
 5031              		.cfi_endproc
 5032              	.LFE93:
 5034              		.section	.text.HAL_TIMEx_MasterConfigSynchronization,"ax",%progbits
 5035              		.align	1
 5036              		.global	HAL_TIMEx_MasterConfigSynchronization
 5037              		.syntax unified
 5038              		.thumb
 5039              		.thumb_func
 5040              		.fpu softvfp
 5042              	HAL_TIMEx_MasterConfigSynchronization:
 5043              	.LVL352:
 5044              	.LFB94:
 5045              		.loc 1 1882 1 is_stmt 1 view -0
 5046              		.cfi_startproc
 5047              		@ args = 0, pretend = 0, frame = 0
 5048              		@ frame_needed = 0, uses_anonymous_args = 0
 5049              		@ link register save eliminated.
 5050              		.loc 1 1883 3 view .LVU1382
 5051              		.loc 1 1884 3 view .LVU1383
 5052              		.loc 1 1887 3 view .LVU1384
 5053              		.loc 1 1888 3 view .LVU1385
 5054              		.loc 1 1889 3 view .LVU1386
 5055              		.loc 1 1892 3 view .LVU1387
 5056              		.loc 1 1892 3 view .LVU1388
 5057 0000 90F83C30 		ldrb	r3, [r0, #60]	@ zero_extendqisi2
 5058 0004 012B     		cmp	r3, #1
 5059 0006 27D0     		beq	.L470
 5060              		.loc 1 1882 1 is_stmt 0 discriminator 2 view .LVU1389
 5061 0008 30B4     		push	{r4, r5}
 5062              	.LCFI38:
 5063              		.cfi_def_cfa_offset 8
 5064              		.cfi_offset 4, -8
 5065              		.cfi_offset 5, -4
 5066              		.loc 1 1892 3 is_stmt 1 discriminator 2 view .LVU1390
 5067 000a 0123     		movs	r3, #1
 5068 000c 80F83C30 		strb	r3, [r0, #60]
 5069              		.loc 1 1892 3 discriminator 2 view .LVU1391
 5070              		.loc 1 1895 3 discriminator 2 view .LVU1392
 5071              		.loc 1 1895 15 is_stmt 0 discriminator 2 view .LVU1393
 5072 0010 0223     		movs	r3, #2
 5073 0012 80F83D30 		strb	r3, [r0, #61]
 5074              		.loc 1 1898 3 is_stmt 1 discriminator 2 view .LVU1394
 5075              		.loc 1 1898 16 is_stmt 0 discriminator 2 view .LVU1395
 5076 0016 0368     		ldr	r3, [r0]
 5077              		.loc 1 1898 10 discriminator 2 view .LVU1396
 5078 0018 5C68     		ldr	r4, [r3, #4]
 5079              	.LVL353:
 5080              		.loc 1 1901 3 is_stmt 1 discriminator 2 view .LVU1397
ARM GAS  C:\Users\38164\AppData\Local\Temp\ccqIV1nl.s 			page 89


 5081              		.loc 1 1901 11 is_stmt 0 discriminator 2 view .LVU1398
 5082 001a 9D68     		ldr	r5, [r3, #8]
 5083              	.LVL354:
 5084              		.loc 1 1904 3 is_stmt 1 discriminator 2 view .LVU1399
 5085              		.loc 1 1904 10 is_stmt 0 discriminator 2 view .LVU1400
 5086 001c 24F07004 		bic	r4, r4, #112
 5087              	.LVL355:
 5088              		.loc 1 1906 3 is_stmt 1 discriminator 2 view .LVU1401
 5089              		.loc 1 1906 27 is_stmt 0 discriminator 2 view .LVU1402
 5090 0020 0A68     		ldr	r2, [r1]
 5091              		.loc 1 1906 10 discriminator 2 view .LVU1403
 5092 0022 2243     		orrs	r2, r2, r4
 5093              	.LVL356:
 5094              		.loc 1 1909 3 is_stmt 1 discriminator 2 view .LVU1404
 5095              		.loc 1 1909 23 is_stmt 0 discriminator 2 view .LVU1405
 5096 0024 5A60     		str	r2, [r3, #4]
 5097              		.loc 1 1911 3 is_stmt 1 discriminator 2 view .LVU1406
 5098              		.loc 1 1911 7 is_stmt 0 discriminator 2 view .LVU1407
 5099 0026 0368     		ldr	r3, [r0]
 5100              		.loc 1 1911 6 discriminator 2 view .LVU1408
 5101 0028 0C4A     		ldr	r2, .L475
 5102              	.LVL357:
 5103              		.loc 1 1911 6 discriminator 2 view .LVU1409
 5104 002a 9342     		cmp	r3, r2
 5105 002c 06D0     		beq	.L468
 5106              		.loc 1 1911 7 discriminator 1 view .LVU1410
 5107 002e B3F1804F 		cmp	r3, #1073741824
 5108 0032 03D0     		beq	.L468
 5109              		.loc 1 1911 7 discriminator 2 view .LVU1411
 5110 0034 A2F59432 		sub	r2, r2, #75776
 5111 0038 9342     		cmp	r3, r2
 5112 003a 04D1     		bne	.L469
 5113              	.L468:
 5114              		.loc 1 1914 5 is_stmt 1 view .LVU1412
 5115              		.loc 1 1914 13 is_stmt 0 view .LVU1413
 5116 003c 25F08005 		bic	r5, r5, #128
 5117              	.LVL358:
 5118              		.loc 1 1916 5 is_stmt 1 view .LVU1414
 5119              		.loc 1 1916 29 is_stmt 0 view .LVU1415
 5120 0040 4A68     		ldr	r2, [r1, #4]
 5121              		.loc 1 1916 13 view .LVU1416
 5122 0042 1543     		orrs	r5, r5, r2
 5123              	.LVL359:
 5124              		.loc 1 1919 5 is_stmt 1 view .LVU1417
 5125              		.loc 1 1919 26 is_stmt 0 view .LVU1418
 5126 0044 9D60     		str	r5, [r3, #8]
 5127              	.L469:
 5128              		.loc 1 1923 3 is_stmt 1 view .LVU1419
 5129              		.loc 1 1923 15 is_stmt 0 view .LVU1420
 5130 0046 0123     		movs	r3, #1
 5131 0048 80F83D30 		strb	r3, [r0, #61]
 5132              		.loc 1 1925 3 is_stmt 1 view .LVU1421
 5133              		.loc 1 1925 3 view .LVU1422
 5134 004c 0023     		movs	r3, #0
 5135 004e 80F83C30 		strb	r3, [r0, #60]
 5136              		.loc 1 1925 3 view .LVU1423
 5137              		.loc 1 1927 3 view .LVU1424
ARM GAS  C:\Users\38164\AppData\Local\Temp\ccqIV1nl.s 			page 90


 5138              		.loc 1 1927 10 is_stmt 0 view .LVU1425
 5139 0052 1846     		mov	r0, r3
 5140              	.LVL360:
 5141              		.loc 1 1928 1 view .LVU1426
 5142 0054 30BC     		pop	{r4, r5}
 5143              	.LCFI39:
 5144              		.cfi_restore 5
 5145              		.cfi_restore 4
 5146              		.cfi_def_cfa_offset 0
 5147              	.LVL361:
 5148              		.loc 1 1928 1 view .LVU1427
 5149 0056 7047     		bx	lr
 5150              	.LVL362:
 5151              	.L470:
 5152              		.loc 1 1892 3 view .LVU1428
 5153 0058 0220     		movs	r0, #2
 5154              	.LVL363:
 5155              		.loc 1 1928 1 view .LVU1429
 5156 005a 7047     		bx	lr
 5157              	.L476:
 5158              		.align	2
 5159              	.L475:
 5160 005c 002C0140 		.word	1073818624
 5161              		.cfi_endproc
 5162              	.LFE94:
 5164              		.section	.text.HAL_TIMEx_ConfigBreakDeadTime,"ax",%progbits
 5165              		.align	1
 5166              		.global	HAL_TIMEx_ConfigBreakDeadTime
 5167              		.syntax unified
 5168              		.thumb
 5169              		.thumb_func
 5170              		.fpu softvfp
 5172              	HAL_TIMEx_ConfigBreakDeadTime:
 5173              	.LVL364:
 5174              	.LFB95:
 5175              		.loc 1 1943 1 is_stmt 1 view -0
 5176              		.cfi_startproc
 5177              		@ args = 0, pretend = 0, frame = 0
 5178              		@ frame_needed = 0, uses_anonymous_args = 0
 5179              		@ link register save eliminated.
 5180              		.loc 1 1945 3 view .LVU1431
 5181              		.loc 1 1948 3 view .LVU1432
 5182              		.loc 1 1949 3 view .LVU1433
 5183              		.loc 1 1950 3 view .LVU1434
 5184              		.loc 1 1951 3 view .LVU1435
 5185              		.loc 1 1952 3 view .LVU1436
 5186              		.loc 1 1953 3 view .LVU1437
 5187              		.loc 1 1954 3 view .LVU1438
 5188              		.loc 1 1955 3 view .LVU1439
 5189              		.loc 1 1958 3 view .LVU1440
 5190              		.loc 1 1958 3 view .LVU1441
 5191 0000 90F83C30 		ldrb	r3, [r0, #60]	@ zero_extendqisi2
 5192 0004 012B     		cmp	r3, #1
 5193 0006 22D0     		beq	.L479
 5194              		.loc 1 1958 3 discriminator 2 view .LVU1442
 5195 0008 0123     		movs	r3, #1
 5196 000a 80F83C30 		strb	r3, [r0, #60]
ARM GAS  C:\Users\38164\AppData\Local\Temp\ccqIV1nl.s 			page 91


 5197              		.loc 1 1958 3 discriminator 2 view .LVU1443
 5198              		.loc 1 1964 3 discriminator 2 view .LVU1444
 5199 000e CB68     		ldr	r3, [r1, #12]
 5200              	.LVL365:
 5201              		.loc 1 1965 3 discriminator 2 view .LVU1445
 5202 0010 23F44073 		bic	r3, r3, #768
 5203              	.LVL366:
 5204              		.loc 1 1965 3 is_stmt 0 discriminator 2 view .LVU1446
 5205 0014 8A68     		ldr	r2, [r1, #8]
 5206 0016 1343     		orrs	r3, r3, r2
 5207              	.LVL367:
 5208              		.loc 1 1966 3 is_stmt 1 discriminator 2 view .LVU1447
 5209 0018 23F48063 		bic	r3, r3, #1024
 5210              	.LVL368:
 5211              		.loc 1 1966 3 is_stmt 0 discriminator 2 view .LVU1448
 5212 001c 4A68     		ldr	r2, [r1, #4]
 5213              	.LVL369:
 5214              		.loc 1 1966 3 discriminator 2 view .LVU1449
 5215 001e 1343     		orrs	r3, r3, r2
 5216              	.LVL370:
 5217              		.loc 1 1967 3 is_stmt 1 discriminator 2 view .LVU1450
 5218 0020 23F40063 		bic	r3, r3, #2048
 5219              	.LVL371:
 5220              		.loc 1 1967 3 is_stmt 0 discriminator 2 view .LVU1451
 5221 0024 0A68     		ldr	r2, [r1]
 5222              	.LVL372:
 5223              		.loc 1 1967 3 discriminator 2 view .LVU1452
 5224 0026 1343     		orrs	r3, r3, r2
 5225              	.LVL373:
 5226              		.loc 1 1968 3 is_stmt 1 discriminator 2 view .LVU1453
 5227 0028 23F48053 		bic	r3, r3, #4096
 5228              	.LVL374:
 5229              		.loc 1 1968 3 is_stmt 0 discriminator 2 view .LVU1454
 5230 002c 0A69     		ldr	r2, [r1, #16]
 5231              	.LVL375:
 5232              		.loc 1 1968 3 discriminator 2 view .LVU1455
 5233 002e 1343     		orrs	r3, r3, r2
 5234              	.LVL376:
 5235              		.loc 1 1969 3 is_stmt 1 discriminator 2 view .LVU1456
 5236 0030 23F40053 		bic	r3, r3, #8192
 5237              	.LVL377:
 5238              		.loc 1 1969 3 is_stmt 0 discriminator 2 view .LVU1457
 5239 0034 4A69     		ldr	r2, [r1, #20]
 5240              	.LVL378:
 5241              		.loc 1 1969 3 discriminator 2 view .LVU1458
 5242 0036 1343     		orrs	r3, r3, r2
 5243              	.LVL379:
 5244              		.loc 1 1970 3 is_stmt 1 discriminator 2 view .LVU1459
 5245 0038 23F48043 		bic	r3, r3, #16384
 5246              	.LVL380:
 5247              		.loc 1 1970 3 is_stmt 0 discriminator 2 view .LVU1460
 5248 003c CA69     		ldr	r2, [r1, #28]
 5249              	.LVL381:
 5250              		.loc 1 1970 3 discriminator 2 view .LVU1461
 5251 003e 1343     		orrs	r3, r3, r2
 5252              	.LVL382:
 5253              		.loc 1 1974 3 is_stmt 1 discriminator 2 view .LVU1462
ARM GAS  C:\Users\38164\AppData\Local\Temp\ccqIV1nl.s 			page 92


 5254              		.loc 1 1974 7 is_stmt 0 discriminator 2 view .LVU1463
 5255 0040 0268     		ldr	r2, [r0]
 5256              		.loc 1 1974 24 discriminator 2 view .LVU1464
 5257 0042 5364     		str	r3, [r2, #68]
 5258              		.loc 1 1976 3 is_stmt 1 discriminator 2 view .LVU1465
 5259              		.loc 1 1976 3 discriminator 2 view .LVU1466
 5260 0044 0023     		movs	r3, #0
 5261              	.LVL383:
 5262              		.loc 1 1976 3 is_stmt 0 discriminator 2 view .LVU1467
 5263 0046 80F83C30 		strb	r3, [r0, #60]
 5264              	.LVL384:
 5265              		.loc 1 1976 3 is_stmt 1 discriminator 2 view .LVU1468
 5266              		.loc 1 1978 3 discriminator 2 view .LVU1469
 5267              		.loc 1 1978 10 is_stmt 0 discriminator 2 view .LVU1470
 5268 004a 1846     		mov	r0, r3
 5269              	.LVL385:
 5270              		.loc 1 1978 10 discriminator 2 view .LVU1471
 5271 004c 7047     		bx	lr
 5272              	.LVL386:
 5273              	.L479:
 5274              		.loc 1 1958 3 view .LVU1472
 5275 004e 0220     		movs	r0, #2
 5276              	.LVL387:
 5277              		.loc 1 1979 1 view .LVU1473
 5278 0050 7047     		bx	lr
 5279              		.cfi_endproc
 5280              	.LFE95:
 5282              		.section	.text.HAL_TIMEx_RemapConfig,"ax",%progbits
 5283              		.align	1
 5284              		.global	HAL_TIMEx_RemapConfig
 5285              		.syntax unified
 5286              		.thumb
 5287              		.thumb_func
 5288              		.fpu softvfp
 5290              	HAL_TIMEx_RemapConfig:
 5291              	.LVL388:
 5292              	.LFB96:
 5293              		.loc 1 1989 1 is_stmt 1 view -0
 5294              		.cfi_startproc
 5295              		@ args = 0, pretend = 0, frame = 0
 5296              		@ frame_needed = 0, uses_anonymous_args = 0
 5297              		@ link register save eliminated.
 5298              		.loc 1 1991 3 view .LVU1475
 5299              		.loc 1 1992 3 view .LVU1476
 5300              		.loc 1 1994 3 view .LVU1477
 5301              		.loc 1 1995 1 is_stmt 0 view .LVU1478
 5302 0000 0020     		movs	r0, #0
 5303              	.LVL389:
 5304              		.loc 1 1995 1 view .LVU1479
 5305 0002 7047     		bx	lr
 5306              		.cfi_endproc
 5307              	.LFE96:
 5309              		.section	.text.HAL_TIMEx_CommutCallback,"ax",%progbits
 5310              		.align	1
 5311              		.weak	HAL_TIMEx_CommutCallback
 5312              		.syntax unified
 5313              		.thumb
ARM GAS  C:\Users\38164\AppData\Local\Temp\ccqIV1nl.s 			page 93


 5314              		.thumb_func
 5315              		.fpu softvfp
 5317              	HAL_TIMEx_CommutCallback:
 5318              	.LVL390:
 5319              	.LFB97:
 5320              		.loc 1 2023 1 is_stmt 1 view -0
 5321              		.cfi_startproc
 5322              		@ args = 0, pretend = 0, frame = 0
 5323              		@ frame_needed = 0, uses_anonymous_args = 0
 5324              		@ link register save eliminated.
 5325              		.loc 1 2025 3 view .LVU1481
 5326              		.loc 1 2030 1 is_stmt 0 view .LVU1482
 5327 0000 7047     		bx	lr
 5328              		.cfi_endproc
 5329              	.LFE97:
 5331              		.section	.text.TIMEx_DMACommutationCplt,"ax",%progbits
 5332              		.align	1
 5333              		.global	TIMEx_DMACommutationCplt
 5334              		.syntax unified
 5335              		.thumb
 5336              		.thumb_func
 5337              		.fpu softvfp
 5339              	TIMEx_DMACommutationCplt:
 5340              	.LVL391:
 5341              	.LFB102:
 5342              		.loc 1 2129 1 is_stmt 1 view -0
 5343              		.cfi_startproc
 5344              		@ args = 0, pretend = 0, frame = 0
 5345              		@ frame_needed = 0, uses_anonymous_args = 0
 5346              		.loc 1 2129 1 is_stmt 0 view .LVU1484
 5347 0000 08B5     		push	{r3, lr}
 5348              	.LCFI40:
 5349              		.cfi_def_cfa_offset 8
 5350              		.cfi_offset 3, -8
 5351              		.cfi_offset 14, -4
 5352              		.loc 1 2130 3 is_stmt 1 view .LVU1485
 5353              		.loc 1 2130 22 is_stmt 0 view .LVU1486
 5354 0002 406A     		ldr	r0, [r0, #36]
 5355              	.LVL392:
 5356              		.loc 1 2133 3 is_stmt 1 view .LVU1487
 5357              		.loc 1 2133 15 is_stmt 0 view .LVU1488
 5358 0004 0123     		movs	r3, #1
 5359 0006 80F83D30 		strb	r3, [r0, #61]
 5360              		.loc 1 2138 3 is_stmt 1 view .LVU1489
 5361 000a 014B     		ldr	r3, .L484
 5362 000c 9847     		blx	r3
 5363              	.LVL393:
 5364              		.loc 1 2140 1 is_stmt 0 view .LVU1490
 5365 000e 08BD     		pop	{r3, pc}
 5366              	.L485:
 5367              		.align	2
 5368              	.L484:
 5369 0010 00000000 		.word	HAL_TIMEx_CommutCallback
 5370              		.cfi_endproc
 5371              	.LFE102:
 5373              		.section	.text.HAL_TIMEx_CommutHalfCpltCallback,"ax",%progbits
 5374              		.align	1
ARM GAS  C:\Users\38164\AppData\Local\Temp\ccqIV1nl.s 			page 94


 5375              		.weak	HAL_TIMEx_CommutHalfCpltCallback
 5376              		.syntax unified
 5377              		.thumb
 5378              		.thumb_func
 5379              		.fpu softvfp
 5381              	HAL_TIMEx_CommutHalfCpltCallback:
 5382              	.LVL394:
 5383              	.LFB98:
 5384              		.loc 1 2037 1 is_stmt 1 view -0
 5385              		.cfi_startproc
 5386              		@ args = 0, pretend = 0, frame = 0
 5387              		@ frame_needed = 0, uses_anonymous_args = 0
 5388              		@ link register save eliminated.
 5389              		.loc 1 2039 3 view .LVU1492
 5390              		.loc 1 2044 1 is_stmt 0 view .LVU1493
 5391 0000 7047     		bx	lr
 5392              		.cfi_endproc
 5393              	.LFE98:
 5395              		.section	.text.TIMEx_DMACommutationHalfCplt,"ax",%progbits
 5396              		.align	1
 5397              		.global	TIMEx_DMACommutationHalfCplt
 5398              		.syntax unified
 5399              		.thumb
 5400              		.thumb_func
 5401              		.fpu softvfp
 5403              	TIMEx_DMACommutationHalfCplt:
 5404              	.LVL395:
 5405              	.LFB103:
 5406              		.loc 1 2148 1 is_stmt 1 view -0
 5407              		.cfi_startproc
 5408              		@ args = 0, pretend = 0, frame = 0
 5409              		@ frame_needed = 0, uses_anonymous_args = 0
 5410              		.loc 1 2148 1 is_stmt 0 view .LVU1495
 5411 0000 08B5     		push	{r3, lr}
 5412              	.LCFI41:
 5413              		.cfi_def_cfa_offset 8
 5414              		.cfi_offset 3, -8
 5415              		.cfi_offset 14, -4
 5416              		.loc 1 2149 3 is_stmt 1 view .LVU1496
 5417              		.loc 1 2149 22 is_stmt 0 view .LVU1497
 5418 0002 406A     		ldr	r0, [r0, #36]
 5419              	.LVL396:
 5420              		.loc 1 2152 3 is_stmt 1 view .LVU1498
 5421              		.loc 1 2152 15 is_stmt 0 view .LVU1499
 5422 0004 0123     		movs	r3, #1
 5423 0006 80F83D30 		strb	r3, [r0, #61]
 5424              		.loc 1 2157 3 is_stmt 1 view .LVU1500
 5425 000a 014B     		ldr	r3, .L489
 5426 000c 9847     		blx	r3
 5427              	.LVL397:
 5428              		.loc 1 2159 1 is_stmt 0 view .LVU1501
 5429 000e 08BD     		pop	{r3, pc}
 5430              	.L490:
 5431              		.align	2
 5432              	.L489:
 5433 0010 00000000 		.word	HAL_TIMEx_CommutHalfCpltCallback
 5434              		.cfi_endproc
ARM GAS  C:\Users\38164\AppData\Local\Temp\ccqIV1nl.s 			page 95


 5435              	.LFE103:
 5437              		.section	.text.HAL_TIMEx_BreakCallback,"ax",%progbits
 5438              		.align	1
 5439              		.weak	HAL_TIMEx_BreakCallback
 5440              		.syntax unified
 5441              		.thumb
 5442              		.thumb_func
 5443              		.fpu softvfp
 5445              	HAL_TIMEx_BreakCallback:
 5446              	.LVL398:
 5447              	.LFB99:
 5448              		.loc 1 2052 1 is_stmt 1 view -0
 5449              		.cfi_startproc
 5450              		@ args = 0, pretend = 0, frame = 0
 5451              		@ frame_needed = 0, uses_anonymous_args = 0
 5452              		@ link register save eliminated.
 5453              		.loc 1 2054 3 view .LVU1503
 5454              		.loc 1 2059 1 is_stmt 0 view .LVU1504
 5455 0000 7047     		bx	lr
 5456              		.cfi_endproc
 5457              	.LFE99:
 5459              		.section	.text.HAL_TIMEx_HallSensor_GetState,"ax",%progbits
 5460              		.align	1
 5461              		.global	HAL_TIMEx_HallSensor_GetState
 5462              		.syntax unified
 5463              		.thumb
 5464              		.thumb_func
 5465              		.fpu softvfp
 5467              	HAL_TIMEx_HallSensor_GetState:
 5468              	.LVL399:
 5469              	.LFB100:
 5470              		.loc 1 2085 1 is_stmt 1 view -0
 5471              		.cfi_startproc
 5472              		@ args = 0, pretend = 0, frame = 0
 5473              		@ frame_needed = 0, uses_anonymous_args = 0
 5474              		@ link register save eliminated.
 5475              		.loc 1 2086 3 view .LVU1506
 5476              		.loc 1 2086 14 is_stmt 0 view .LVU1507
 5477 0000 90F83D00 		ldrb	r0, [r0, #61]	@ zero_extendqisi2
 5478              	.LVL400:
 5479              		.loc 1 2087 1 view .LVU1508
 5480 0004 7047     		bx	lr
 5481              		.cfi_endproc
 5482              	.LFE100:
 5484              		.section	.text.HAL_TIMEx_GetChannelNState,"ax",%progbits
 5485              		.align	1
 5486              		.global	HAL_TIMEx_GetChannelNState
 5487              		.syntax unified
 5488              		.thumb
 5489              		.thumb_func
 5490              		.fpu softvfp
 5492              	HAL_TIMEx_GetChannelNState:
 5493              	.LVL401:
 5494              	.LFB101:
 5495              		.loc 1 2100 1 is_stmt 1 view -0
 5496              		.cfi_startproc
 5497              		@ args = 0, pretend = 0, frame = 0
ARM GAS  C:\Users\38164\AppData\Local\Temp\ccqIV1nl.s 			page 96


 5498              		@ frame_needed = 0, uses_anonymous_args = 0
 5499              		@ link register save eliminated.
 5500              		.loc 1 2101 3 view .LVU1510
 5501              		.loc 1 2104 3 view .LVU1511
 5502              		.loc 1 2106 3 view .LVU1512
 5503              		.loc 1 2106 19 is_stmt 0 view .LVU1513
 5504 0000 19B9     		cbnz	r1, .L494
 5505              		.loc 1 2106 19 discriminator 1 view .LVU1514
 5506 0002 90F84200 		ldrb	r0, [r0, #66]	@ zero_extendqisi2
 5507              	.LVL402:
 5508              		.loc 1 2106 19 discriminator 1 view .LVU1515
 5509 0006 C0B2     		uxtb	r0, r0
 5510 0008 7047     		bx	lr
 5511              	.LVL403:
 5512              	.L494:
 5513              		.loc 1 2106 19 discriminator 2 view .LVU1516
 5514 000a 0429     		cmp	r1, #4
 5515 000c 05D0     		beq	.L498
 5516              		.loc 1 2106 19 discriminator 5 view .LVU1517
 5517 000e 0829     		cmp	r1, #8
 5518 0010 07D0     		beq	.L499
 5519              		.loc 1 2106 19 discriminator 8 view .LVU1518
 5520 0012 90F84500 		ldrb	r0, [r0, #69]	@ zero_extendqisi2
 5521              	.LVL404:
 5522              		.loc 1 2106 19 discriminator 8 view .LVU1519
 5523 0016 C0B2     		uxtb	r0, r0
 5524              	.LVL405:
 5525              		.loc 1 2108 3 is_stmt 1 discriminator 8 view .LVU1520
 5526              		.loc 1 2109 1 is_stmt 0 discriminator 8 view .LVU1521
 5527 0018 7047     		bx	lr
 5528              	.LVL406:
 5529              	.L498:
 5530              		.loc 1 2106 19 discriminator 4 view .LVU1522
 5531 001a 90F84300 		ldrb	r0, [r0, #67]	@ zero_extendqisi2
 5532              	.LVL407:
 5533              		.loc 1 2106 19 discriminator 4 view .LVU1523
 5534 001e C0B2     		uxtb	r0, r0
 5535 0020 7047     		bx	lr
 5536              	.LVL408:
 5537              	.L499:
 5538              		.loc 1 2106 19 discriminator 7 view .LVU1524
 5539 0022 90F84400 		ldrb	r0, [r0, #68]	@ zero_extendqisi2
 5540              	.LVL409:
 5541              		.loc 1 2106 19 discriminator 7 view .LVU1525
 5542 0026 C0B2     		uxtb	r0, r0
 5543 0028 7047     		bx	lr
 5544              		.cfi_endproc
 5545              	.LFE101:
 5547              		.text
 5548              	.Letext0:
 5549              		.file 2 "../c:\\users\\38164\\onedrive\\desktop\\gnu mcu\\arm-none-eabi-gcc-9.3.1-1.1\\arm-none-ea
 5550              		.file 3 "../c:\\users\\38164\\onedrive\\desktop\\gnu mcu\\arm-none-eabi-gcc-9.3.1-1.1\\arm-none-ea
 5551              		.file 4 "../Drivers/CMSIS/Include/core_cm3.h"
 5552              		.file 5 "../Drivers/CMSIS/Device/ST/STM32F1xx/Include/system_stm32f1xx.h"
 5553              		.file 6 "../Drivers/CMSIS/Device/ST/STM32F1xx/Include/stm32f103x6.h"
 5554              		.file 7 "../Drivers/CMSIS/Device/ST/STM32F1xx/Include/stm32f1xx.h"
 5555              		.file 8 "../Drivers/STM32F1xx_HAL_Driver/Inc/stm32f1xx_hal_def.h"
ARM GAS  C:\Users\38164\AppData\Local\Temp\ccqIV1nl.s 			page 97


 5556              		.file 9 "../Drivers/STM32F1xx_HAL_Driver/Inc/stm32f1xx_hal_dma.h"
 5557              		.file 10 "../Drivers/STM32F1xx_HAL_Driver/Inc/stm32f1xx_hal_tim.h"
 5558              		.file 11 "../Drivers/STM32F1xx_HAL_Driver/Inc/stm32f1xx_hal_tim_ex.h"
 5559              		.file 12 "../Drivers/STM32F1xx_HAL_Driver/Inc/stm32f1xx_hal.h"
ARM GAS  C:\Users\38164\AppData\Local\Temp\ccqIV1nl.s 			page 98

