ARM GAS  C:\Users\38164\AppData\Local\Temp\ccm74k8u.s 			page 1


   1              		.cpu cortex-m3
   2              		.eabi_attribute 20, 1
   3              		.eabi_attribute 21, 1
   4              		.eabi_attribute 23, 3
   5              		.eabi_attribute 24, 1
   6              		.eabi_attribute 25, 1
   7              		.eabi_attribute 26, 1
   8              		.eabi_attribute 30, 1
   9              		.eabi_attribute 34, 1
  10              		.eabi_attribute 18, 4
  11              		.file	"tasks.c"
  12              		.text
  13              	.Ltext0:
  14              		.cfi_sections	.debug_frame
  15              		.section	.text.prvTaskIsTaskSuspended,"ax",%progbits
  16              		.align	1
  17              		.arch armv7-m
  18              		.syntax unified
  19              		.thumb
  20              		.thumb_func
  21              		.fpu softvfp
  23              	prvTaskIsTaskSuspended:
  24              	.LVL0:
  25              	.LFB16:
  26              		.file 1 "../Middlewares/Third_Party/FreeRTOS/Source/tasks.c"
   1:../Middlewares/Third_Party/FreeRTOS/Source/tasks.c **** 
  27              		.loc 1 1726 2 view -0
  28              		.cfi_startproc
  29              		@ args = 0, pretend = 0, frame = 0
  30              		@ frame_needed = 0, uses_anonymous_args = 0
  31              		@ link register save eliminated.
  32              		.loc 1 1727 2 view .LVU1
  33              		.loc 1 1728 2 view .LVU2
  34              		.loc 1 1734 3 view .LVU3
  35 0000 28B1     		cbz	r0, .L8
  36              		.loc 1 1734 24 discriminator 2 view .LVU4
  37              		.loc 1 1737 3 discriminator 2 view .LVU5
  38              		.loc 1 1737 7 is_stmt 0 discriminator 2 view .LVU6
  39 0002 4169     		ldr	r1, [r0, #20]
  40              		.loc 1 1737 82 discriminator 2 view .LVU7
  41 0004 0C4A     		ldr	r2, .L10
  42 0006 9142     		cmp	r1, r2
  43 0008 0AD0     		beq	.L9
  44              		.loc 1 1727 13 view .LVU8
  45 000a 0020     		movs	r0, #0
  46              	.LVL1:
  47              		.loc 1 1727 13 view .LVU9
  48 000c 7047     		bx	lr
  49              	.LVL2:
  50              	.L8:
  51              		.loc 1 1734 3 is_stmt 1 view .LVU10
  52              	.LBB113:
  53              	.LBI113:
  54              		.file 2 "../Middlewares/Third_Party/FreeRTOS/Source/portable/GCC/ARM_CM3/portmacro.h"
   1:../Middlewares/Third_Party/FreeRTOS/Source/portable/GCC/ARM_CM3/portmacro.h **** 
  55              		.loc 2 191 30 view .LVU11
  56              	.LBB114:
ARM GAS  C:\Users\38164\AppData\Local\Temp\ccm74k8u.s 			page 2


  57              		.loc 2 193 1 view .LVU12
  58              		.loc 2 195 2 view .LVU13
  59              		.syntax unified
  60              	@ 195 "Middlewares/Third_Party/FreeRTOS/Source/portable/GCC/ARM_CM3/portmacro.h" 1
  61 000e 4FF05003 			mov r3, #80												
  62 0012 83F31188 		msr basepri, r3											
  63 0016 BFF36F8F 		isb														
  64 001a BFF34F8F 		dsb														
  65              	
  66              	@ 0 "" 2
  67              	.LVL3:
  68              		.thumb
  69              		.syntax unified
  70              	.L3:
  71              		.loc 2 195 2 is_stmt 0 view .LVU14
  72              	.LBE114:
  73              	.LBE113:
  74              		.loc 1 1734 3 is_stmt 1 discriminator 1 view .LVU15
  75              		.loc 1 1734 3 discriminator 1 view .LVU16
  76              		.loc 1 1734 3 discriminator 1 view .LVU17
  77 001e FEE7     		b	.L3
  78              	.L9:
  79              		.loc 1 1740 4 view .LVU18
  80              		.loc 1 1740 8 is_stmt 0 view .LVU19
  81 0020 836A     		ldr	r3, [r0, #40]
  82              		.loc 1 1740 6 view .LVU20
  83 0022 064A     		ldr	r2, .L10+4
  84 0024 9342     		cmp	r3, r2
  85 0026 02D0     		beq	.L6
  86              		.loc 1 1744 5 is_stmt 1 view .LVU21
  87              		.loc 1 1744 69 is_stmt 0 view .LVU22
  88 0028 1BB1     		cbz	r3, .L7
  89              		.loc 1 1727 13 view .LVU23
  90 002a 0020     		movs	r0, #0
  91              	.LVL4:
  92              		.loc 1 1727 13 view .LVU24
  93 002c 7047     		bx	lr
  94              	.LVL5:
  95              	.L6:
  96              		.loc 1 1727 13 view .LVU25
  97 002e 0020     		movs	r0, #0
  98              	.LVL6:
  99              		.loc 1 1727 13 view .LVU26
 100 0030 7047     		bx	lr
 101              	.LVL7:
 102              	.L7:
 103              		.loc 1 1746 14 view .LVU27
 104 0032 0120     		movs	r0, #1
 105              	.LVL8:
 106              		.loc 1 1760 28 is_stmt 1 view .LVU28
 107              		.loc 1 1763 3 view .LVU29
 108              		.loc 1 1764 2 is_stmt 0 view .LVU30
 109 0034 7047     		bx	lr
 110              	.L11:
 111 0036 00BF     		.align	2
 112              	.L10:
 113 0038 00000000 		.word	.LANCHOR0
ARM GAS  C:\Users\38164\AppData\Local\Temp\ccm74k8u.s 			page 3


 114 003c 00000000 		.word	.LANCHOR1
 115              		.cfi_endproc
 116              	.LFE16:
 118              		.section	.text.prvTaskCheckFreeStackSpace,"ax",%progbits
 119              		.align	1
 120              		.syntax unified
 121              		.thumb
 122              		.thumb_func
 123              		.fpu softvfp
 125              	prvTaskCheckFreeStackSpace:
 126              	.LVL9:
 127              	.LFB46:
 128              		.loc 1 3623 2 is_stmt 1 view -0
 129              		.cfi_startproc
 130              		@ args = 0, pretend = 0, frame = 0
 131              		@ frame_needed = 0, uses_anonymous_args = 0
 132              		@ link register save eliminated.
 133              		.loc 1 3624 2 view .LVU32
 134              		.loc 1 3626 3 view .LVU33
 135              		.loc 1 3624 11 is_stmt 0 view .LVU34
 136 0000 0023     		movs	r3, #0
 137              	.LVL10:
 138              	.L13:
 139              		.loc 1 3626 8 is_stmt 1 view .LVU35
 140              		.loc 1 3626 10 is_stmt 0 view .LVU36
 141 0002 0278     		ldrb	r2, [r0]	@ zero_extendqisi2
 142              		.loc 1 3626 8 view .LVU37
 143 0004 A52A     		cmp	r2, #165
 144 0006 02D1     		bne	.L15
 145              		.loc 1 3628 4 is_stmt 1 view .LVU38
 146              		.loc 1 3628 17 is_stmt 0 view .LVU39
 147 0008 0130     		adds	r0, r0, #1
 148              	.LVL11:
 149              		.loc 1 3629 4 is_stmt 1 view .LVU40
 150              		.loc 1 3629 11 is_stmt 0 view .LVU41
 151 000a 0133     		adds	r3, r3, #1
 152              	.LVL12:
 153              		.loc 1 3629 11 view .LVU42
 154 000c F9E7     		b	.L13
 155              	.L15:
 156              		.loc 1 3632 3 is_stmt 1 view .LVU43
 157              	.LVL13:
 158              		.loc 1 3634 3 view .LVU44
 159              		.loc 1 3635 2 is_stmt 0 view .LVU45
 160 000e C3F38F00 		ubfx	r0, r3, #2, #16
 161              	.LVL14:
 162              		.loc 1 3635 2 view .LVU46
 163 0012 7047     		bx	lr
 164              		.cfi_endproc
 165              	.LFE46:
 167              		.section	.text.prvResetNextTaskUnblockTime,"ax",%progbits
 168              		.align	1
 169              		.syntax unified
 170              		.thumb
 171              		.thumb_func
 172              		.fpu softvfp
 174              	prvResetNextTaskUnblockTime:
ARM GAS  C:\Users\38164\AppData\Local\Temp\ccm74k8u.s 			page 4


 175              	.LFB49:
 176              		.loc 1 3725 1 is_stmt 1 view -0
 177              		.cfi_startproc
 178              		@ args = 0, pretend = 0, frame = 0
 179              		@ frame_needed = 0, uses_anonymous_args = 0
 180              		@ link register save eliminated.
 181              		.loc 1 3726 1 view .LVU48
 182              		.loc 1 3728 2 view .LVU49
 183              		.loc 1 3728 6 is_stmt 0 view .LVU50
 184 0000 084B     		ldr	r3, .L19
 185 0002 1B68     		ldr	r3, [r3]
 186 0004 1B68     		ldr	r3, [r3]
 187              		.loc 1 3728 45 view .LVU51
 188 0006 23B9     		cbnz	r3, .L17
 189              		.loc 1 3734 3 is_stmt 1 view .LVU52
 190              		.loc 1 3734 24 is_stmt 0 view .LVU53
 191 0008 074B     		ldr	r3, .L19+4
 192 000a 4FF0FF32 		mov	r2, #-1
 193 000e 1A60     		str	r2, [r3]
 194 0010 7047     		bx	lr
 195              	.L17:
 196              		.loc 1 3742 3 is_stmt 1 view .LVU54
 197              		.loc 1 3742 27 is_stmt 0 view .LVU55
 198 0012 044B     		ldr	r3, .L19
 199 0014 1B68     		ldr	r3, [r3]
 200 0016 DB68     		ldr	r3, [r3, #12]
 201              		.loc 1 3742 13 view .LVU56
 202 0018 DB68     		ldr	r3, [r3, #12]
 203              	.LVL15:
 204              		.loc 1 3743 3 is_stmt 1 view .LVU57
 205              		.loc 1 3743 26 is_stmt 0 view .LVU58
 206 001a 5A68     		ldr	r2, [r3, #4]
 207              		.loc 1 3743 24 view .LVU59
 208 001c 024B     		ldr	r3, .L19+4
 209              	.LVL16:
 210              		.loc 1 3743 24 view .LVU60
 211 001e 1A60     		str	r2, [r3]
 212              		.loc 1 3745 1 view .LVU61
 213 0020 7047     		bx	lr
 214              	.L20:
 215 0022 00BF     		.align	2
 216              	.L19:
 217 0024 00000000 		.word	.LANCHOR2
 218 0028 00000000 		.word	.LANCHOR3
 219              		.cfi_endproc
 220              	.LFE49:
 222              		.section	.text.prvInitialiseNewTask,"ax",%progbits
 223              		.align	1
 224              		.syntax unified
 225              		.thumb
 226              		.thumb_func
 227              		.fpu softvfp
 229              	prvInitialiseNewTask:
 230              	.LVL17:
 231              	.LFB6:
 232              		.loc 1 825 1 is_stmt 1 view -0
 233              		.cfi_startproc
ARM GAS  C:\Users\38164\AppData\Local\Temp\ccm74k8u.s 			page 5


 234              		@ args = 16, pretend = 0, frame = 0
 235              		@ frame_needed = 0, uses_anonymous_args = 0
 236              		.loc 1 825 1 is_stmt 0 view .LVU63
 237 0000 2DE9F84F 		push	{r3, r4, r5, r6, r7, r8, r9, r10, fp, lr}
 238              	.LCFI0:
 239              		.cfi_def_cfa_offset 40
 240              		.cfi_offset 3, -40
 241              		.cfi_offset 4, -36
 242              		.cfi_offset 5, -32
 243              		.cfi_offset 6, -28
 244              		.cfi_offset 7, -24
 245              		.cfi_offset 8, -20
 246              		.cfi_offset 9, -16
 247              		.cfi_offset 10, -12
 248              		.cfi_offset 11, -8
 249              		.cfi_offset 14, -4
 250 0004 8046     		mov	r8, r0
 251 0006 0D46     		mov	r5, r1
 252 0008 1746     		mov	r7, r2
 253 000a 9946     		mov	r9, r3
 254 000c 0A9E     		ldr	r6, [sp, #40]
 255 000e DDF82CA0 		ldr	r10, [sp, #44]
 256 0012 0C9C     		ldr	r4, [sp, #48]
 257              		.loc 1 826 1 is_stmt 1 view .LVU64
 258              		.loc 1 827 1 view .LVU65
 259              		.loc 1 847 3 view .LVU66
 260              		.loc 1 847 12 is_stmt 0 view .LVU67
 261 0014 9200     		lsls	r2, r2, #2
 262              	.LVL18:
 263              		.loc 1 847 12 view .LVU68
 264 0016 A521     		movs	r1, #165
 265              	.LVL19:
 266              		.loc 1 847 12 view .LVU69
 267 0018 206B     		ldr	r0, [r4, #48]
 268              	.LVL20:
 269              		.loc 1 847 12 view .LVU70
 270 001a 1D4B     		ldr	r3, .L29
 271              	.LVL21:
 272              		.loc 1 847 12 view .LVU71
 273 001c 9847     		blx	r3
 274              	.LVL22:
 275              		.loc 1 857 3 is_stmt 1 view .LVU72
 276              		.loc 1 857 26 is_stmt 0 view .LVU73
 277 001e 236B     		ldr	r3, [r4, #48]
 278              		.loc 1 857 36 view .LVU74
 279 0020 07F18042 		add	r2, r7, #1073741824
 280 0024 013A     		subs	r2, r2, #1
 281              		.loc 1 857 16 view .LVU75
 282 0026 03EB8207 		add	r7, r3, r2, lsl #2
 283              	.LVL23:
 284              		.loc 1 858 3 is_stmt 1 view .LVU76
 285              		.loc 1 858 81 is_stmt 0 view .LVU77
 286 002a 27F00707 		bic	r7, r7, #7
 287              	.LVL24:
 288              		.loc 1 861 3 is_stmt 1 view .LVU78
 289              		.loc 1 861 124 view .LVU79
 290              		.loc 1 885 2 view .LVU80
ARM GAS  C:\Users\38164\AppData\Local\Temp\ccm74k8u.s 			page 6


 291              		.loc 1 885 9 is_stmt 0 view .LVU81
 292 002e 0022     		movs	r2, #0
 293              	.LVL25:
 294              	.L22:
 295              		.loc 1 885 30 is_stmt 1 discriminator 1 view .LVU82
 296              		.loc 1 885 2 is_stmt 0 discriminator 1 view .LVU83
 297 0030 0F2A     		cmp	r2, #15
 298 0032 07D8     		bhi	.L23
 299              		.loc 1 887 3 is_stmt 1 view .LVU84
 300              		.loc 1 887 37 is_stmt 0 view .LVU85
 301 0034 A95C     		ldrb	r1, [r5, r2]	@ zero_extendqisi2
 302              		.loc 1 887 29 view .LVU86
 303 0036 A318     		adds	r3, r4, r2
 304 0038 83F83410 		strb	r1, [r3, #52]
 305              		.loc 1 892 3 is_stmt 1 view .LVU87
 306              		.loc 1 892 13 is_stmt 0 view .LVU88
 307 003c AB5C     		ldrb	r3, [r5, r2]	@ zero_extendqisi2
 308              		.loc 1 892 5 view .LVU89
 309 003e 0BB1     		cbz	r3, .L23
 310              		.loc 1 898 28 is_stmt 1 discriminator 2 view .LVU90
 311              		.loc 1 885 75 discriminator 2 view .LVU91
 312              		.loc 1 885 76 is_stmt 0 discriminator 2 view .LVU92
 313 0040 0132     		adds	r2, r2, #1
 314              	.LVL26:
 315              		.loc 1 885 76 discriminator 2 view .LVU93
 316 0042 F5E7     		b	.L22
 317              	.L23:
 318              		.loc 1 904 2 is_stmt 1 view .LVU94
 319              		.loc 1 904 54 is_stmt 0 view .LVU95
 320 0044 0023     		movs	r3, #0
 321 0046 84F84330 		strb	r3, [r4, #67]
 322              		.loc 1 908 2 is_stmt 1 view .LVU96
 323              		.loc 1 908 4 is_stmt 0 view .LVU97
 324 004a 372E     		cmp	r6, #55
 325 004c 00D9     		bls	.L25
 326              		.loc 1 910 14 view .LVU98
 327 004e 3726     		movs	r6, #55
 328              	.L25:
 329              	.LVL27:
 330              		.loc 1 914 27 is_stmt 1 view .LVU99
 331              		.loc 1 917 2 view .LVU100
 332              		.loc 1 917 23 is_stmt 0 view .LVU101
 333 0050 E662     		str	r6, [r4, #44]
 334              		.loc 1 920 3 is_stmt 1 view .LVU102
 335              		.loc 1 920 28 is_stmt 0 view .LVU103
 336 0052 E664     		str	r6, [r4, #76]
 337              		.loc 1 921 3 is_stmt 1 view .LVU104
 338              		.loc 1 921 27 is_stmt 0 view .LVU105
 339 0054 0025     		movs	r5, #0
 340              	.LVL28:
 341              		.loc 1 921 27 view .LVU106
 342 0056 2565     		str	r5, [r4, #80]
 343              		.loc 1 925 2 is_stmt 1 view .LVU107
 344 0058 201D     		adds	r0, r4, #4
 345 005a DFF83CB0 		ldr	fp, .L29+8
 346 005e D847     		blx	fp
 347              	.LVL29:
ARM GAS  C:\Users\38164\AppData\Local\Temp\ccm74k8u.s 			page 7


 348              		.loc 1 926 2 view .LVU108
 349 0060 04F11800 		add	r0, r4, #24
 350 0064 D847     		blx	fp
 351              	.LVL30:
 352              		.loc 1 930 2 view .LVU109
 353 0066 2461     		str	r4, [r4, #16]
 354              		.loc 1 933 2 view .LVU110
 355 0068 C6F13806 		rsb	r6, r6, #56
 356              	.LVL31:
 357              		.loc 1 933 2 is_stmt 0 view .LVU111
 358 006c A661     		str	r6, [r4, #24]
 359              		.loc 1 934 2 is_stmt 1 view .LVU112
 360 006e 6462     		str	r4, [r4, #36]
 361              		.loc 1 961 3 view .LVU113
 362              		.loc 1 976 3 view .LVU114
 363              		.loc 1 976 29 is_stmt 0 view .LVU115
 364 0070 6565     		str	r5, [r4, #84]
 365              		.loc 1 977 3 is_stmt 1 view .LVU116
 366              		.loc 1 977 27 is_stmt 0 view .LVU117
 367 0072 84F85850 		strb	r5, [r4, #88]
 368              		.loc 1 1004 3 is_stmt 1 view .LVU118
 369              		.loc 1 1004 28 is_stmt 0 view .LVU119
 370 0076 4A46     		mov	r2, r9
 371 0078 4146     		mov	r1, r8
 372 007a 3846     		mov	r0, r7
 373 007c 054B     		ldr	r3, .L29+4
 374 007e 9847     		blx	r3
 375              	.LVL32:
 376              		.loc 1 1004 26 view .LVU120
 377 0080 2060     		str	r0, [r4]
 378              		.loc 1 1008 2 is_stmt 1 view .LVU121
 379              		.loc 1 1008 4 is_stmt 0 view .LVU122
 380 0082 BAF1000F 		cmp	r10, #0
 381 0086 01D0     		beq	.L21
 382              		.loc 1 1012 3 is_stmt 1 view .LVU123
 383              		.loc 1 1012 18 is_stmt 0 view .LVU124
 384 0088 CAF80040 		str	r4, [r10]
 385              		.loc 1 1016 27 is_stmt 1 view .LVU125
 386              	.L21:
 387              		.loc 1 1018 1 is_stmt 0 view .LVU126
 388 008c BDE8F88F 		pop	{r3, r4, r5, r6, r7, r8, r9, r10, fp, pc}
 389              	.LVL33:
 390              	.L30:
 391              		.loc 1 1018 1 view .LVU127
 392              		.align	2
 393              	.L29:
 394 0090 00000000 		.word	memset
 395 0094 00000000 		.word	pxPortInitialiseStack
 396 0098 00000000 		.word	vListInitialiseItem
 397              		.cfi_endproc
 398              	.LFE6:
 400              		.section	.text.prvInitialiseTaskLists,"ax",%progbits
 401              		.align	1
 402              		.syntax unified
 403              		.thumb
 404              		.thumb_func
 405              		.fpu softvfp
ARM GAS  C:\Users\38164\AppData\Local\Temp\ccm74k8u.s 			page 8


 407              	prvInitialiseTaskLists:
 408              	.LFB42:
 409              		.loc 1 3431 1 is_stmt 1 view -0
 410              		.cfi_startproc
 411              		@ args = 0, pretend = 0, frame = 0
 412              		@ frame_needed = 0, uses_anonymous_args = 0
 413 0000 70B5     		push	{r4, r5, r6, lr}
 414              	.LCFI1:
 415              		.cfi_def_cfa_offset 16
 416              		.cfi_offset 4, -16
 417              		.cfi_offset 5, -12
 418              		.cfi_offset 6, -8
 419              		.cfi_offset 14, -4
 420              		.loc 1 3432 1 view .LVU129
 421              		.loc 1 3434 2 view .LVU130
 422              	.LVL34:
 423              		.loc 1 3434 18 is_stmt 0 view .LVU131
 424 0002 0024     		movs	r4, #0
 425              	.LVL35:
 426              	.L32:
 427              		.loc 1 3434 40 is_stmt 1 discriminator 1 view .LVU132
 428              		.loc 1 3434 2 is_stmt 0 discriminator 1 view .LVU133
 429 0004 372C     		cmp	r4, #55
 430 0006 08D8     		bhi	.L35
 431              		.loc 1 3436 3 is_stmt 1 discriminator 3 view .LVU134
 432 0008 04EB8402 		add	r2, r4, r4, lsl #2
 433 000c 9300     		lsls	r3, r2, #2
 434 000e 0C48     		ldr	r0, .L36
 435 0010 1844     		add	r0, r0, r3
 436 0012 0C4B     		ldr	r3, .L36+4
 437 0014 9847     		blx	r3
 438              	.LVL36:
 439              		.loc 1 3434 91 discriminator 3 view .LVU135
 440              		.loc 1 3434 101 is_stmt 0 discriminator 3 view .LVU136
 441 0016 0134     		adds	r4, r4, #1
 442              	.LVL37:
 443              		.loc 1 3434 101 discriminator 3 view .LVU137
 444 0018 F4E7     		b	.L32
 445              	.L35:
 446              		.loc 1 3439 2 is_stmt 1 view .LVU138
 447 001a 0B4E     		ldr	r6, .L36+8
 448 001c 3046     		mov	r0, r6
 449 001e 094C     		ldr	r4, .L36+4
 450              	.LVL38:
 451              		.loc 1 3439 2 is_stmt 0 view .LVU139
 452 0020 A047     		blx	r4
 453              	.LVL39:
 454              		.loc 1 3440 2 is_stmt 1 view .LVU140
 455 0022 0A4D     		ldr	r5, .L36+12
 456 0024 2846     		mov	r0, r5
 457 0026 A047     		blx	r4
 458              	.LVL40:
 459              		.loc 1 3441 2 view .LVU141
 460 0028 0948     		ldr	r0, .L36+16
 461 002a A047     		blx	r4
 462              	.LVL41:
 463              		.loc 1 3445 3 view .LVU142
ARM GAS  C:\Users\38164\AppData\Local\Temp\ccm74k8u.s 			page 9


 464 002c 0948     		ldr	r0, .L36+20
 465 002e A047     		blx	r4
 466              	.LVL42:
 467              		.loc 1 3451 3 view .LVU143
 468 0030 0948     		ldr	r0, .L36+24
 469 0032 A047     		blx	r4
 470              	.LVL43:
 471              		.loc 1 3457 2 view .LVU144
 472              		.loc 1 3457 20 is_stmt 0 view .LVU145
 473 0034 094B     		ldr	r3, .L36+28
 474 0036 1E60     		str	r6, [r3]
 475              		.loc 1 3458 2 is_stmt 1 view .LVU146
 476              		.loc 1 3458 28 is_stmt 0 view .LVU147
 477 0038 094B     		ldr	r3, .L36+32
 478 003a 1D60     		str	r5, [r3]
 479              		.loc 1 3459 1 view .LVU148
 480 003c 70BD     		pop	{r4, r5, r6, pc}
 481              	.L37:
 482 003e 00BF     		.align	2
 483              	.L36:
 484 0040 00000000 		.word	.LANCHOR4
 485 0044 00000000 		.word	vListInitialise
 486 0048 00000000 		.word	.LANCHOR5
 487 004c 00000000 		.word	.LANCHOR6
 488 0050 00000000 		.word	.LANCHOR1
 489 0054 00000000 		.word	.LANCHOR7
 490 0058 00000000 		.word	.LANCHOR0
 491 005c 00000000 		.word	.LANCHOR2
 492 0060 00000000 		.word	.LANCHOR8
 493              		.cfi_endproc
 494              	.LFE42:
 496              		.section	.text.prvAddNewTaskToReadyList,"ax",%progbits
 497              		.align	1
 498              		.syntax unified
 499              		.thumb
 500              		.thumb_func
 501              		.fpu softvfp
 503              	prvAddNewTaskToReadyList:
 504              	.LVL44:
 505              	.LFB7:
 506              		.loc 1 1022 1 is_stmt 1 view -0
 507              		.cfi_startproc
 508              		@ args = 0, pretend = 0, frame = 0
 509              		@ frame_needed = 0, uses_anonymous_args = 0
 510              		.loc 1 1022 1 is_stmt 0 view .LVU150
 511 0000 10B5     		push	{r4, lr}
 512              	.LCFI2:
 513              		.cfi_def_cfa_offset 8
 514              		.cfi_offset 4, -8
 515              		.cfi_offset 14, -4
 516 0002 0446     		mov	r4, r0
 517              		.loc 1 1025 2 is_stmt 1 view .LVU151
 518 0004 224B     		ldr	r3, .L46
 519 0006 9847     		blx	r3
 520              	.LVL45:
 521              		.loc 1 1027 3 view .LVU152
 522              		.loc 1 1027 25 is_stmt 0 view .LVU153
ARM GAS  C:\Users\38164\AppData\Local\Temp\ccm74k8u.s 			page 10


 523 0008 224A     		ldr	r2, .L46+4
 524 000a 1368     		ldr	r3, [r2]
 525 000c 0133     		adds	r3, r3, #1
 526 000e 1360     		str	r3, [r2]
 527              		.loc 1 1028 3 is_stmt 1 view .LVU154
 528              		.loc 1 1028 20 is_stmt 0 view .LVU155
 529 0010 214B     		ldr	r3, .L46+8
 530 0012 1B68     		ldr	r3, [r3]
 531              		.loc 1 1028 5 view .LVU156
 532 0014 5BB1     		cbz	r3, .L44
 533              		.loc 1 1051 4 is_stmt 1 view .LVU157
 534              		.loc 1 1051 26 is_stmt 0 view .LVU158
 535 0016 214B     		ldr	r3, .L46+12
 536 0018 1B68     		ldr	r3, [r3]
 537              		.loc 1 1051 6 view .LVU159
 538 001a 6BB9     		cbnz	r3, .L40
 539              		.loc 1 1053 5 is_stmt 1 view .LVU160
 540              		.loc 1 1053 21 is_stmt 0 view .LVU161
 541 001c 1E4B     		ldr	r3, .L46+8
 542 001e 1B68     		ldr	r3, [r3]
 543 0020 DA6A     		ldr	r2, [r3, #44]
 544              		.loc 1 1053 45 view .LVU162
 545 0022 E36A     		ldr	r3, [r4, #44]
 546              		.loc 1 1053 7 view .LVU163
 547 0024 9A42     		cmp	r2, r3
 548 0026 07D8     		bhi	.L40
 549              		.loc 1 1055 6 is_stmt 1 view .LVU164
 550              		.loc 1 1055 19 is_stmt 0 view .LVU165
 551 0028 1B4B     		ldr	r3, .L46+8
 552 002a 1C60     		str	r4, [r3]
 553 002c 04E0     		b	.L40
 554              	.L44:
 555              		.loc 1 1032 4 is_stmt 1 view .LVU166
 556              		.loc 1 1032 17 is_stmt 0 view .LVU167
 557 002e 1A4B     		ldr	r3, .L46+8
 558 0030 1C60     		str	r4, [r3]
 559              		.loc 1 1034 4 is_stmt 1 view .LVU168
 560              		.loc 1 1034 31 is_stmt 0 view .LVU169
 561 0032 1368     		ldr	r3, [r2]
 562              		.loc 1 1034 6 view .LVU170
 563 0034 012B     		cmp	r3, #1
 564 0036 27D0     		beq	.L45
 565              	.L40:
 566              		.loc 1 1064 29 is_stmt 1 view .LVU171
 567              		.loc 1 1068 3 view .LVU172
 568              		.loc 1 1068 15 is_stmt 0 view .LVU173
 569 0038 194A     		ldr	r2, .L46+16
 570 003a 1368     		ldr	r3, [r2]
 571 003c 0133     		adds	r3, r3, #1
 572 003e 1360     		str	r3, [r2]
 573              		.loc 1 1073 4 is_stmt 1 view .LVU174
 574              		.loc 1 1073 26 is_stmt 0 view .LVU175
 575 0040 6364     		str	r3, [r4, #68]
 576              		.loc 1 1076 31 is_stmt 1 view .LVU176
 577              		.loc 1 1078 3 view .LVU177
 578              		.loc 1 1078 3 view .LVU178
 579 0042 E06A     		ldr	r0, [r4, #44]
ARM GAS  C:\Users\38164\AppData\Local\Temp\ccm74k8u.s 			page 11


 580 0044 174B     		ldr	r3, .L46+20
 581 0046 1B68     		ldr	r3, [r3]
 582 0048 9842     		cmp	r0, r3
 583 004a 01D9     		bls	.L41
 584              		.loc 1 1078 3 discriminator 1 view .LVU179
 585 004c 154B     		ldr	r3, .L46+20
 586 004e 1860     		str	r0, [r3]
 587              	.L41:
 588              		.loc 1 1078 3 discriminator 3 view .LVU180
 589              		.loc 1 1078 3 discriminator 3 view .LVU181
 590 0050 00EB8000 		add	r0, r0, r0, lsl #2
 591 0054 211D     		adds	r1, r4, #4
 592 0056 144B     		ldr	r3, .L46+24
 593 0058 03EB8000 		add	r0, r3, r0, lsl #2
 594 005c 134B     		ldr	r3, .L46+28
 595 005e 9847     		blx	r3
 596              	.LVL46:
 597              		.loc 1 1078 36 discriminator 3 view .LVU182
 598              		.loc 1 1080 3 discriminator 3 view .LVU183
 599              		.loc 1 1082 2 discriminator 3 view .LVU184
 600 0060 134B     		ldr	r3, .L46+32
 601 0062 9847     		blx	r3
 602              	.LVL47:
 603              		.loc 1 1084 2 discriminator 3 view .LVU185
 604              		.loc 1 1084 24 is_stmt 0 discriminator 3 view .LVU186
 605 0064 0D4B     		ldr	r3, .L46+12
 606 0066 1B68     		ldr	r3, [r3]
 607              		.loc 1 1084 4 discriminator 3 view .LVU187
 608 0068 6BB1     		cbz	r3, .L38
 609              		.loc 1 1088 3 is_stmt 1 view .LVU188
 610              		.loc 1 1088 19 is_stmt 0 view .LVU189
 611 006a 0B4B     		ldr	r3, .L46+8
 612 006c 1B68     		ldr	r3, [r3]
 613 006e DA6A     		ldr	r2, [r3, #44]
 614              		.loc 1 1088 42 view .LVU190
 615 0070 E36A     		ldr	r3, [r4, #44]
 616              		.loc 1 1088 5 view .LVU191
 617 0072 9A42     		cmp	r2, r3
 618 0074 07D2     		bcs	.L38
 619              		.loc 1 1090 4 is_stmt 1 view .LVU192
 620 0076 0F4B     		ldr	r3, .L46+36
 621 0078 4FF08052 		mov	r2, #268435456
 622 007c 1A60     		str	r2, [r3]
 623              		.loc 1 1090 4 view .LVU193
 624              		.syntax unified
 625              	@ 1090 "Middlewares/Third_Party/FreeRTOS/Source/tasks.c" 1
 626 007e BFF34F8F 		dsb
 627              	@ 0 "" 2
 628              		.loc 1 1090 4 view .LVU194
 629              	@ 1090 "Middlewares/Third_Party/FreeRTOS/Source/tasks.c" 1
 630 0082 BFF36F8F 		isb
 631              	@ 0 "" 2
 632              		.loc 1 1090 35 view .LVU195
 633              		.loc 1 1099 27 view .LVU196
 634              		.thumb
 635              		.syntax unified
 636              	.L38:
ARM GAS  C:\Users\38164\AppData\Local\Temp\ccm74k8u.s 			page 12


 637              		.loc 1 1101 1 is_stmt 0 view .LVU197
 638 0086 10BD     		pop	{r4, pc}
 639              	.LVL48:
 640              	.L45:
 641              		.loc 1 1039 5 is_stmt 1 view .LVU198
 642 0088 0B4B     		ldr	r3, .L46+40
 643 008a 9847     		blx	r3
 644              	.LVL49:
 645 008c D4E7     		b	.L40
 646              	.L47:
 647 008e 00BF     		.align	2
 648              	.L46:
 649 0090 00000000 		.word	vPortEnterCritical
 650 0094 00000000 		.word	.LANCHOR9
 651 0098 00000000 		.word	.LANCHOR10
 652 009c 00000000 		.word	.LANCHOR11
 653 00a0 00000000 		.word	.LANCHOR12
 654 00a4 00000000 		.word	.LANCHOR13
 655 00a8 00000000 		.word	.LANCHOR4
 656 00ac 00000000 		.word	vListInsertEnd
 657 00b0 00000000 		.word	vPortExitCritical
 658 00b4 04ED00E0 		.word	-536810236
 659 00b8 00000000 		.word	prvInitialiseTaskLists
 660              		.cfi_endproc
 661              	.LFE7:
 663              		.section	.text.prvDeleteTCB,"ax",%progbits
 664              		.align	1
 665              		.syntax unified
 666              		.thumb
 667              		.thumb_func
 668              		.fpu softvfp
 670              	prvDeleteTCB:
 671              	.LVL50:
 672              	.LFB48:
 673              		.loc 1 3671 2 view -0
 674              		.cfi_startproc
 675              		@ args = 0, pretend = 0, frame = 0
 676              		@ frame_needed = 0, uses_anonymous_args = 0
 677              		.loc 1 3671 2 is_stmt 0 view .LVU200
 678 0000 38B5     		push	{r3, r4, r5, lr}
 679              	.LCFI3:
 680              		.cfi_def_cfa_offset 16
 681              		.cfi_offset 3, -16
 682              		.cfi_offset 4, -12
 683              		.cfi_offset 5, -8
 684              		.cfi_offset 14, -4
 685 0002 0446     		mov	r4, r0
 686              		.loc 1 3675 3 is_stmt 1 view .LVU201
 687              		.loc 1 3697 4 view .LVU202
 688              		.loc 1 3697 13 is_stmt 0 view .LVU203
 689 0004 90F85930 		ldrb	r3, [r0, #89]	@ zero_extendqisi2
 690              		.loc 1 3697 6 view .LVU204
 691 0008 63B1     		cbz	r3, .L54
 692              		.loc 1 3704 9 is_stmt 1 view .LVU205
 693              		.loc 1 3704 11 is_stmt 0 view .LVU206
 694 000a 012B     		cmp	r3, #1
 695 000c 10D0     		beq	.L55
ARM GAS  C:\Users\38164\AppData\Local\Temp\ccm74k8u.s 			page 13


 696              		.loc 1 3714 5 is_stmt 1 view .LVU207
 697 000e 022B     		cmp	r3, #2
 698 0010 0DD0     		beq	.L48
 699              		.loc 1 3714 5 view .LVU208
 700              	.LBB115:
 701              	.LBI115:
 702              		.loc 2 191 30 view .LVU209
 703              	.LBB116:
 704              		.loc 2 193 1 view .LVU210
 705              		.loc 2 195 2 view .LVU211
 706              		.syntax unified
 707              	@ 195 "Middlewares/Third_Party/FreeRTOS/Source/portable/GCC/ARM_CM3/portmacro.h" 1
 708 0012 4FF05003 			mov r3, #80												
 709 0016 83F31188 		msr basepri, r3											
 710 001a BFF36F8F 		isb														
 711 001e BFF34F8F 		dsb														
 712              	
 713              	@ 0 "" 2
 714              	.LVL51:
 715              		.thumb
 716              		.syntax unified
 717              	.L52:
 718              		.loc 2 195 2 is_stmt 0 view .LVU212
 719              	.LBE116:
 720              	.LBE115:
 721              		.loc 1 3714 5 is_stmt 1 discriminator 1 view .LVU213
 722              		.loc 1 3714 5 discriminator 1 view .LVU214
 723              		.loc 1 3714 5 discriminator 1 view .LVU215
 724 0022 FEE7     		b	.L52
 725              	.L54:
 726              		.loc 1 3701 5 view .LVU216
 727 0024 006B     		ldr	r0, [r0, #48]
 728              	.LVL52:
 729              		.loc 1 3701 5 is_stmt 0 view .LVU217
 730 0026 044D     		ldr	r5, .L56
 731 0028 A847     		blx	r5
 732              	.LVL53:
 733              		.loc 1 3702 5 is_stmt 1 view .LVU218
 734 002a 2046     		mov	r0, r4
 735 002c A847     		blx	r5
 736              	.LVL54:
 737              	.L48:
 738              		.loc 1 3719 2 is_stmt 0 view .LVU219
 739 002e 38BD     		pop	{r3, r4, r5, pc}
 740              	.LVL55:
 741              	.L55:
 742              		.loc 1 3708 5 is_stmt 1 view .LVU220
 743 0030 014B     		ldr	r3, .L56
 744 0032 9847     		blx	r3
 745              	.LVL56:
 746              		.loc 1 3708 5 is_stmt 0 view .LVU221
 747 0034 FBE7     		b	.L48
 748              	.L57:
 749 0036 00BF     		.align	2
 750              	.L56:
 751 0038 00000000 		.word	vPortFree
 752              		.cfi_endproc
ARM GAS  C:\Users\38164\AppData\Local\Temp\ccm74k8u.s 			page 14


 753              	.LFE48:
 755              		.section	.text.prvCheckTasksWaitingTermination,"ax",%progbits
 756              		.align	1
 757              		.syntax unified
 758              		.thumb
 759              		.thumb_func
 760              		.fpu softvfp
 762              	prvCheckTasksWaitingTermination:
 763              	.LFB43:
 764              		.loc 1 3463 1 is_stmt 1 view -0
 765              		.cfi_startproc
 766              		@ args = 0, pretend = 0, frame = 0
 767              		@ frame_needed = 0, uses_anonymous_args = 0
 768              	.LBB117:
 769              		.loc 1 3469 3 view .LVU223
 770              		.loc 1 3473 3 view .LVU224
 771              		.loc 1 3473 8 view .LVU225
 772              		.loc 1 3473 39 is_stmt 0 view .LVU226
 773 0000 0F4B     		ldr	r3, .L65
 774 0002 1B68     		ldr	r3, [r3]
 775              		.loc 1 3473 8 view .LVU227
 776 0004 D3B1     		cbz	r3, .L64
 777              	.LBE117:
 778              		.loc 1 3463 1 view .LVU228
 779 0006 10B5     		push	{r4, lr}
 780              	.LCFI4:
 781              		.cfi_def_cfa_offset 8
 782              		.cfi_offset 4, -8
 783              		.cfi_offset 14, -4
 784              	.L60:
 785              	.LBB118:
 786              		.loc 1 3475 4 is_stmt 1 view .LVU229
 787 0008 0E4B     		ldr	r3, .L65+4
 788 000a 9847     		blx	r3
 789              	.LVL57:
 790              		.loc 1 3477 5 view .LVU230
 791              		.loc 1 3477 25 is_stmt 0 view .LVU231
 792 000c 0E4B     		ldr	r3, .L65+8
 793 000e DB68     		ldr	r3, [r3, #12]
 794              		.loc 1 3477 11 view .LVU232
 795 0010 DC68     		ldr	r4, [r3, #12]
 796              	.LVL58:
 797              		.loc 1 3478 5 is_stmt 1 view .LVU233
 798              		.loc 1 3478 14 is_stmt 0 view .LVU234
 799 0012 201D     		adds	r0, r4, #4
 800 0014 0D4B     		ldr	r3, .L65+12
 801 0016 9847     		blx	r3
 802              	.LVL59:
 803              		.loc 1 3479 5 is_stmt 1 view .LVU235
 804 0018 0D4A     		ldr	r2, .L65+16
 805 001a 1368     		ldr	r3, [r2]
 806 001c 013B     		subs	r3, r3, #1
 807 001e 1360     		str	r3, [r2]
 808              		.loc 1 3480 5 view .LVU236
 809 0020 074A     		ldr	r2, .L65
 810 0022 1368     		ldr	r3, [r2]
 811 0024 013B     		subs	r3, r3, #1
ARM GAS  C:\Users\38164\AppData\Local\Temp\ccm74k8u.s 			page 15


 812 0026 1360     		str	r3, [r2]
 813              		.loc 1 3482 4 view .LVU237
 814 0028 0A4B     		ldr	r3, .L65+20
 815 002a 9847     		blx	r3
 816              	.LVL60:
 817              		.loc 1 3484 4 view .LVU238
 818 002c 2046     		mov	r0, r4
 819 002e 0A4B     		ldr	r3, .L65+24
 820 0030 9847     		blx	r3
 821              	.LVL61:
 822              		.loc 1 3473 8 view .LVU239
 823              		.loc 1 3473 39 is_stmt 0 view .LVU240
 824 0032 034B     		ldr	r3, .L65
 825 0034 1B68     		ldr	r3, [r3]
 826              		.loc 1 3473 8 view .LVU241
 827 0036 002B     		cmp	r3, #0
 828 0038 E6D1     		bne	.L60
 829              	.LBE118:
 830              		.loc 1 3488 1 view .LVU242
 831 003a 10BD     		pop	{r4, pc}
 832              	.LVL62:
 833              	.L64:
 834              	.LCFI5:
 835              		.cfi_def_cfa_offset 0
 836              		.cfi_restore 4
 837              		.cfi_restore 14
 838              		.loc 1 3488 1 view .LVU243
 839 003c 7047     		bx	lr
 840              	.L66:
 841 003e 00BF     		.align	2
 842              	.L65:
 843 0040 00000000 		.word	.LANCHOR14
 844 0044 00000000 		.word	vPortEnterCritical
 845 0048 00000000 		.word	.LANCHOR7
 846 004c 00000000 		.word	uxListRemove
 847 0050 00000000 		.word	.LANCHOR9
 848 0054 00000000 		.word	vPortExitCritical
 849 0058 00000000 		.word	prvDeleteTCB
 850              		.cfi_endproc
 851              	.LFE43:
 853              		.section	.text.prvIdleTask,"ax",%progbits
 854              		.align	1
 855              		.syntax unified
 856              		.thumb
 857              		.thumb_func
 858              		.fpu softvfp
 860              	prvIdleTask:
 861              	.LFB41:
 862              		.loc 1 3219 1 is_stmt 1 view -0
 863              		.cfi_startproc
 864              		@ Volatile: function does not return.
 865              		@ args = 0, pretend = 0, frame = 0
 866              		@ frame_needed = 0, uses_anonymous_args = 0
 867              	.LVL63:
 868              		.loc 1 3219 1 is_stmt 0 view .LVU245
 869 0000 08B5     		push	{r3, lr}
 870              	.LCFI6:
ARM GAS  C:\Users\38164\AppData\Local\Temp\ccm74k8u.s 			page 16


 871              		.cfi_def_cfa_offset 8
 872              		.cfi_offset 3, -8
 873              		.cfi_offset 14, -4
 874              	.LVL64:
 875              	.L68:
 876              		.loc 1 3221 2 is_stmt 1 view .LVU246
 877              		.loc 1 3229 35 view .LVU247
 878              		.loc 1 3231 2 view .LVU248
 879              		.loc 1 3235 3 view .LVU249
 880 0002 074B     		ldr	r3, .L71
 881 0004 9847     		blx	r3
 882              	.LVL65:
 883              		.loc 1 3258 4 view .LVU250
 884              		.loc 1 3258 8 is_stmt 0 view .LVU251
 885 0006 074B     		ldr	r3, .L71+4
 886 0008 1B68     		ldr	r3, [r3]
 887              		.loc 1 3258 6 view .LVU252
 888 000a 012B     		cmp	r3, #1
 889 000c F9D9     		bls	.L68
 890              		.loc 1 3260 5 is_stmt 1 view .LVU253
 891 000e 064B     		ldr	r3, .L71+8
 892 0010 4FF08052 		mov	r2, #268435456
 893 0014 1A60     		str	r2, [r3]
 894              		.loc 1 3260 5 view .LVU254
 895              		.syntax unified
 896              	@ 3260 "Middlewares/Third_Party/FreeRTOS/Source/tasks.c" 1
 897 0016 BFF34F8F 		dsb
 898              	@ 0 "" 2
 899              		.loc 1 3260 5 view .LVU255
 900              	@ 3260 "Middlewares/Third_Party/FreeRTOS/Source/tasks.c" 1
 901 001a BFF36F8F 		isb
 902              	@ 0 "" 2
 903              		.loc 1 3260 16 view .LVU256
 904              		.thumb
 905              		.syntax unified
 906 001e F0E7     		b	.L68
 907              	.L72:
 908              		.align	2
 909              	.L71:
 910 0020 00000000 		.word	prvCheckTasksWaitingTermination
 911 0024 00000000 		.word	.LANCHOR4
 912 0028 04ED00E0 		.word	-536810236
 913              		.cfi_endproc
 914              	.LFE41:
 916              		.section	.text.prvAddCurrentTaskToDelayedList,"ax",%progbits
 917              		.align	1
 918              		.syntax unified
 919              		.thumb
 920              		.thumb_func
 921              		.fpu softvfp
 923              	prvAddCurrentTaskToDelayedList:
 924              	.LVL66:
 925              	.LFB63:
 926              		.loc 1 4907 1 view -0
 927              		.cfi_startproc
 928              		@ args = 0, pretend = 0, frame = 0
 929              		@ frame_needed = 0, uses_anonymous_args = 0
ARM GAS  C:\Users\38164\AppData\Local\Temp\ccm74k8u.s 			page 17


 930              		.loc 1 4907 1 is_stmt 0 view .LVU258
 931 0000 70B5     		push	{r4, r5, r6, lr}
 932              	.LCFI7:
 933              		.cfi_def_cfa_offset 16
 934              		.cfi_offset 4, -16
 935              		.cfi_offset 5, -12
 936              		.cfi_offset 6, -8
 937              		.cfi_offset 14, -4
 938 0002 0446     		mov	r4, r0
 939 0004 0D46     		mov	r5, r1
 940              		.loc 1 4908 1 is_stmt 1 view .LVU259
 941              		.loc 1 4909 1 view .LVU260
 942              		.loc 1 4909 18 is_stmt 0 view .LVU261
 943 0006 174B     		ldr	r3, .L79
 944 0008 1E68     		ldr	r6, [r3]
 945              	.LVL67:
 946              		.loc 1 4922 2 is_stmt 1 view .LVU262
 947              		.loc 1 4922 35 is_stmt 0 view .LVU263
 948 000a 174B     		ldr	r3, .L79+4
 949 000c 1868     		ldr	r0, [r3]
 950              	.LVL68:
 951              		.loc 1 4922 6 view .LVU264
 952 000e 0430     		adds	r0, r0, #4
 953 0010 164B     		ldr	r3, .L79+8
 954 0012 9847     		blx	r3
 955              	.LVL69:
 956              		.loc 1 4930 27 is_stmt 1 view .LVU265
 957              		.loc 1 4935 3 view .LVU266
 958              		.loc 1 4935 5 is_stmt 0 view .LVU267
 959 0014 B4F1FF3F 		cmp	r4, #-1
 960 0018 0DD0     		beq	.L78
 961              	.L74:
 962              		.loc 1 4947 4 is_stmt 1 view .LVU268
 963              		.loc 1 4947 16 is_stmt 0 view .LVU269
 964 001a 3444     		add	r4, r4, r6
 965              	.LVL70:
 966              		.loc 1 4950 4 is_stmt 1 view .LVU270
 967 001c 124B     		ldr	r3, .L79+4
 968 001e 1B68     		ldr	r3, [r3]
 969 0020 5C60     		str	r4, [r3, #4]
 970              		.loc 1 4952 4 view .LVU271
 971              		.loc 1 4952 6 is_stmt 0 view .LVU272
 972 0022 A642     		cmp	r6, r4
 973 0024 10D9     		bls	.L76
 974              		.loc 1 4956 5 is_stmt 1 view .LVU273
 975 0026 124B     		ldr	r3, .L79+12
 976 0028 1868     		ldr	r0, [r3]
 977              		.loc 1 4956 60 is_stmt 0 view .LVU274
 978 002a 0F4B     		ldr	r3, .L79+4
 979 002c 1968     		ldr	r1, [r3]
 980              		.loc 1 4956 5 view .LVU275
 981 002e 0431     		adds	r1, r1, #4
 982 0030 104B     		ldr	r3, .L79+16
 983 0032 9847     		blx	r3
 984              	.LVL71:
 985              	.L73:
 986              		.loc 1 5015 1 view .LVU276
ARM GAS  C:\Users\38164\AppData\Local\Temp\ccm74k8u.s 			page 18


 987 0034 70BD     		pop	{r4, r5, r6, pc}
 988              	.LVL72:
 989              	.L78:
 990              		.loc 1 4935 41 discriminator 1 view .LVU277
 991 0036 002D     		cmp	r5, #0
 992 0038 EFD0     		beq	.L74
 993              		.loc 1 4940 4 is_stmt 1 view .LVU278
 994              		.loc 1 4940 56 is_stmt 0 view .LVU279
 995 003a 0B4B     		ldr	r3, .L79+4
 996 003c 1968     		ldr	r1, [r3]
 997              		.loc 1 4940 4 view .LVU280
 998 003e 0431     		adds	r1, r1, #4
 999 0040 0D48     		ldr	r0, .L79+20
 1000 0042 0E4B     		ldr	r3, .L79+24
 1001 0044 9847     		blx	r3
 1002              	.LVL73:
 1003 0046 F5E7     		b	.L73
 1004              	.LVL74:
 1005              	.L76:
 1006              		.loc 1 4962 5 is_stmt 1 view .LVU281
 1007 0048 0D4B     		ldr	r3, .L79+28
 1008 004a 1868     		ldr	r0, [r3]
 1009              		.loc 1 4962 52 is_stmt 0 view .LVU282
 1010 004c 064B     		ldr	r3, .L79+4
 1011 004e 1968     		ldr	r1, [r3]
 1012              		.loc 1 4962 5 view .LVU283
 1013 0050 0431     		adds	r1, r1, #4
 1014 0052 084B     		ldr	r3, .L79+16
 1015 0054 9847     		blx	r3
 1016              	.LVL75:
 1017              		.loc 1 4967 5 is_stmt 1 view .LVU284
 1018              		.loc 1 4967 21 is_stmt 0 view .LVU285
 1019 0056 0B4B     		ldr	r3, .L79+32
 1020 0058 1B68     		ldr	r3, [r3]
 1021              		.loc 1 4967 7 view .LVU286
 1022 005a A342     		cmp	r3, r4
 1023 005c EAD9     		bls	.L73
 1024              		.loc 1 4969 6 is_stmt 1 view .LVU287
 1025              		.loc 1 4969 27 is_stmt 0 view .LVU288
 1026 005e 094B     		ldr	r3, .L79+32
 1027 0060 1C60     		str	r4, [r3]
 1028              		.loc 1 4973 30 is_stmt 1 view .LVU289
 1029              		.loc 1 5015 1 is_stmt 0 view .LVU290
 1030 0062 E7E7     		b	.L73
 1031              	.L80:
 1032              		.align	2
 1033              	.L79:
 1034 0064 00000000 		.word	.LANCHOR15
 1035 0068 00000000 		.word	.LANCHOR10
 1036 006c 00000000 		.word	uxListRemove
 1037 0070 00000000 		.word	.LANCHOR8
 1038 0074 00000000 		.word	vListInsert
 1039 0078 00000000 		.word	.LANCHOR0
 1040 007c 00000000 		.word	vListInsertEnd
 1041 0080 00000000 		.word	.LANCHOR2
 1042 0084 00000000 		.word	.LANCHOR3
 1043              		.cfi_endproc
ARM GAS  C:\Users\38164\AppData\Local\Temp\ccm74k8u.s 			page 19


 1044              	.LFE63:
 1046              		.section	.text.xTaskCreateStatic,"ax",%progbits
 1047              		.align	1
 1048              		.global	xTaskCreateStatic
 1049              		.syntax unified
 1050              		.thumb
 1051              		.thumb_func
 1052              		.fpu softvfp
 1054              	xTaskCreateStatic:
 1055              	.LVL76:
 1056              	.LFB4:
 1057              		.loc 1 582 2 is_stmt 1 view -0
 1058              		.cfi_startproc
 1059              		@ args = 12, pretend = 0, frame = 8
 1060              		@ frame_needed = 0, uses_anonymous_args = 0
 1061              		.loc 1 582 2 is_stmt 0 view .LVU292
 1062 0000 70B5     		push	{r4, r5, r6, lr}
 1063              	.LCFI8:
 1064              		.cfi_def_cfa_offset 16
 1065              		.cfi_offset 4, -16
 1066              		.cfi_offset 5, -12
 1067              		.cfi_offset 6, -8
 1068              		.cfi_offset 14, -4
 1069 0002 86B0     		sub	sp, sp, #24
 1070              	.LCFI9:
 1071              		.cfi_def_cfa_offset 40
 1072 0004 0B9D     		ldr	r5, [sp, #44]
 1073 0006 0C9C     		ldr	r4, [sp, #48]
 1074              		.loc 1 583 2 is_stmt 1 view .LVU293
 1075              		.loc 1 584 2 view .LVU294
 1076              		.loc 1 586 3 view .LVU295
 1077 0008 75B1     		cbz	r5, .L89
 1078              		.loc 1 586 41 discriminator 2 view .LVU296
 1079              		.loc 1 587 3 discriminator 2 view .LVU297
 1080 000a B4B1     		cbz	r4, .L90
 1081              		.loc 1 587 39 discriminator 2 view .LVU298
 1082              	.LBB119:
 1083              		.loc 1 594 4 discriminator 2 view .LVU299
 1084              		.loc 1 594 20 is_stmt 0 discriminator 2 view .LVU300
 1085 000c 5C26     		movs	r6, #92
 1086 000e 0496     		str	r6, [sp, #16]
 1087              		.loc 1 595 4 is_stmt 1 discriminator 2 view .LVU301
 1088 0010 049E     		ldr	r6, [sp, #16]
 1089 0012 5C2E     		cmp	r6, #92
 1090 0014 1AD0     		beq	.L86
 1091              		.loc 1 595 4 view .LVU302
 1092              	.LBB120:
 1093              	.LBI120:
 1094              		.loc 2 191 30 view .LVU303
 1095              	.LBB121:
 1096              		.loc 2 193 1 view .LVU304
 1097              		.loc 2 195 2 view .LVU305
 1098              		.syntax unified
 1099              	@ 195 "Middlewares/Third_Party/FreeRTOS/Source/portable/GCC/ARM_CM3/portmacro.h" 1
 1100 0016 4FF05003 			mov r3, #80												
 1101 001a 83F31188 		msr basepri, r3											
 1102 001e BFF36F8F 		isb														
ARM GAS  C:\Users\38164\AppData\Local\Temp\ccm74k8u.s 			page 20


 1103 0022 BFF34F8F 		dsb														
 1104              	
 1105              	@ 0 "" 2
 1106              	.LVL77:
 1107              		.thumb
 1108              		.syntax unified
 1109              	.L87:
 1110              		.loc 2 195 2 is_stmt 0 view .LVU306
 1111              	.LBE121:
 1112              	.LBE120:
 1113              		.loc 1 595 4 is_stmt 1 discriminator 3 view .LVU307
 1114              		.loc 1 595 4 discriminator 3 view .LVU308
 1115              		.loc 1 595 4 discriminator 3 view .LVU309
 1116 0026 FEE7     		b	.L87
 1117              	.LVL78:
 1118              	.L89:
 1119              		.loc 1 595 4 is_stmt 0 discriminator 3 view .LVU310
 1120              	.LBE119:
 1121              		.loc 1 586 3 is_stmt 1 view .LVU311
 1122              	.LBB122:
 1123              	.LBI122:
 1124              		.loc 2 191 30 view .LVU312
 1125              	.LBB123:
 1126              		.loc 2 193 1 view .LVU313
 1127              		.loc 2 195 2 view .LVU314
 1128              		.syntax unified
 1129              	@ 195 "Middlewares/Third_Party/FreeRTOS/Source/portable/GCC/ARM_CM3/portmacro.h" 1
 1130 0028 4FF05003 			mov r3, #80												
 1131 002c 83F31188 		msr basepri, r3											
 1132 0030 BFF36F8F 		isb														
 1133 0034 BFF34F8F 		dsb														
 1134              	
 1135              	@ 0 "" 2
 1136              	.LVL79:
 1137              		.thumb
 1138              		.syntax unified
 1139              	.L83:
 1140              		.loc 2 195 2 is_stmt 0 view .LVU315
 1141              	.LBE123:
 1142              	.LBE122:
 1143              		.loc 1 586 3 is_stmt 1 discriminator 1 view .LVU316
 1144              		.loc 1 586 3 discriminator 1 view .LVU317
 1145              		.loc 1 586 3 discriminator 1 view .LVU318
 1146 0038 FEE7     		b	.L83
 1147              	.LVL80:
 1148              	.L90:
 1149              		.loc 1 587 3 view .LVU319
 1150              	.LBB124:
 1151              	.LBI124:
 1152              		.loc 2 191 30 view .LVU320
 1153              	.LBB125:
 1154              		.loc 2 193 1 view .LVU321
 1155              		.loc 2 195 2 view .LVU322
 1156              		.syntax unified
 1157              	@ 195 "Middlewares/Third_Party/FreeRTOS/Source/portable/GCC/ARM_CM3/portmacro.h" 1
 1158 003a 4FF05003 			mov r3, #80												
 1159 003e 83F31188 		msr basepri, r3											
ARM GAS  C:\Users\38164\AppData\Local\Temp\ccm74k8u.s 			page 21


 1160 0042 BFF36F8F 		isb														
 1161 0046 BFF34F8F 		dsb														
 1162              	
 1163              	@ 0 "" 2
 1164              	.LVL81:
 1165              		.thumb
 1166              		.syntax unified
 1167              	.L85:
 1168              		.loc 2 195 2 is_stmt 0 view .LVU323
 1169              	.LBE125:
 1170              	.LBE124:
 1171              		.loc 1 587 3 is_stmt 1 discriminator 2 view .LVU324
 1172              		.loc 1 587 3 discriminator 2 view .LVU325
 1173              		.loc 1 587 3 discriminator 2 view .LVU326
 1174 004a FEE7     		b	.L85
 1175              	.LVL82:
 1176              	.L86:
 1177              	.LBB126:
 1178              		.loc 1 595 44 view .LVU327
 1179              	.LBE126:
 1180              		.loc 1 600 3 view .LVU328
 1181              		.loc 1 604 4 view .LVU329
 1182              		.loc 1 605 4 view .LVU330
 1183              		.loc 1 605 22 is_stmt 0 view .LVU331
 1184 004c 2563     		str	r5, [r4, #48]
 1185              		.loc 1 611 5 is_stmt 1 view .LVU332
 1186              		.loc 1 611 37 is_stmt 0 view .LVU333
 1187 004e 0225     		movs	r5, #2
 1188 0050 84F85950 		strb	r5, [r4, #89]
 1189              		.loc 1 615 4 is_stmt 1 view .LVU334
 1190 0054 0025     		movs	r5, #0
 1191 0056 0395     		str	r5, [sp, #12]
 1192 0058 0294     		str	r4, [sp, #8]
 1193 005a 05AD     		add	r5, sp, #20
 1194 005c 0195     		str	r5, [sp, #4]
 1195 005e 0A9D     		ldr	r5, [sp, #40]
 1196 0060 0095     		str	r5, [sp]
 1197 0062 044D     		ldr	r5, .L91
 1198 0064 A847     		blx	r5
 1199              	.LVL83:
 1200              		.loc 1 616 4 view .LVU335
 1201 0066 2046     		mov	r0, r4
 1202 0068 034B     		ldr	r3, .L91+4
 1203 006a 9847     		blx	r3
 1204              	.LVL84:
 1205              		.loc 1 623 3 view .LVU336
 1206              		.loc 1 624 2 is_stmt 0 view .LVU337
 1207 006c 0598     		ldr	r0, [sp, #20]
 1208 006e 06B0     		add	sp, sp, #24
 1209              	.LCFI10:
 1210              		.cfi_def_cfa_offset 16
 1211              		@ sp needed
 1212 0070 70BD     		pop	{r4, r5, r6, pc}
 1213              	.LVL85:
 1214              	.L92:
 1215              		.loc 1 624 2 view .LVU338
 1216 0072 00BF     		.align	2
ARM GAS  C:\Users\38164\AppData\Local\Temp\ccm74k8u.s 			page 22


 1217              	.L91:
 1218 0074 00000000 		.word	prvInitialiseNewTask
 1219 0078 00000000 		.word	prvAddNewTaskToReadyList
 1220              		.cfi_endproc
 1221              	.LFE4:
 1223              		.section	.text.xTaskCreate,"ax",%progbits
 1224              		.align	1
 1225              		.global	xTaskCreate
 1226              		.syntax unified
 1227              		.thumb
 1228              		.thumb_func
 1229              		.fpu softvfp
 1231              	xTaskCreate:
 1232              	.LVL86:
 1233              	.LFB5:
 1234              		.loc 1 732 2 is_stmt 1 view -0
 1235              		.cfi_startproc
 1236              		@ args = 8, pretend = 0, frame = 0
 1237              		@ frame_needed = 0, uses_anonymous_args = 0
 1238              		.loc 1 732 2 is_stmt 0 view .LVU340
 1239 0000 2DE9F043 		push	{r4, r5, r6, r7, r8, r9, lr}
 1240              	.LCFI11:
 1241              		.cfi_def_cfa_offset 28
 1242              		.cfi_offset 4, -28
 1243              		.cfi_offset 5, -24
 1244              		.cfi_offset 6, -20
 1245              		.cfi_offset 7, -16
 1246              		.cfi_offset 8, -12
 1247              		.cfi_offset 9, -8
 1248              		.cfi_offset 14, -4
 1249 0004 85B0     		sub	sp, sp, #20
 1250              	.LCFI12:
 1251              		.cfi_def_cfa_offset 48
 1252 0006 0546     		mov	r5, r0
 1253 0008 0E46     		mov	r6, r1
 1254 000a 1446     		mov	r4, r2
 1255 000c 9846     		mov	r8, r3
 1256              		.loc 1 733 2 is_stmt 1 view .LVU341
 1257              		.loc 1 734 2 view .LVU342
 1258              	.LBB127:
 1259              		.loc 1 763 3 view .LVU343
 1260              		.loc 1 766 4 view .LVU344
 1261              		.loc 1 766 32 is_stmt 0 view .LVU345
 1262 000e 9000     		lsls	r0, r2, #2
 1263              	.LVL87:
 1264              		.loc 1 766 32 view .LVU346
 1265 0010 154A     		ldr	r2, .L100
 1266              	.LVL88:
 1267              		.loc 1 766 32 view .LVU347
 1268 0012 9047     		blx	r2
 1269              	.LVL89:
 1270              		.loc 1 768 4 is_stmt 1 view .LVU348
 1271              		.loc 1 768 6 is_stmt 0 view .LVU349
 1272 0014 00B3     		cbz	r0, .L97
 1273 0016 8146     		mov	r9, r0
 1274              		.loc 1 771 5 is_stmt 1 view .LVU350
 1275              		.loc 1 771 28 is_stmt 0 view .LVU351
ARM GAS  C:\Users\38164\AppData\Local\Temp\ccm74k8u.s 			page 23


 1276 0018 5C20     		movs	r0, #92
 1277              	.LVL90:
 1278              		.loc 1 771 28 view .LVU352
 1279 001a 134B     		ldr	r3, .L100
 1280 001c 9847     		blx	r3
 1281              	.LVL91:
 1282              		.loc 1 773 5 is_stmt 1 view .LVU353
 1283              		.loc 1 773 7 is_stmt 0 view .LVU354
 1284 001e 0746     		mov	r7, r0
 1285 0020 B0B1     		cbz	r0, .L95
 1286              		.loc 1 776 6 is_stmt 1 view .LVU355
 1287              		.loc 1 776 24 is_stmt 0 view .LVU356
 1288 0022 C0F83090 		str	r9, [r0, #48]
 1289              	.LVL92:
 1290              	.L96:
 1291              		.loc 1 776 24 view .LVU357
 1292              	.LBE127:
 1293              		.loc 1 792 3 is_stmt 1 view .LVU358
 1294              		.loc 1 792 5 is_stmt 0 view .LVU359
 1295 0026 E7B1     		cbz	r7, .L98
 1296              		.loc 1 798 5 is_stmt 1 view .LVU360
 1297              		.loc 1 798 37 is_stmt 0 view .LVU361
 1298 0028 0023     		movs	r3, #0
 1299 002a 87F85930 		strb	r3, [r7, #89]
 1300              		.loc 1 802 4 is_stmt 1 view .LVU362
 1301 002e 0393     		str	r3, [sp, #12]
 1302 0030 0297     		str	r7, [sp, #8]
 1303 0032 0D9B     		ldr	r3, [sp, #52]
 1304 0034 0193     		str	r3, [sp, #4]
 1305 0036 0C9B     		ldr	r3, [sp, #48]
 1306 0038 0093     		str	r3, [sp]
 1307 003a 4346     		mov	r3, r8
 1308 003c 2246     		mov	r2, r4
 1309 003e 3146     		mov	r1, r6
 1310 0040 2846     		mov	r0, r5
 1311 0042 0A4C     		ldr	r4, .L100+4
 1312 0044 A047     		blx	r4
 1313              	.LVL93:
 1314              		.loc 1 803 4 view .LVU363
 1315 0046 3846     		mov	r0, r7
 1316 0048 094B     		ldr	r3, .L100+8
 1317 004a 9847     		blx	r3
 1318              	.LVL94:
 1319              		.loc 1 804 4 view .LVU364
 1320              		.loc 1 804 12 is_stmt 0 view .LVU365
 1321 004c 0120     		movs	r0, #1
 1322 004e 05E0     		b	.L93
 1323              	.LVL95:
 1324              	.L95:
 1325              	.LBB128:
 1326              		.loc 1 782 6 is_stmt 1 view .LVU366
 1327 0050 4846     		mov	r0, r9
 1328              	.LVL96:
 1329              		.loc 1 782 6 is_stmt 0 view .LVU367
 1330 0052 084B     		ldr	r3, .L100+12
 1331 0054 9847     		blx	r3
 1332              	.LVL97:
ARM GAS  C:\Users\38164\AppData\Local\Temp\ccm74k8u.s 			page 24


 1333 0056 E6E7     		b	.L96
 1334              	.LVL98:
 1335              	.L97:
 1336              		.loc 1 782 6 view .LVU368
 1337              	.LBE128:
 1338              		.loc 1 808 12 view .LVU369
 1339 0058 4FF0FF30 		mov	r0, #-1
 1340              	.LVL99:
 1341              	.L93:
 1342              		.loc 1 812 2 view .LVU370
 1343 005c 05B0     		add	sp, sp, #20
 1344              	.LCFI13:
 1345              		.cfi_remember_state
 1346              		.cfi_def_cfa_offset 28
 1347              		@ sp needed
 1348 005e BDE8F083 		pop	{r4, r5, r6, r7, r8, r9, pc}
 1349              	.LVL100:
 1350              	.L98:
 1351              	.LCFI14:
 1352              		.cfi_restore_state
 1353              		.loc 1 808 12 view .LVU371
 1354 0062 4FF0FF30 		mov	r0, #-1
 1355              	.LVL101:
 1356              		.loc 1 811 3 is_stmt 1 view .LVU372
 1357              		.loc 1 811 10 is_stmt 0 view .LVU373
 1358 0066 F9E7     		b	.L93
 1359              	.L101:
 1360              		.align	2
 1361              	.L100:
 1362 0068 00000000 		.word	pvPortMalloc
 1363 006c 00000000 		.word	prvInitialiseNewTask
 1364 0070 00000000 		.word	prvAddNewTaskToReadyList
 1365 0074 00000000 		.word	vPortFree
 1366              		.cfi_endproc
 1367              	.LFE5:
 1369              		.section	.text.vTaskDelete,"ax",%progbits
 1370              		.align	1
 1371              		.global	vTaskDelete
 1372              		.syntax unified
 1373              		.thumb
 1374              		.thumb_func
 1375              		.fpu softvfp
 1377              	vTaskDelete:
 1378              	.LVL102:
 1379              	.LFB8:
 1380              		.loc 1 1107 2 is_stmt 1 view -0
 1381              		.cfi_startproc
 1382              		@ args = 0, pretend = 0, frame = 0
 1383              		@ frame_needed = 0, uses_anonymous_args = 0
 1384              		.loc 1 1107 2 is_stmt 0 view .LVU375
 1385 0000 38B5     		push	{r3, r4, r5, lr}
 1386              	.LCFI15:
 1387              		.cfi_def_cfa_offset 16
 1388              		.cfi_offset 3, -16
 1389              		.cfi_offset 4, -12
 1390              		.cfi_offset 5, -8
 1391              		.cfi_offset 14, -4
ARM GAS  C:\Users\38164\AppData\Local\Temp\ccm74k8u.s 			page 25


 1392 0002 0446     		mov	r4, r0
 1393              		.loc 1 1108 2 is_stmt 1 view .LVU376
 1394              		.loc 1 1110 3 view .LVU377
 1395 0004 244B     		ldr	r3, .L114
 1396 0006 9847     		blx	r3
 1397              	.LVL103:
 1398              		.loc 1 1114 4 view .LVU378
 1399              		.loc 1 1114 12 is_stmt 0 view .LVU379
 1400 0008 24B3     		cbz	r4, .L111
 1401              	.LVL104:
 1402              	.L103:
 1403              		.loc 1 1117 4 is_stmt 1 discriminator 4 view .LVU380
 1404              		.loc 1 1117 8 is_stmt 0 discriminator 4 view .LVU381
 1405 000a 251D     		adds	r5, r4, #4
 1406 000c 2846     		mov	r0, r5
 1407 000e 234B     		ldr	r3, .L114+4
 1408 0010 9847     		blx	r3
 1409              	.LVL105:
 1410              		.loc 1 1123 29 is_stmt 1 discriminator 4 view .LVU382
 1411              		.loc 1 1127 4 discriminator 4 view .LVU383
 1412              		.loc 1 1127 8 is_stmt 0 discriminator 4 view .LVU384
 1413 0012 A36A     		ldr	r3, [r4, #40]
 1414              		.loc 1 1127 6 discriminator 4 view .LVU385
 1415 0014 1BB1     		cbz	r3, .L104
 1416              		.loc 1 1129 5 is_stmt 1 view .LVU386
 1417              		.loc 1 1129 14 is_stmt 0 view .LVU387
 1418 0016 04F11800 		add	r0, r4, #24
 1419 001a 204B     		ldr	r3, .L114+4
 1420 001c 9847     		blx	r3
 1421              	.LVL106:
 1422              	.L104:
 1423              		.loc 1 1133 29 is_stmt 1 view .LVU388
 1424              		.loc 1 1140 4 view .LVU389
 1425              		.loc 1 1140 16 is_stmt 0 view .LVU390
 1426 001e 204A     		ldr	r2, .L114+8
 1427 0020 1368     		ldr	r3, [r2]
 1428 0022 0133     		adds	r3, r3, #1
 1429 0024 1360     		str	r3, [r2]
 1430              		.loc 1 1142 4 is_stmt 1 view .LVU391
 1431              		.loc 1 1142 14 is_stmt 0 view .LVU392
 1432 0026 1F4B     		ldr	r3, .L114+12
 1433 0028 1B68     		ldr	r3, [r3]
 1434              		.loc 1 1142 6 view .LVU393
 1435 002a A342     		cmp	r3, r4
 1436 002c 15D0     		beq	.L112
 1437              		.loc 1 1165 5 is_stmt 1 view .LVU394
 1438 002e 1E4A     		ldr	r2, .L114+16
 1439 0030 1368     		ldr	r3, [r2]
 1440 0032 013B     		subs	r3, r3, #1
 1441 0034 1360     		str	r3, [r2]
 1442              		.loc 1 1166 5 view .LVU395
 1443 0036 2046     		mov	r0, r4
 1444 0038 1C4B     		ldr	r3, .L114+20
 1445 003a 9847     		blx	r3
 1446              	.LVL107:
 1447              		.loc 1 1170 5 view .LVU396
 1448 003c 1C4B     		ldr	r3, .L114+24
ARM GAS  C:\Users\38164\AppData\Local\Temp\ccm74k8u.s 			page 26


 1449 003e 9847     		blx	r3
 1450              	.LVL108:
 1451              	.L106:
 1452              		.loc 1 1173 29 view .LVU397
 1453              		.loc 1 1175 3 view .LVU398
 1454 0040 1C4B     		ldr	r3, .L114+28
 1455 0042 9847     		blx	r3
 1456              	.LVL109:
 1457              		.loc 1 1179 3 view .LVU399
 1458              		.loc 1 1179 25 is_stmt 0 view .LVU400
 1459 0044 1C4B     		ldr	r3, .L114+32
 1460 0046 1B68     		ldr	r3, [r3]
 1461              		.loc 1 1179 5 view .LVU401
 1462 0048 1BB1     		cbz	r3, .L102
 1463              		.loc 1 1181 4 is_stmt 1 view .LVU402
 1464              		.loc 1 1181 14 is_stmt 0 view .LVU403
 1465 004a 164B     		ldr	r3, .L114+12
 1466 004c 1B68     		ldr	r3, [r3]
 1467              		.loc 1 1181 6 view .LVU404
 1468 004e A342     		cmp	r3, r4
 1469 0050 0CD0     		beq	.L113
 1470              	.L102:
 1471              		.loc 1 1191 2 view .LVU405
 1472 0052 38BD     		pop	{r3, r4, r5, pc}
 1473              	.LVL110:
 1474              	.L111:
 1475              		.loc 1 1114 12 discriminator 1 view .LVU406
 1476 0054 134B     		ldr	r3, .L114+12
 1477 0056 1C68     		ldr	r4, [r3]
 1478              	.LVL111:
 1479              		.loc 1 1114 12 discriminator 1 view .LVU407
 1480 0058 D7E7     		b	.L103
 1481              	.LVL112:
 1482              	.L112:
 1483              		.loc 1 1149 5 is_stmt 1 view .LVU408
 1484 005a 2946     		mov	r1, r5
 1485 005c 1748     		ldr	r0, .L114+36
 1486 005e 184B     		ldr	r3, .L114+40
 1487 0060 9847     		blx	r3
 1488              	.LVL113:
 1489              		.loc 1 1154 5 view .LVU409
 1490 0062 184A     		ldr	r2, .L114+44
 1491 0064 1368     		ldr	r3, [r2]
 1492 0066 0133     		adds	r3, r3, #1
 1493 0068 1360     		str	r3, [r2]
 1494              		.loc 1 1161 54 view .LVU410
 1495 006a E9E7     		b	.L106
 1496              	.L113:
 1497              		.loc 1 1183 5 view .LVU411
 1498 006c 164B     		ldr	r3, .L114+48
 1499 006e 1B68     		ldr	r3, [r3]
 1500 0070 43B1     		cbz	r3, .L108
 1501              		.loc 1 1183 5 view .LVU412
 1502              	.LBB129:
 1503              	.LBI129:
 1504              		.loc 2 191 30 view .LVU413
 1505              	.LBB130:
ARM GAS  C:\Users\38164\AppData\Local\Temp\ccm74k8u.s 			page 27


 1506              		.loc 2 193 1 view .LVU414
 1507              		.loc 2 195 2 view .LVU415
 1508              		.syntax unified
 1509              	@ 195 "Middlewares/Third_Party/FreeRTOS/Source/portable/GCC/ARM_CM3/portmacro.h" 1
 1510 0072 4FF05003 			mov r3, #80												
 1511 0076 83F31188 		msr basepri, r3											
 1512 007a BFF36F8F 		isb														
 1513 007e BFF34F8F 		dsb														
 1514              	
 1515              	@ 0 "" 2
 1516              	.LVL114:
 1517              		.thumb
 1518              		.syntax unified
 1519              	.L109:
 1520              		.loc 2 195 2 is_stmt 0 view .LVU416
 1521              	.LBE130:
 1522              	.LBE129:
 1523              		.loc 1 1183 5 is_stmt 1 discriminator 1 view .LVU417
 1524              		.loc 1 1183 5 discriminator 1 view .LVU418
 1525              		.loc 1 1183 5 discriminator 1 view .LVU419
 1526 0082 FEE7     		b	.L109
 1527              	.L108:
 1528              		.loc 1 1183 46 discriminator 2 view .LVU420
 1529              		.loc 1 1184 5 discriminator 2 view .LVU421
 1530 0084 114B     		ldr	r3, .L114+52
 1531 0086 4FF08052 		mov	r2, #268435456
 1532 008a 1A60     		str	r2, [r3]
 1533              		.loc 1 1184 5 discriminator 2 view .LVU422
 1534              		.syntax unified
 1535              	@ 1184 "Middlewares/Third_Party/FreeRTOS/Source/tasks.c" 1
 1536 008c BFF34F8F 		dsb
 1537              	@ 0 "" 2
 1538              		.loc 1 1184 5 discriminator 2 view .LVU423
 1539              	@ 1184 "Middlewares/Third_Party/FreeRTOS/Source/tasks.c" 1
 1540 0090 BFF36F8F 		isb
 1541              	@ 0 "" 2
 1542              		.loc 1 1184 27 discriminator 2 view .LVU424
 1543              		.loc 1 1188 29 discriminator 2 view .LVU425
 1544              		.loc 1 1191 2 is_stmt 0 discriminator 2 view .LVU426
 1545              		.thumb
 1546              		.syntax unified
 1547 0094 DDE7     		b	.L102
 1548              	.L115:
 1549 0096 00BF     		.align	2
 1550              	.L114:
 1551 0098 00000000 		.word	vPortEnterCritical
 1552 009c 00000000 		.word	uxListRemove
 1553 00a0 00000000 		.word	.LANCHOR12
 1554 00a4 00000000 		.word	.LANCHOR10
 1555 00a8 00000000 		.word	.LANCHOR9
 1556 00ac 00000000 		.word	prvDeleteTCB
 1557 00b0 00000000 		.word	prvResetNextTaskUnblockTime
 1558 00b4 00000000 		.word	vPortExitCritical
 1559 00b8 00000000 		.word	.LANCHOR11
 1560 00bc 00000000 		.word	.LANCHOR7
 1561 00c0 00000000 		.word	vListInsertEnd
 1562 00c4 00000000 		.word	.LANCHOR14
ARM GAS  C:\Users\38164\AppData\Local\Temp\ccm74k8u.s 			page 28


 1563 00c8 00000000 		.word	.LANCHOR16
 1564 00cc 04ED00E0 		.word	-536810236
 1565              		.cfi_endproc
 1566              	.LFE8:
 1568              		.section	.text.eTaskGetState,"ax",%progbits
 1569              		.align	1
 1570              		.global	eTaskGetState
 1571              		.syntax unified
 1572              		.thumb
 1573              		.thumb_func
 1574              		.fpu softvfp
 1576              	eTaskGetState:
 1577              	.LVL115:
 1578              	.LFB11:
 1579              		.loc 1 1328 2 is_stmt 1 view -0
 1580              		.cfi_startproc
 1581              		@ args = 0, pretend = 0, frame = 0
 1582              		@ frame_needed = 0, uses_anonymous_args = 0
 1583              		.loc 1 1328 2 is_stmt 0 view .LVU428
 1584 0000 38B5     		push	{r3, r4, r5, lr}
 1585              	.LCFI16:
 1586              		.cfi_def_cfa_offset 16
 1587              		.cfi_offset 3, -16
 1588              		.cfi_offset 4, -12
 1589              		.cfi_offset 5, -8
 1590              		.cfi_offset 14, -4
 1591              		.loc 1 1329 2 is_stmt 1 view .LVU429
 1592              		.loc 1 1330 2 view .LVU430
 1593              		.loc 1 1331 2 view .LVU431
 1594              	.LVL116:
 1595              		.loc 1 1333 3 view .LVU432
 1596 0002 D0B1     		cbz	r0, .L128
 1597 0004 0546     		mov	r5, r0
 1598              		.loc 1 1333 24 discriminator 2 view .LVU433
 1599              		.loc 1 1335 3 discriminator 2 view .LVU434
 1600              		.loc 1 1335 13 is_stmt 0 discriminator 2 view .LVU435
 1601 0006 194B     		ldr	r3, .L132
 1602 0008 1B68     		ldr	r3, [r3]
 1603              		.loc 1 1335 5 discriminator 2 view .LVU436
 1604 000a 8342     		cmp	r3, r0
 1605 000c 26D0     		beq	.L121
 1606              		.loc 1 1342 4 is_stmt 1 view .LVU437
 1607 000e 184B     		ldr	r3, .L132+4
 1608 0010 9847     		blx	r3
 1609              	.LVL117:
 1610              		.loc 1 1344 5 view .LVU438
 1611              		.loc 1 1344 17 is_stmt 0 view .LVU439
 1612 0012 6C69     		ldr	r4, [r5, #20]
 1613              	.LVL118:
 1614              		.loc 1 1346 4 is_stmt 1 view .LVU440
 1615 0014 174B     		ldr	r3, .L132+8
 1616 0016 9847     		blx	r3
 1617              	.LVL119:
 1618              		.loc 1 1348 4 view .LVU441
 1619              		.loc 1 1348 22 is_stmt 0 view .LVU442
 1620 0018 174B     		ldr	r3, .L132+12
 1621 001a 1B68     		ldr	r3, [r3]
ARM GAS  C:\Users\38164\AppData\Local\Temp\ccm74k8u.s 			page 29


 1622              		.loc 1 1348 6 view .LVU443
 1623 001c A342     		cmp	r3, r4
 1624 001e 1FD0     		beq	.L122
 1625              		.loc 1 1348 62 discriminator 1 view .LVU444
 1626 0020 164B     		ldr	r3, .L132+16
 1627 0022 1B68     		ldr	r3, [r3]
 1628              		.loc 1 1348 45 discriminator 1 view .LVU445
 1629 0024 A342     		cmp	r3, r4
 1630 0026 1DD0     		beq	.L123
 1631              		.loc 1 1356 10 is_stmt 1 view .LVU446
 1632              		.loc 1 1356 12 is_stmt 0 view .LVU447
 1633 0028 154B     		ldr	r3, .L132+20
 1634 002a 9C42     		cmp	r4, r3
 1635 002c 0ED0     		beq	.L129
 1636              		.loc 1 1373 10 is_stmt 1 view .LVU448
 1637              		.loc 1 1373 12 is_stmt 0 view .LVU449
 1638 002e 154B     		ldr	r3, .L132+24
 1639 0030 9C42     		cmp	r4, r3
 1640 0032 19D0     		beq	.L125
 1641              		.loc 1 1373 59 discriminator 1 view .LVU450
 1642 0034 84B1     		cbz	r4, .L130
 1643              		.loc 1 1386 13 view .LVU451
 1644 0036 0120     		movs	r0, #1
 1645 0038 11E0     		b	.L119
 1646              	.LVL120:
 1647              	.L128:
 1648              		.loc 1 1333 3 is_stmt 1 view .LVU452
 1649              	.LBB131:
 1650              	.LBI131:
 1651              		.loc 2 191 30 view .LVU453
 1652              	.LBB132:
 1653              		.loc 2 193 1 view .LVU454
 1654              		.loc 2 195 2 view .LVU455
 1655              		.syntax unified
 1656              	@ 195 "Middlewares/Third_Party/FreeRTOS/Source/portable/GCC/ARM_CM3/portmacro.h" 1
 1657 003a 4FF05003 			mov r3, #80												
 1658 003e 83F31188 		msr basepri, r3											
 1659 0042 BFF36F8F 		isb														
 1660 0046 BFF34F8F 		dsb														
 1661              	
 1662              	@ 0 "" 2
 1663              	.LVL121:
 1664              		.thumb
 1665              		.syntax unified
 1666              	.L118:
 1667              		.loc 2 195 2 is_stmt 0 view .LVU456
 1668              	.LBE132:
 1669              	.LBE131:
 1670              		.loc 1 1333 3 is_stmt 1 discriminator 1 view .LVU457
 1671              		.loc 1 1333 3 discriminator 1 view .LVU458
 1672              		.loc 1 1333 3 discriminator 1 view .LVU459
 1673 004a FEE7     		b	.L118
 1674              	.LVL122:
 1675              	.L129:
 1676              		.loc 1 1361 6 view .LVU460
 1677              		.loc 1 1361 10 is_stmt 0 view .LVU461
 1678 004c AB6A     		ldr	r3, [r5, #40]
ARM GAS  C:\Users\38164\AppData\Local\Temp\ccm74k8u.s 			page 30


 1679              		.loc 1 1361 8 view .LVU462
 1680 004e 0BB1     		cbz	r3, .L131
 1681              		.loc 1 1367 15 view .LVU463
 1682 0050 0220     		movs	r0, #2
 1683 0052 04E0     		b	.L119
 1684              	.L131:
 1685              		.loc 1 1363 15 view .LVU464
 1686 0054 0320     		movs	r0, #3
 1687 0056 02E0     		b	.L119
 1688              	.L130:
 1689              		.loc 1 1378 14 view .LVU465
 1690 0058 0420     		movs	r0, #4
 1691 005a 00E0     		b	.L119
 1692              	.LVL123:
 1693              	.L121:
 1694              		.loc 1 1338 12 view .LVU466
 1695 005c 0020     		movs	r0, #0
 1696              	.LVL124:
 1697              	.L119:
 1698              		.loc 1 1390 3 is_stmt 1 view .LVU467
 1699              		.loc 1 1391 2 is_stmt 0 view .LVU468
 1700 005e 38BD     		pop	{r3, r4, r5, pc}
 1701              	.LVL125:
 1702              	.L122:
 1703              		.loc 1 1352 13 view .LVU469
 1704 0060 0220     		movs	r0, #2
 1705 0062 FCE7     		b	.L119
 1706              	.L123:
 1707 0064 0220     		movs	r0, #2
 1708 0066 FAE7     		b	.L119
 1709              	.L125:
 1710              		.loc 1 1378 14 view .LVU470
 1711 0068 0420     		movs	r0, #4
 1712 006a F8E7     		b	.L119
 1713              	.L133:
 1714              		.align	2
 1715              	.L132:
 1716 006c 00000000 		.word	.LANCHOR10
 1717 0070 00000000 		.word	vPortEnterCritical
 1718 0074 00000000 		.word	vPortExitCritical
 1719 0078 00000000 		.word	.LANCHOR2
 1720 007c 00000000 		.word	.LANCHOR8
 1721 0080 00000000 		.word	.LANCHOR0
 1722 0084 00000000 		.word	.LANCHOR7
 1723              		.cfi_endproc
 1724              	.LFE11:
 1726              		.section	.text.uxTaskPriorityGet,"ax",%progbits
 1727              		.align	1
 1728              		.global	uxTaskPriorityGet
 1729              		.syntax unified
 1730              		.thumb
 1731              		.thumb_func
 1732              		.fpu softvfp
 1734              	uxTaskPriorityGet:
 1735              	.LVL126:
 1736              	.LFB12:
 1737              		.loc 1 1399 2 is_stmt 1 view -0
ARM GAS  C:\Users\38164\AppData\Local\Temp\ccm74k8u.s 			page 31


 1738              		.cfi_startproc
 1739              		@ args = 0, pretend = 0, frame = 0
 1740              		@ frame_needed = 0, uses_anonymous_args = 0
 1741              		.loc 1 1399 2 is_stmt 0 view .LVU472
 1742 0000 10B5     		push	{r4, lr}
 1743              	.LCFI17:
 1744              		.cfi_def_cfa_offset 8
 1745              		.cfi_offset 4, -8
 1746              		.cfi_offset 14, -4
 1747 0002 0446     		mov	r4, r0
 1748              		.loc 1 1400 2 is_stmt 1 view .LVU473
 1749              		.loc 1 1401 2 view .LVU474
 1750              		.loc 1 1403 3 view .LVU475
 1751 0004 054B     		ldr	r3, .L138
 1752 0006 9847     		blx	r3
 1753              	.LVL127:
 1754              		.loc 1 1407 4 view .LVU476
 1755              		.loc 1 1407 12 is_stmt 0 view .LVU477
 1756 0008 24B1     		cbz	r4, .L137
 1757              	.LVL128:
 1758              	.L135:
 1759              		.loc 1 1408 4 is_stmt 1 discriminator 4 view .LVU478
 1760              		.loc 1 1408 13 is_stmt 0 discriminator 4 view .LVU479
 1761 000a E46A     		ldr	r4, [r4, #44]
 1762              	.LVL129:
 1763              		.loc 1 1410 3 is_stmt 1 discriminator 4 view .LVU480
 1764 000c 044B     		ldr	r3, .L138+4
 1765 000e 9847     		blx	r3
 1766              	.LVL130:
 1767              		.loc 1 1412 3 discriminator 4 view .LVU481
 1768              		.loc 1 1413 2 is_stmt 0 discriminator 4 view .LVU482
 1769 0010 2046     		mov	r0, r4
 1770 0012 10BD     		pop	{r4, pc}
 1771              	.LVL131:
 1772              	.L137:
 1773              		.loc 1 1407 12 discriminator 1 view .LVU483
 1774 0014 034B     		ldr	r3, .L138+8
 1775 0016 1C68     		ldr	r4, [r3]
 1776              	.LVL132:
 1777              		.loc 1 1407 12 discriminator 1 view .LVU484
 1778 0018 F7E7     		b	.L135
 1779              	.L139:
 1780 001a 00BF     		.align	2
 1781              	.L138:
 1782 001c 00000000 		.word	vPortEnterCritical
 1783 0020 00000000 		.word	vPortExitCritical
 1784 0024 00000000 		.word	.LANCHOR10
 1785              		.cfi_endproc
 1786              	.LFE12:
 1788              		.section	.text.uxTaskPriorityGetFromISR,"ax",%progbits
 1789              		.align	1
 1790              		.global	uxTaskPriorityGetFromISR
 1791              		.syntax unified
 1792              		.thumb
 1793              		.thumb_func
 1794              		.fpu softvfp
 1796              	uxTaskPriorityGetFromISR:
ARM GAS  C:\Users\38164\AppData\Local\Temp\ccm74k8u.s 			page 32


 1797              	.LVL133:
 1798              	.LFB13:
 1799              		.loc 1 1421 2 is_stmt 1 view -0
 1800              		.cfi_startproc
 1801              		@ args = 0, pretend = 0, frame = 0
 1802              		@ frame_needed = 0, uses_anonymous_args = 0
 1803              		.loc 1 1421 2 is_stmt 0 view .LVU486
 1804 0000 10B5     		push	{r4, lr}
 1805              	.LCFI18:
 1806              		.cfi_def_cfa_offset 8
 1807              		.cfi_offset 4, -8
 1808              		.cfi_offset 14, -4
 1809 0002 0446     		mov	r4, r0
 1810              		.loc 1 1422 2 is_stmt 1 view .LVU487
 1811              		.loc 1 1423 2 view .LVU488
 1812              		.loc 1 1441 3 view .LVU489
 1813 0004 094B     		ldr	r3, .L144
 1814 0006 9847     		blx	r3
 1815              	.LVL134:
 1816              		.loc 1 1443 3 view .LVU490
 1817              	.LBB133:
 1818              	.LBI133:
 1819              		.loc 2 207 34 view .LVU491
 1820              	.LBB134:
 1821              		.loc 2 209 1 view .LVU492
 1822              		.loc 2 211 2 view .LVU493
 1823              		.syntax unified
 1824              	@ 211 "Middlewares/Third_Party/FreeRTOS/Source/portable/GCC/ARM_CM3/portmacro.h" 1
 1825 0008 EFF31183 			mrs r3, basepri											
 1826 000c 4FF05002 		mov r2, #80												
 1827 0010 82F31188 		msr basepri, r2											
 1828 0014 BFF36F8F 		isb														
 1829 0018 BFF34F8F 		dsb														
 1830              	
 1831              	@ 0 "" 2
 1832              	.LVL135:
 1833              		.loc 2 223 2 view .LVU494
 1834              		.loc 2 223 2 is_stmt 0 view .LVU495
 1835              		.thumb
 1836              		.syntax unified
 1837              	.LBE134:
 1838              	.LBE133:
 1839              		.loc 1 1447 4 is_stmt 1 view .LVU496
 1840              		.loc 1 1447 12 is_stmt 0 view .LVU497
 1841 001c 1CB1     		cbz	r4, .L143
 1842              	.LVL136:
 1843              	.L141:
 1844              		.loc 1 1448 4 is_stmt 1 discriminator 4 view .LVU498
 1845              		.loc 1 1448 13 is_stmt 0 discriminator 4 view .LVU499
 1846 001e E06A     		ldr	r0, [r4, #44]
 1847              	.LVL137:
 1848              		.loc 1 1450 3 is_stmt 1 discriminator 4 view .LVU500
 1849              	.LBB135:
 1850              	.LBI135:
 1851              		.loc 2 227 30 discriminator 4 view .LVU501
 1852              	.LBB136:
 1853              		.loc 2 229 2 discriminator 4 view .LVU502
ARM GAS  C:\Users\38164\AppData\Local\Temp\ccm74k8u.s 			page 33


 1854              		.syntax unified
 1855              	@ 229 "Middlewares/Third_Party/FreeRTOS/Source/portable/GCC/ARM_CM3/portmacro.h" 1
 1856 0020 83F31188 			msr basepri, r3	
 1857              	@ 0 "" 2
 1858              	.LVL138:
 1859              		.loc 2 229 2 is_stmt 0 discriminator 4 view .LVU503
 1860              		.thumb
 1861              		.syntax unified
 1862              	.LBE136:
 1863              	.LBE135:
 1864              		.loc 1 1452 3 is_stmt 1 discriminator 4 view .LVU504
 1865              		.loc 1 1453 2 is_stmt 0 discriminator 4 view .LVU505
 1866 0024 10BD     		pop	{r4, pc}
 1867              	.LVL139:
 1868              	.L143:
 1869              		.loc 1 1447 12 discriminator 1 view .LVU506
 1870 0026 024A     		ldr	r2, .L144+4
 1871 0028 1468     		ldr	r4, [r2]
 1872              	.LVL140:
 1873              		.loc 1 1447 12 discriminator 1 view .LVU507
 1874 002a F8E7     		b	.L141
 1875              	.L145:
 1876              		.align	2
 1877              	.L144:
 1878 002c 00000000 		.word	vPortValidateInterruptPriority
 1879 0030 00000000 		.word	.LANCHOR10
 1880              		.cfi_endproc
 1881              	.LFE13:
 1883              		.section	.text.vTaskPrioritySet,"ax",%progbits
 1884              		.align	1
 1885              		.global	vTaskPrioritySet
 1886              		.syntax unified
 1887              		.thumb
 1888              		.thumb_func
 1889              		.fpu softvfp
 1891              	vTaskPrioritySet:
 1892              	.LVL141:
 1893              	.LFB14:
 1894              		.loc 1 1461 2 is_stmt 1 view -0
 1895              		.cfi_startproc
 1896              		@ args = 0, pretend = 0, frame = 0
 1897              		@ frame_needed = 0, uses_anonymous_args = 0
 1898              		.loc 1 1462 2 view .LVU509
 1899              		.loc 1 1463 2 view .LVU510
 1900              		.loc 1 1464 2 view .LVU511
 1901              		.loc 1 1466 3 view .LVU512
 1902 0000 3729     		cmp	r1, #55
 1903 0002 08D9     		bls	.L147
 1904              		.loc 1 1466 3 view .LVU513
 1905              	.LBB137:
 1906              	.LBI137:
 1907              		.loc 2 191 30 view .LVU514
 1908              	.LBB138:
 1909              		.loc 2 193 1 view .LVU515
 1910              		.loc 2 195 2 view .LVU516
 1911              		.syntax unified
 1912              	@ 195 "Middlewares/Third_Party/FreeRTOS/Source/portable/GCC/ARM_CM3/portmacro.h" 1
ARM GAS  C:\Users\38164\AppData\Local\Temp\ccm74k8u.s 			page 34


 1913 0004 4FF05003 			mov r3, #80												
 1914 0008 83F31188 		msr basepri, r3											
 1915 000c BFF36F8F 		isb														
 1916 0010 BFF34F8F 		dsb														
 1917              	
 1918              	@ 0 "" 2
 1919              	.LVL142:
 1920              		.thumb
 1921              		.syntax unified
 1922              	.L148:
 1923              		.loc 2 195 2 is_stmt 0 view .LVU517
 1924              	.LBE138:
 1925              	.LBE137:
 1926              		.loc 1 1466 3 is_stmt 1 discriminator 1 view .LVU518
 1927              		.loc 1 1466 3 discriminator 1 view .LVU519
 1928              		.loc 1 1466 3 discriminator 1 view .LVU520
 1929 0014 FEE7     		b	.L148
 1930              	.L147:
 1931              		.loc 1 1461 2 is_stmt 0 view .LVU521
 1932 0016 70B5     		push	{r4, r5, r6, lr}
 1933              	.LCFI19:
 1934              		.cfi_def_cfa_offset 16
 1935              		.cfi_offset 4, -16
 1936              		.cfi_offset 5, -12
 1937              		.cfi_offset 6, -8
 1938              		.cfi_offset 14, -4
 1939 0018 0446     		mov	r4, r0
 1940 001a 0D46     		mov	r5, r1
 1941              		.loc 1 1466 59 is_stmt 1 view .LVU522
 1942              		.loc 1 1469 3 view .LVU523
 1943              	.LVL143:
 1944              		.loc 1 1475 28 view .LVU524
 1945              		.loc 1 1478 3 view .LVU525
 1946 001c 294B     		ldr	r3, .L165
 1947 001e 9847     		blx	r3
 1948              	.LVL144:
 1949              		.loc 1 1482 4 view .LVU526
 1950              		.loc 1 1482 12 is_stmt 0 view .LVU527
 1951 0020 74B1     		cbz	r4, .L162
 1952              	.LVL145:
 1953              	.L149:
 1954              		.loc 1 1484 50 is_stmt 1 discriminator 4 view .LVU528
 1955              		.loc 1 1488 5 discriminator 4 view .LVU529
 1956              		.loc 1 1488 27 is_stmt 0 discriminator 4 view .LVU530
 1957 0022 E26C     		ldr	r2, [r4, #76]
 1958              	.LVL146:
 1959              		.loc 1 1496 4 is_stmt 1 discriminator 4 view .LVU531
 1960              		.loc 1 1496 6 is_stmt 0 discriminator 4 view .LVU532
 1961 0024 9542     		cmp	r5, r2
 1962 0026 2ED0     		beq	.L150
 1963              		.loc 1 1500 5 is_stmt 1 view .LVU533
 1964              		.loc 1 1500 7 is_stmt 0 view .LVU534
 1965 0028 0DD9     		bls	.L151
 1966              		.loc 1 1502 6 is_stmt 1 view .LVU535
 1967              		.loc 1 1502 16 is_stmt 0 view .LVU536
 1968 002a 274B     		ldr	r3, .L165+4
 1969 002c 1B68     		ldr	r3, [r3]
ARM GAS  C:\Users\38164\AppData\Local\Temp\ccm74k8u.s 			page 35


 1970              		.loc 1 1502 8 view .LVU537
 1971 002e A342     		cmp	r3, r4
 1972 0030 2CD0     		beq	.L157
 1973              		.loc 1 1507 7 is_stmt 1 view .LVU538
 1974              		.loc 1 1507 40 is_stmt 0 view .LVU539
 1975 0032 254B     		ldr	r3, .L165+4
 1976 0034 1B68     		ldr	r3, [r3]
 1977 0036 DB6A     		ldr	r3, [r3, #44]
 1978              		.loc 1 1507 9 view .LVU540
 1979 0038 AB42     		cmp	r3, r5
 1980 003a 29D9     		bls	.L158
 1981              		.loc 1 1464 13 view .LVU541
 1982 003c 0026     		movs	r6, #0
 1983 003e 07E0     		b	.L152
 1984              	.LVL147:
 1985              	.L162:
 1986              		.loc 1 1482 12 discriminator 1 view .LVU542
 1987 0040 214B     		ldr	r3, .L165+4
 1988 0042 1C68     		ldr	r4, [r3]
 1989              	.LVL148:
 1990              		.loc 1 1482 12 discriminator 1 view .LVU543
 1991 0044 EDE7     		b	.L149
 1992              	.LVL149:
 1993              	.L151:
 1994              		.loc 1 1523 10 is_stmt 1 view .LVU544
 1995              		.loc 1 1523 20 is_stmt 0 view .LVU545
 1996 0046 204B     		ldr	r3, .L165+4
 1997 0048 1B68     		ldr	r3, [r3]
 1998              		.loc 1 1523 12 view .LVU546
 1999 004a A342     		cmp	r3, r4
 2000 004c 22D0     		beq	.L159
 2001              		.loc 1 1464 13 view .LVU547
 2002 004e 0026     		movs	r6, #0
 2003              	.L152:
 2004              	.LVL150:
 2005              		.loc 1 1535 5 is_stmt 1 view .LVU548
 2006              		.loc 1 1540 5 view .LVU549
 2007              		.loc 1 1540 27 is_stmt 0 view .LVU550
 2008 0050 E36A     		ldr	r3, [r4, #44]
 2009              	.LVL151:
 2010              		.loc 1 1546 6 is_stmt 1 view .LVU551
 2011              		.loc 1 1546 8 is_stmt 0 view .LVU552
 2012 0052 9A42     		cmp	r2, r3
 2013 0054 20D0     		beq	.L163
 2014              	.L153:
 2015              		.loc 1 1552 31 is_stmt 1 view .LVU553
 2016              		.loc 1 1556 6 view .LVU554
 2017              		.loc 1 1556 28 is_stmt 0 view .LVU555
 2018 0056 E564     		str	r5, [r4, #76]
 2019              		.loc 1 1566 5 is_stmt 1 view .LVU556
 2020              		.loc 1 1566 11 is_stmt 0 view .LVU557
 2021 0058 A269     		ldr	r2, [r4, #24]
 2022              	.LVL152:
 2023              		.loc 1 1566 7 view .LVU558
 2024 005a 002A     		cmp	r2, #0
 2025 005c 02DB     		blt	.L154
 2026              		.loc 1 1568 6 is_stmt 1 view .LVU559
ARM GAS  C:\Users\38164\AppData\Local\Temp\ccm74k8u.s 			page 36


 2027 005e C5F13805 		rsb	r5, r5, #56
 2028              	.LVL153:
 2029              		.loc 1 1568 6 is_stmt 0 view .LVU560
 2030 0062 A561     		str	r5, [r4, #24]
 2031              	.L154:
 2032              		.loc 1 1572 30 is_stmt 1 view .LVU561
 2033              		.loc 1 1579 5 view .LVU562
 2034              		.loc 1 1579 9 is_stmt 0 view .LVU563
 2035 0064 6169     		ldr	r1, [r4, #20]
 2036 0066 03EB8303 		add	r3, r3, r3, lsl #2
 2037              	.LVL154:
 2038              		.loc 1 1579 9 view .LVU564
 2039 006a 184A     		ldr	r2, .L165+8
 2040 006c 02EB8303 		add	r3, r2, r3, lsl #2
 2041              		.loc 1 1579 112 view .LVU565
 2042 0070 9942     		cmp	r1, r3
 2043 0072 13D0     		beq	.L164
 2044              	.LVL155:
 2045              	.L155:
 2046              		.loc 1 1599 30 is_stmt 1 view .LVU566
 2047              		.loc 1 1602 5 view .LVU567
 2048              		.loc 1 1602 7 is_stmt 0 view .LVU568
 2049 0074 3EB1     		cbz	r6, .L150
 2050              		.loc 1 1604 6 is_stmt 1 view .LVU569
 2051 0076 164B     		ldr	r3, .L165+12
 2052 0078 4FF08052 		mov	r2, #268435456
 2053 007c 1A60     		str	r2, [r3]
 2054              		.loc 1 1604 6 view .LVU570
 2055              		.syntax unified
 2056              	@ 1604 "Middlewares/Third_Party/FreeRTOS/Source/tasks.c" 1
 2057 007e BFF34F8F 		dsb
 2058              	@ 0 "" 2
 2059              		.loc 1 1604 6 view .LVU571
 2060              	@ 1604 "Middlewares/Third_Party/FreeRTOS/Source/tasks.c" 1
 2061 0082 BFF36F8F 		isb
 2062              	@ 0 "" 2
 2063              		.loc 1 1604 37 view .LVU572
 2064              	.LVL156:
 2065              		.thumb
 2066              		.syntax unified
 2067              	.L150:
 2068              		.loc 1 1608 30 view .LVU573
 2069              		.loc 1 1613 5 view .LVU574
 2070              		.loc 1 1616 3 view .LVU575
 2071 0086 134B     		ldr	r3, .L165+16
 2072 0088 9847     		blx	r3
 2073              	.LVL157:
 2074              		.loc 1 1617 2 is_stmt 0 view .LVU576
 2075 008a 70BD     		pop	{r4, r5, r6, pc}
 2076              	.LVL158:
 2077              	.L157:
 2078              		.loc 1 1464 13 view .LVU577
 2079 008c 0026     		movs	r6, #0
 2080 008e DFE7     		b	.L152
 2081              	.L158:
 2082              		.loc 1 1509 23 view .LVU578
 2083 0090 0126     		movs	r6, #1
ARM GAS  C:\Users\38164\AppData\Local\Temp\ccm74k8u.s 			page 37


 2084 0092 DDE7     		b	.L152
 2085              	.L159:
 2086              		.loc 1 1528 21 view .LVU579
 2087 0094 0126     		movs	r6, #1
 2088 0096 DBE7     		b	.L152
 2089              	.LVL159:
 2090              	.L163:
 2091              		.loc 1 1548 7 is_stmt 1 view .LVU580
 2092              		.loc 1 1548 25 is_stmt 0 view .LVU581
 2093 0098 E562     		str	r5, [r4, #44]
 2094 009a DCE7     		b	.L153
 2095              	.LVL160:
 2096              	.L164:
 2097              		.loc 1 1584 6 is_stmt 1 view .LVU582
 2098              		.loc 1 1584 10 is_stmt 0 view .LVU583
 2099 009c 251D     		adds	r5, r4, #4
 2100 009e 2846     		mov	r0, r5
 2101 00a0 0D4B     		ldr	r3, .L165+20
 2102 00a2 9847     		blx	r3
 2103              	.LVL161:
 2104              		.loc 1 1593 31 is_stmt 1 view .LVU584
 2105              		.loc 1 1595 6 view .LVU585
 2106              		.loc 1 1595 6 view .LVU586
 2107 00a4 E06A     		ldr	r0, [r4, #44]
 2108 00a6 0D4B     		ldr	r3, .L165+24
 2109 00a8 1B68     		ldr	r3, [r3]
 2110 00aa 9842     		cmp	r0, r3
 2111 00ac 01D9     		bls	.L156
 2112              		.loc 1 1595 6 discriminator 1 view .LVU587
 2113 00ae 0B4B     		ldr	r3, .L165+24
 2114 00b0 1860     		str	r0, [r3]
 2115              	.L156:
 2116              		.loc 1 1595 6 discriminator 3 view .LVU588
 2117              		.loc 1 1595 6 discriminator 3 view .LVU589
 2118 00b2 00EB8000 		add	r0, r0, r0, lsl #2
 2119 00b6 2946     		mov	r1, r5
 2120 00b8 044B     		ldr	r3, .L165+8
 2121 00ba 03EB8000 		add	r0, r3, r0, lsl #2
 2122 00be 084B     		ldr	r3, .L165+28
 2123 00c0 9847     		blx	r3
 2124              	.LVL162:
 2125              		.loc 1 1595 36 discriminator 3 view .LVU590
 2126 00c2 D7E7     		b	.L155
 2127              	.L166:
 2128              		.align	2
 2129              	.L165:
 2130 00c4 00000000 		.word	vPortEnterCritical
 2131 00c8 00000000 		.word	.LANCHOR10
 2132 00cc 00000000 		.word	.LANCHOR4
 2133 00d0 04ED00E0 		.word	-536810236
 2134 00d4 00000000 		.word	vPortExitCritical
 2135 00d8 00000000 		.word	uxListRemove
 2136 00dc 00000000 		.word	.LANCHOR13
 2137 00e0 00000000 		.word	vListInsertEnd
 2138              		.cfi_endproc
 2139              	.LFE14:
 2141              		.section	.text.vTaskResume,"ax",%progbits
ARM GAS  C:\Users\38164\AppData\Local\Temp\ccm74k8u.s 			page 38


 2142              		.align	1
 2143              		.global	vTaskResume
 2144              		.syntax unified
 2145              		.thumb
 2146              		.thumb_func
 2147              		.fpu softvfp
 2149              	vTaskResume:
 2150              	.LVL163:
 2151              	.LFB17:
 2152              		.loc 1 1772 2 view -0
 2153              		.cfi_startproc
 2154              		@ args = 0, pretend = 0, frame = 0
 2155              		@ frame_needed = 0, uses_anonymous_args = 0
 2156              		.loc 1 1772 2 is_stmt 0 view .LVU592
 2157 0000 38B5     		push	{r3, r4, r5, lr}
 2158              	.LCFI20:
 2159              		.cfi_def_cfa_offset 16
 2160              		.cfi_offset 3, -16
 2161              		.cfi_offset 4, -12
 2162              		.cfi_offset 5, -8
 2163              		.cfi_offset 14, -4
 2164              		.loc 1 1773 2 is_stmt 1 view .LVU593
 2165              	.LVL164:
 2166              		.loc 1 1776 3 view .LVU594
 2167 0002 68B1     		cbz	r0, .L174
 2168 0004 0446     		mov	r4, r0
 2169              		.loc 1 1776 32 discriminator 1 view .LVU595
 2170              		.loc 1 1780 3 discriminator 1 view .LVU596
 2171              		.loc 1 1780 36 is_stmt 0 discriminator 1 view .LVU597
 2172 0006 1C4B     		ldr	r3, .L176
 2173 0008 1B68     		ldr	r3, [r3]
 2174              		.loc 1 1780 25 discriminator 1 view .LVU598
 2175 000a 8342     		cmp	r3, r0
 2176 000c 07D0     		beq	.L167
 2177              		.loc 1 1782 4 is_stmt 1 view .LVU599
 2178 000e 1B4B     		ldr	r3, .L176+4
 2179 0010 9847     		blx	r3
 2180              	.LVL165:
 2181              		.loc 1 1784 5 view .LVU600
 2182              		.loc 1 1784 9 is_stmt 0 view .LVU601
 2183 0012 2046     		mov	r0, r4
 2184 0014 1A4B     		ldr	r3, .L176+8
 2185 0016 9847     		blx	r3
 2186              	.LVL166:
 2187              		.loc 1 1784 7 view .LVU602
 2188 0018 58B9     		cbnz	r0, .L175
 2189              	.L171:
 2190              		.loc 1 1808 30 is_stmt 1 view .LVU603
 2191              		.loc 1 1811 4 view .LVU604
 2192 001a 1A4B     		ldr	r3, .L176+12
 2193 001c 9847     		blx	r3
 2194              	.LVL167:
 2195              		.loc 1 1815 28 view .LVU605
 2196              	.L167:
 2197              		.loc 1 1817 2 is_stmt 0 view .LVU606
 2198 001e 38BD     		pop	{r3, r4, r5, pc}
 2199              	.LVL168:
ARM GAS  C:\Users\38164\AppData\Local\Temp\ccm74k8u.s 			page 39


 2200              	.L174:
 2201              		.loc 1 1776 3 is_stmt 1 view .LVU607
 2202              	.LBB139:
 2203              	.LBI139:
 2204              		.loc 2 191 30 view .LVU608
 2205              	.LBB140:
 2206              		.loc 2 193 1 view .LVU609
 2207              		.loc 2 195 2 view .LVU610
 2208              		.syntax unified
 2209              	@ 195 "Middlewares/Third_Party/FreeRTOS/Source/portable/GCC/ARM_CM3/portmacro.h" 1
 2210 0020 4FF05003 			mov r3, #80												
 2211 0024 83F31188 		msr basepri, r3											
 2212 0028 BFF36F8F 		isb														
 2213 002c BFF34F8F 		dsb														
 2214              	
 2215              	@ 0 "" 2
 2216              	.LVL169:
 2217              		.thumb
 2218              		.syntax unified
 2219              	.L169:
 2220              		.loc 2 195 2 is_stmt 0 view .LVU611
 2221              	.LBE140:
 2222              	.LBE139:
 2223              		.loc 1 1776 3 is_stmt 1 discriminator 1 view .LVU612
 2224              		.loc 1 1776 3 discriminator 1 view .LVU613
 2225              		.loc 1 1776 3 discriminator 1 view .LVU614
 2226 0030 FEE7     		b	.L169
 2227              	.LVL170:
 2228              	.L175:
 2229              		.loc 1 1786 31 view .LVU615
 2230              		.loc 1 1790 6 view .LVU616
 2231              		.loc 1 1790 15 is_stmt 0 view .LVU617
 2232 0032 251D     		adds	r5, r4, #4
 2233 0034 2846     		mov	r0, r5
 2234 0036 144B     		ldr	r3, .L176+16
 2235 0038 9847     		blx	r3
 2236              	.LVL171:
 2237              		.loc 1 1791 6 is_stmt 1 view .LVU618
 2238              		.loc 1 1791 6 view .LVU619
 2239 003a E06A     		ldr	r0, [r4, #44]
 2240 003c 134B     		ldr	r3, .L176+20
 2241 003e 1B68     		ldr	r3, [r3]
 2242 0040 9842     		cmp	r0, r3
 2243 0042 01D9     		bls	.L172
 2244              		.loc 1 1791 6 discriminator 1 view .LVU620
 2245 0044 114B     		ldr	r3, .L176+20
 2246 0046 1860     		str	r0, [r3]
 2247              	.L172:
 2248              		.loc 1 1791 6 discriminator 3 view .LVU621
 2249              		.loc 1 1791 6 discriminator 3 view .LVU622
 2250 0048 00EB8000 		add	r0, r0, r0, lsl #2
 2251 004c 2946     		mov	r1, r5
 2252 004e 104B     		ldr	r3, .L176+24
 2253 0050 03EB8000 		add	r0, r3, r0, lsl #2
 2254 0054 0F4B     		ldr	r3, .L176+28
 2255 0056 9847     		blx	r3
 2256              	.LVL172:
ARM GAS  C:\Users\38164\AppData\Local\Temp\ccm74k8u.s 			page 40


 2257              		.loc 1 1791 36 discriminator 3 view .LVU623
 2258              		.loc 1 1794 6 discriminator 3 view .LVU624
 2259              		.loc 1 1794 15 is_stmt 0 discriminator 3 view .LVU625
 2260 0058 E26A     		ldr	r2, [r4, #44]
 2261              		.loc 1 1794 43 discriminator 3 view .LVU626
 2262 005a 074B     		ldr	r3, .L176
 2263 005c 1B68     		ldr	r3, [r3]
 2264 005e DB6A     		ldr	r3, [r3, #44]
 2265              		.loc 1 1794 8 discriminator 3 view .LVU627
 2266 0060 9A42     		cmp	r2, r3
 2267 0062 DAD3     		bcc	.L171
 2268              		.loc 1 1799 7 is_stmt 1 view .LVU628
 2269 0064 0C4B     		ldr	r3, .L176+32
 2270 0066 4FF08052 		mov	r2, #268435456
 2271 006a 1A60     		str	r2, [r3]
 2272              		.loc 1 1799 7 view .LVU629
 2273              		.syntax unified
 2274              	@ 1799 "Middlewares/Third_Party/FreeRTOS/Source/tasks.c" 1
 2275 006c BFF34F8F 		dsb
 2276              	@ 0 "" 2
 2277              		.loc 1 1799 7 view .LVU630
 2278              	@ 1799 "Middlewares/Third_Party/FreeRTOS/Source/tasks.c" 1
 2279 0070 BFF36F8F 		isb
 2280              	@ 0 "" 2
 2281              		.loc 1 1799 38 view .LVU631
 2282              		.thumb
 2283              		.syntax unified
 2284 0074 D1E7     		b	.L171
 2285              	.L177:
 2286 0076 00BF     		.align	2
 2287              	.L176:
 2288 0078 00000000 		.word	.LANCHOR10
 2289 007c 00000000 		.word	vPortEnterCritical
 2290 0080 00000000 		.word	prvTaskIsTaskSuspended
 2291 0084 00000000 		.word	vPortExitCritical
 2292 0088 00000000 		.word	uxListRemove
 2293 008c 00000000 		.word	.LANCHOR13
 2294 0090 00000000 		.word	.LANCHOR4
 2295 0094 00000000 		.word	vListInsertEnd
 2296 0098 04ED00E0 		.word	-536810236
 2297              		.cfi_endproc
 2298              	.LFE17:
 2300              		.section	.text.xTaskResumeFromISR,"ax",%progbits
 2301              		.align	1
 2302              		.global	xTaskResumeFromISR
 2303              		.syntax unified
 2304              		.thumb
 2305              		.thumb_func
 2306              		.fpu softvfp
 2308              	xTaskResumeFromISR:
 2309              	.LVL173:
 2310              	.LFB18:
 2311              		.loc 1 1826 2 view -0
 2312              		.cfi_startproc
 2313              		@ args = 0, pretend = 0, frame = 0
 2314              		@ frame_needed = 0, uses_anonymous_args = 0
 2315              		.loc 1 1826 2 is_stmt 0 view .LVU633
ARM GAS  C:\Users\38164\AppData\Local\Temp\ccm74k8u.s 			page 41


 2316 0000 F8B5     		push	{r3, r4, r5, r6, r7, lr}
 2317              	.LCFI21:
 2318              		.cfi_def_cfa_offset 24
 2319              		.cfi_offset 3, -24
 2320              		.cfi_offset 4, -20
 2321              		.cfi_offset 5, -16
 2322              		.cfi_offset 6, -12
 2323              		.cfi_offset 7, -8
 2324              		.cfi_offset 14, -4
 2325              		.loc 1 1827 2 is_stmt 1 view .LVU634
 2326              	.LVL174:
 2327              		.loc 1 1828 2 view .LVU635
 2328              		.loc 1 1829 2 view .LVU636
 2329              		.loc 1 1831 3 view .LVU637
 2330 0002 0028     		cmp	r0, #0
 2331 0004 32D0     		beq	.L187
 2332 0006 0446     		mov	r4, r0
 2333              		.loc 1 1831 32 discriminator 2 view .LVU638
 2334              		.loc 1 1849 3 discriminator 2 view .LVU639
 2335 0008 214B     		ldr	r3, .L188
 2336 000a 9847     		blx	r3
 2337              	.LVL175:
 2338              		.loc 1 1851 3 discriminator 2 view .LVU640
 2339              	.LBB141:
 2340              	.LBI141:
 2341              		.loc 2 207 34 discriminator 2 view .LVU641
 2342              	.LBB142:
 2343              		.loc 2 209 1 discriminator 2 view .LVU642
 2344              		.loc 2 211 2 discriminator 2 view .LVU643
 2345              		.syntax unified
 2346              	@ 211 "Middlewares/Third_Party/FreeRTOS/Source/portable/GCC/ARM_CM3/portmacro.h" 1
 2347 000c EFF31187 			mrs r7, basepri											
 2348 0010 4FF05003 		mov r3, #80												
 2349 0014 83F31188 		msr basepri, r3											
 2350 0018 BFF36F8F 		isb														
 2351 001c BFF34F8F 		dsb														
 2352              	
 2353              	@ 0 "" 2
 2354              	.LVL176:
 2355              		.loc 2 223 2 discriminator 2 view .LVU644
 2356              		.loc 2 223 2 is_stmt 0 discriminator 2 view .LVU645
 2357              		.thumb
 2358              		.syntax unified
 2359              	.LBE142:
 2360              	.LBE141:
 2361              		.loc 1 1853 4 is_stmt 1 discriminator 2 view .LVU646
 2362              		.loc 1 1853 8 is_stmt 0 discriminator 2 view .LVU647
 2363 0020 2046     		mov	r0, r4
 2364 0022 1C4B     		ldr	r3, .L188+4
 2365 0024 9847     		blx	r3
 2366              	.LVL177:
 2367              		.loc 1 1853 6 discriminator 2 view .LVU648
 2368 0026 0546     		mov	r5, r0
 2369 0028 E0B1     		cbz	r0, .L181
 2370              		.loc 1 1855 39 is_stmt 1 view .LVU649
 2371              		.loc 1 1858 5 view .LVU650
 2372              		.loc 1 1858 30 is_stmt 0 view .LVU651
ARM GAS  C:\Users\38164\AppData\Local\Temp\ccm74k8u.s 			page 42


 2373 002a 1B4B     		ldr	r3, .L188+8
 2374 002c 1B68     		ldr	r3, [r3]
 2375              		.loc 1 1858 7 view .LVU652
 2376 002e 43BB     		cbnz	r3, .L182
 2377              		.loc 1 1862 6 is_stmt 1 view .LVU653
 2378              		.loc 1 1862 15 is_stmt 0 view .LVU654
 2379 0030 E26A     		ldr	r2, [r4, #44]
 2380              		.loc 1 1862 43 view .LVU655
 2381 0032 1A4B     		ldr	r3, .L188+12
 2382 0034 1B68     		ldr	r3, [r3]
 2383 0036 DB6A     		ldr	r3, [r3, #44]
 2384              		.loc 1 1862 8 view .LVU656
 2385 0038 9A42     		cmp	r2, r3
 2386 003a 20D2     		bcs	.L185
 2387              		.loc 1 1827 13 view .LVU657
 2388 003c 0025     		movs	r5, #0
 2389              	.L183:
 2390              	.LVL178:
 2391              		.loc 1 1868 31 is_stmt 1 view .LVU658
 2392              		.loc 1 1871 6 view .LVU659
 2393              		.loc 1 1871 15 is_stmt 0 view .LVU660
 2394 003e 261D     		adds	r6, r4, #4
 2395 0040 3046     		mov	r0, r6
 2396 0042 174B     		ldr	r3, .L188+16
 2397 0044 9847     		blx	r3
 2398              	.LVL179:
 2399              		.loc 1 1872 6 is_stmt 1 view .LVU661
 2400              		.loc 1 1872 6 view .LVU662
 2401 0046 E06A     		ldr	r0, [r4, #44]
 2402 0048 164B     		ldr	r3, .L188+20
 2403 004a 1B68     		ldr	r3, [r3]
 2404 004c 9842     		cmp	r0, r3
 2405 004e 01D9     		bls	.L184
 2406              		.loc 1 1872 6 discriminator 1 view .LVU663
 2407 0050 144B     		ldr	r3, .L188+20
 2408 0052 1860     		str	r0, [r3]
 2409              	.L184:
 2410              		.loc 1 1872 6 discriminator 3 view .LVU664
 2411              		.loc 1 1872 6 discriminator 3 view .LVU665
 2412 0054 00EB8000 		add	r0, r0, r0, lsl #2
 2413 0058 3146     		mov	r1, r6
 2414 005a 134B     		ldr	r3, .L188+24
 2415 005c 03EB8000 		add	r0, r3, r0, lsl #2
 2416 0060 124B     		ldr	r3, .L188+28
 2417 0062 9847     		blx	r3
 2418              	.LVL180:
 2419              		.loc 1 1872 36 discriminator 3 view .LVU666
 2420              	.L181:
 2421              		.loc 1 1884 29 view .LVU667
 2422              		.loc 1 1887 3 view .LVU668
 2423              	.LBB143:
 2424              	.LBI143:
 2425              		.loc 2 227 30 view .LVU669
 2426              	.LBB144:
 2427              		.loc 2 229 2 view .LVU670
 2428              		.syntax unified
 2429              	@ 229 "Middlewares/Third_Party/FreeRTOS/Source/portable/GCC/ARM_CM3/portmacro.h" 1
ARM GAS  C:\Users\38164\AppData\Local\Temp\ccm74k8u.s 			page 43


 2430 0064 87F31188 			msr basepri, r7	
 2431              	@ 0 "" 2
 2432              	.LVL181:
 2433              		.loc 2 229 2 is_stmt 0 view .LVU671
 2434              		.thumb
 2435              		.syntax unified
 2436              	.LBE144:
 2437              	.LBE143:
 2438              		.loc 1 1889 3 is_stmt 1 view .LVU672
 2439              		.loc 1 1890 2 is_stmt 0 view .LVU673
 2440 0068 2846     		mov	r0, r5
 2441 006a F8BD     		pop	{r3, r4, r5, r6, r7, pc}
 2442              	.LVL182:
 2443              	.L187:
 2444              		.loc 1 1831 3 is_stmt 1 view .LVU674
 2445              	.LBB145:
 2446              	.LBI145:
 2447              		.loc 2 191 30 view .LVU675
 2448              	.LBB146:
 2449              		.loc 2 193 1 view .LVU676
 2450              		.loc 2 195 2 view .LVU677
 2451              		.syntax unified
 2452              	@ 195 "Middlewares/Third_Party/FreeRTOS/Source/portable/GCC/ARM_CM3/portmacro.h" 1
 2453 006c 4FF05003 			mov r3, #80												
 2454 0070 83F31188 		msr basepri, r3											
 2455 0074 BFF36F8F 		isb														
 2456 0078 BFF34F8F 		dsb														
 2457              	
 2458              	@ 0 "" 2
 2459              	.LVL183:
 2460              		.thumb
 2461              		.syntax unified
 2462              	.L180:
 2463              		.loc 2 195 2 is_stmt 0 view .LVU678
 2464              	.LBE146:
 2465              	.LBE145:
 2466              		.loc 1 1831 3 is_stmt 1 discriminator 1 view .LVU679
 2467              		.loc 1 1831 3 discriminator 1 view .LVU680
 2468              		.loc 1 1831 3 discriminator 1 view .LVU681
 2469 007c FEE7     		b	.L180
 2470              	.LVL184:
 2471              	.L185:
 2472              		.loc 1 1864 22 is_stmt 0 view .LVU682
 2473 007e 0125     		movs	r5, #1
 2474 0080 DDE7     		b	.L183
 2475              	.L182:
 2476              		.loc 1 1879 6 is_stmt 1 view .LVU683
 2477 0082 04F11801 		add	r1, r4, #24
 2478 0086 0A48     		ldr	r0, .L188+32
 2479 0088 084B     		ldr	r3, .L188+28
 2480 008a 9847     		blx	r3
 2481              	.LVL185:
 2482              		.loc 1 1827 13 is_stmt 0 view .LVU684
 2483 008c 0025     		movs	r5, #0
 2484 008e E9E7     		b	.L181
 2485              	.L189:
 2486              		.align	2
ARM GAS  C:\Users\38164\AppData\Local\Temp\ccm74k8u.s 			page 44


 2487              	.L188:
 2488 0090 00000000 		.word	vPortValidateInterruptPriority
 2489 0094 00000000 		.word	prvTaskIsTaskSuspended
 2490 0098 00000000 		.word	.LANCHOR16
 2491 009c 00000000 		.word	.LANCHOR10
 2492 00a0 00000000 		.word	uxListRemove
 2493 00a4 00000000 		.word	.LANCHOR13
 2494 00a8 00000000 		.word	.LANCHOR4
 2495 00ac 00000000 		.word	vListInsertEnd
 2496 00b0 00000000 		.word	.LANCHOR1
 2497              		.cfi_endproc
 2498              	.LFE18:
 2500              		.section	.rodata.vTaskStartScheduler.str1.4,"aMS",%progbits,1
 2501              		.align	2
 2502              	.LC0:
 2503 0000 49444C45 		.ascii	"IDLE\000"
 2503      00
 2504              		.section	.text.vTaskStartScheduler,"ax",%progbits
 2505              		.align	1
 2506              		.global	vTaskStartScheduler
 2507              		.syntax unified
 2508              		.thumb
 2509              		.thumb_func
 2510              		.fpu softvfp
 2512              	vTaskStartScheduler:
 2513              	.LFB19:
 2514              		.loc 1 1896 1 is_stmt 1 view -0
 2515              		.cfi_startproc
 2516              		@ args = 0, pretend = 0, frame = 16
 2517              		@ frame_needed = 0, uses_anonymous_args = 0
 2518 0000 10B5     		push	{r4, lr}
 2519              	.LCFI22:
 2520              		.cfi_def_cfa_offset 8
 2521              		.cfi_offset 4, -8
 2522              		.cfi_offset 14, -4
 2523 0002 88B0     		sub	sp, sp, #32
 2524              	.LCFI23:
 2525              		.cfi_def_cfa_offset 40
 2526              		.loc 1 1897 1 view .LVU686
 2527              	.LBB147:
 2528              		.loc 1 1902 3 view .LVU687
 2529              		.loc 1 1902 17 is_stmt 0 view .LVU688
 2530 0004 0024     		movs	r4, #0
 2531 0006 0594     		str	r4, [sp, #20]
 2532              		.loc 1 1903 3 is_stmt 1 view .LVU689
 2533              		.loc 1 1903 16 is_stmt 0 view .LVU690
 2534 0008 0694     		str	r4, [sp, #24]
 2535              		.loc 1 1904 3 is_stmt 1 view .LVU691
 2536              		.loc 1 1908 3 view .LVU692
 2537 000a 07AA     		add	r2, sp, #28
 2538 000c 06A9     		add	r1, sp, #24
 2539 000e 05A8     		add	r0, sp, #20
 2540 0010 1B4B     		ldr	r3, .L199
 2541 0012 9847     		blx	r3
 2542              	.LVL186:
 2543              		.loc 1 1909 3 view .LVU693
 2544              		.loc 1 1909 21 is_stmt 0 view .LVU694
ARM GAS  C:\Users\38164\AppData\Local\Temp\ccm74k8u.s 			page 45


 2545 0014 059B     		ldr	r3, [sp, #20]
 2546 0016 0293     		str	r3, [sp, #8]
 2547 0018 069B     		ldr	r3, [sp, #24]
 2548 001a 0193     		str	r3, [sp, #4]
 2549 001c 0094     		str	r4, [sp]
 2550 001e 2346     		mov	r3, r4
 2551 0020 079A     		ldr	r2, [sp, #28]
 2552 0022 1849     		ldr	r1, .L199+4
 2553 0024 1848     		ldr	r0, .L199+8
 2554 0026 194C     		ldr	r4, .L199+12
 2555 0028 A047     		blx	r4
 2556              	.LVL187:
 2557              		.loc 1 1917 3 is_stmt 1 view .LVU695
 2558              		.loc 1 1917 5 is_stmt 0 view .LVU696
 2559 002a 48B1     		cbz	r0, .L191
 2560              	.LVL188:
 2561              		.loc 1 1917 5 view .LVU697
 2562              	.LBE147:
 2563              		.loc 1 1940 3 is_stmt 1 view .LVU698
 2564              		.loc 1 1942 4 view .LVU699
 2565              		.loc 1 1942 14 is_stmt 0 view .LVU700
 2566 002c 184B     		ldr	r3, .L199+16
 2567 002e 9847     		blx	r3
 2568              	.LVL189:
 2569 0030 0346     		mov	r3, r0
 2570              	.LVL190:
 2571              	.L192:
 2572              		.loc 1 1946 28 is_stmt 1 view .LVU701
 2573              		.loc 1 1951 2 view .LVU702
 2574              		.loc 1 1951 4 is_stmt 0 view .LVU703
 2575 0032 012B     		cmp	r3, #1
 2576 0034 06D0     		beq	.L197
 2577              		.loc 1 2006 3 is_stmt 1 view .LVU704
 2578 0036 B3F1FF3F 		cmp	r3, #-1
 2579 003a 18D0     		beq	.L198
 2580              	.LVL191:
 2581              	.L190:
 2582              		.loc 1 2012 1 is_stmt 0 view .LVU705
 2583 003c 08B0     		add	sp, sp, #32
 2584              	.LCFI24:
 2585              		.cfi_remember_state
 2586              		.cfi_def_cfa_offset 8
 2587              		@ sp needed
 2588 003e 10BD     		pop	{r4, pc}
 2589              	.L191:
 2590              	.LCFI25:
 2591              		.cfi_restore_state
 2592              	.LBB148:
 2593              		.loc 1 1923 4 is_stmt 1 view .LVU706
 2594              	.LVL192:
 2595              		.loc 1 1923 4 is_stmt 0 view .LVU707
 2596              	.LBE148:
 2597              		.loc 1 1940 3 is_stmt 1 view .LVU708
 2598              	.LBB149:
 2599              		.loc 1 1923 12 is_stmt 0 view .LVU709
 2600 0040 0023     		movs	r3, #0
 2601 0042 F6E7     		b	.L192
ARM GAS  C:\Users\38164\AppData\Local\Temp\ccm74k8u.s 			page 46


 2602              	.LVL193:
 2603              	.L197:
 2604              		.loc 1 1923 12 view .LVU710
 2605              	.LBE149:
 2606              		.loc 1 1967 3 is_stmt 1 view .LVU711
 2607              	.LBB150:
 2608              	.LBI150:
 2609              		.loc 2 191 30 view .LVU712
 2610              	.LBB151:
 2611              		.loc 2 193 1 view .LVU713
 2612              		.loc 2 195 2 view .LVU714
 2613              		.syntax unified
 2614              	@ 195 "Middlewares/Third_Party/FreeRTOS/Source/portable/GCC/ARM_CM3/portmacro.h" 1
 2615 0044 4FF05003 			mov r3, #80												
 2616 0048 83F31188 		msr basepri, r3											
 2617 004c BFF36F8F 		isb														
 2618 0050 BFF34F8F 		dsb														
 2619              	
 2620              	@ 0 "" 2
 2621              	.LVL194:
 2622              		.loc 2 195 2 is_stmt 0 view .LVU715
 2623              		.thumb
 2624              		.syntax unified
 2625              	.LBE151:
 2626              	.LBE150:
 2627              		.loc 1 1977 3 is_stmt 1 view .LVU716
 2628              		.loc 1 1977 24 is_stmt 0 view .LVU717
 2629 0054 0F4B     		ldr	r3, .L199+20
 2630 0056 4FF0FF32 		mov	r2, #-1
 2631 005a 1A60     		str	r2, [r3]
 2632              		.loc 1 1978 3 is_stmt 1 view .LVU718
 2633              		.loc 1 1978 21 is_stmt 0 view .LVU719
 2634 005c 0E4B     		ldr	r3, .L199+24
 2635 005e 0122     		movs	r2, #1
 2636 0060 1A60     		str	r2, [r3]
 2637              		.loc 1 1979 3 is_stmt 1 view .LVU720
 2638              		.loc 1 1979 14 is_stmt 0 view .LVU721
 2639 0062 0E4B     		ldr	r3, .L199+28
 2640 0064 0022     		movs	r2, #0
 2641 0066 1A60     		str	r2, [r3]
 2642              		.loc 1 1987 43 is_stmt 1 view .LVU722
 2643              		.loc 1 1991 3 view .LVU723
 2644              		.loc 1 1991 7 is_stmt 0 view .LVU724
 2645 0068 0D4B     		ldr	r3, .L199+32
 2646 006a 9847     		blx	r3
 2647              	.LVL195:
 2648 006c E6E7     		b	.L190
 2649              	.LVL196:
 2650              	.L198:
 2651              		.loc 1 2006 3 is_stmt 1 view .LVU725
 2652              	.LBB152:
 2653              	.LBI152:
 2654              		.loc 2 191 30 view .LVU726
 2655              	.LBB153:
 2656              		.loc 2 193 1 view .LVU727
 2657              		.loc 2 195 2 view .LVU728
 2658              		.syntax unified
ARM GAS  C:\Users\38164\AppData\Local\Temp\ccm74k8u.s 			page 47


 2659              	@ 195 "Middlewares/Third_Party/FreeRTOS/Source/portable/GCC/ARM_CM3/portmacro.h" 1
 2660 006e 4FF05003 			mov r3, #80												
 2661 0072 83F31188 		msr basepri, r3											
 2662 0076 BFF36F8F 		isb														
 2663 007a BFF34F8F 		dsb														
 2664              	
 2665              	@ 0 "" 2
 2666              	.LVL197:
 2667              		.thumb
 2668              		.syntax unified
 2669              	.L195:
 2670              		.loc 2 195 2 is_stmt 0 view .LVU729
 2671              	.LBE153:
 2672              	.LBE152:
 2673              		.loc 1 2006 3 is_stmt 1 discriminator 2 view .LVU730
 2674              		.loc 1 2006 3 discriminator 2 view .LVU731
 2675              		.loc 1 2006 3 discriminator 2 view .LVU732
 2676 007e FEE7     		b	.L195
 2677              	.L200:
 2678              		.align	2
 2679              	.L199:
 2680 0080 00000000 		.word	vApplicationGetIdleTaskMemory
 2681 0084 00000000 		.word	.LC0
 2682 0088 00000000 		.word	prvIdleTask
 2683 008c 00000000 		.word	xTaskCreateStatic
 2684 0090 00000000 		.word	xTimerCreateTimerTask
 2685 0094 00000000 		.word	.LANCHOR3
 2686 0098 00000000 		.word	.LANCHOR11
 2687 009c 00000000 		.word	.LANCHOR15
 2688 00a0 00000000 		.word	xPortStartScheduler
 2689              		.cfi_endproc
 2690              	.LFE19:
 2692              		.section	.text.vTaskEndScheduler,"ax",%progbits
 2693              		.align	1
 2694              		.global	vTaskEndScheduler
 2695              		.syntax unified
 2696              		.thumb
 2697              		.thumb_func
 2698              		.fpu softvfp
 2700              	vTaskEndScheduler:
 2701              	.LFB20:
 2702              		.loc 1 2016 1 view -0
 2703              		.cfi_startproc
 2704              		@ args = 0, pretend = 0, frame = 0
 2705              		@ frame_needed = 0, uses_anonymous_args = 0
 2706 0000 08B5     		push	{r3, lr}
 2707              	.LCFI26:
 2708              		.cfi_def_cfa_offset 8
 2709              		.cfi_offset 3, -8
 2710              		.cfi_offset 14, -4
 2711              		.loc 1 2020 2 view .LVU734
 2712              	.LBB154:
 2713              	.LBI154:
 2714              		.loc 2 191 30 view .LVU735
 2715              	.LBB155:
 2716              		.loc 2 193 1 view .LVU736
 2717              		.loc 2 195 2 view .LVU737
ARM GAS  C:\Users\38164\AppData\Local\Temp\ccm74k8u.s 			page 48


 2718              		.syntax unified
 2719              	@ 195 "Middlewares/Third_Party/FreeRTOS/Source/portable/GCC/ARM_CM3/portmacro.h" 1
 2720 0002 4FF05003 			mov r3, #80												
 2721 0006 83F31188 		msr basepri, r3											
 2722 000a BFF36F8F 		isb														
 2723 000e BFF34F8F 		dsb														
 2724              	
 2725              	@ 0 "" 2
 2726              		.thumb
 2727              		.syntax unified
 2728              	.LBE155:
 2729              	.LBE154:
 2730              		.loc 1 2021 2 view .LVU738
 2731              		.loc 1 2021 20 is_stmt 0 view .LVU739
 2732 0012 034B     		ldr	r3, .L203
 2733 0014 0022     		movs	r2, #0
 2734 0016 1A60     		str	r2, [r3]
 2735              		.loc 1 2022 2 is_stmt 1 view .LVU740
 2736 0018 024B     		ldr	r3, .L203+4
 2737 001a 9847     		blx	r3
 2738              	.LVL198:
 2739              		.loc 1 2023 1 is_stmt 0 view .LVU741
 2740 001c 08BD     		pop	{r3, pc}
 2741              	.L204:
 2742 001e 00BF     		.align	2
 2743              	.L203:
 2744 0020 00000000 		.word	.LANCHOR11
 2745 0024 00000000 		.word	vPortEndScheduler
 2746              		.cfi_endproc
 2747              	.LFE20:
 2749              		.section	.text.vTaskSuspendAll,"ax",%progbits
 2750              		.align	1
 2751              		.global	vTaskSuspendAll
 2752              		.syntax unified
 2753              		.thumb
 2754              		.thumb_func
 2755              		.fpu softvfp
 2757              	vTaskSuspendAll:
 2758              	.LFB21:
 2759              		.loc 1 2027 1 is_stmt 1 view -0
 2760              		.cfi_startproc
 2761              		@ args = 0, pretend = 0, frame = 0
 2762              		@ frame_needed = 0, uses_anonymous_args = 0
 2763              		@ link register save eliminated.
 2764              		.loc 1 2032 2 view .LVU743
 2765 0000 024A     		ldr	r2, .L206
 2766 0002 1368     		ldr	r3, [r2]
 2767 0004 0133     		adds	r3, r3, #1
 2768 0006 1360     		str	r3, [r2]
 2769              		.loc 1 2033 1 is_stmt 0 view .LVU744
 2770 0008 7047     		bx	lr
 2771              	.L207:
 2772 000a 00BF     		.align	2
 2773              	.L206:
 2774 000c 00000000 		.word	.LANCHOR16
 2775              		.cfi_endproc
 2776              	.LFE21:
ARM GAS  C:\Users\38164\AppData\Local\Temp\ccm74k8u.s 			page 49


 2778              		.section	.text.xTaskGetTickCount,"ax",%progbits
 2779              		.align	1
 2780              		.global	xTaskGetTickCount
 2781              		.syntax unified
 2782              		.thumb
 2783              		.thumb_func
 2784              		.fpu softvfp
 2786              	xTaskGetTickCount:
 2787              	.LFB23:
 2788              		.loc 1 2210 1 is_stmt 1 view -0
 2789              		.cfi_startproc
 2790              		@ args = 0, pretend = 0, frame = 0
 2791              		@ frame_needed = 0, uses_anonymous_args = 0
 2792              		@ link register save eliminated.
 2793              		.loc 1 2211 1 view .LVU746
 2794              		.loc 1 2214 32 view .LVU747
 2795              		.loc 1 2216 3 view .LVU748
 2796              		.loc 1 2216 10 is_stmt 0 view .LVU749
 2797 0000 014B     		ldr	r3, .L209
 2798 0002 1868     		ldr	r0, [r3]
 2799              	.LVL199:
 2800              		.loc 1 2218 31 is_stmt 1 view .LVU750
 2801              		.loc 1 2220 2 view .LVU751
 2802              		.loc 1 2221 1 is_stmt 0 view .LVU752
 2803 0004 7047     		bx	lr
 2804              	.L210:
 2805 0006 00BF     		.align	2
 2806              	.L209:
 2807 0008 00000000 		.word	.LANCHOR15
 2808              		.cfi_endproc
 2809              	.LFE23:
 2811              		.section	.text.xTaskGetTickCountFromISR,"ax",%progbits
 2812              		.align	1
 2813              		.global	xTaskGetTickCountFromISR
 2814              		.syntax unified
 2815              		.thumb
 2816              		.thumb_func
 2817              		.fpu softvfp
 2819              	xTaskGetTickCountFromISR:
 2820              	.LFB24:
 2821              		.loc 1 2225 1 is_stmt 1 view -0
 2822              		.cfi_startproc
 2823              		@ args = 0, pretend = 0, frame = 0
 2824              		@ frame_needed = 0, uses_anonymous_args = 0
 2825 0000 08B5     		push	{r3, lr}
 2826              	.LCFI27:
 2827              		.cfi_def_cfa_offset 8
 2828              		.cfi_offset 3, -8
 2829              		.cfi_offset 14, -4
 2830              		.loc 1 2226 1 view .LVU754
 2831              		.loc 1 2227 1 view .LVU755
 2832              		.loc 1 2243 2 view .LVU756
 2833 0002 024B     		ldr	r3, .L213
 2834 0004 9847     		blx	r3
 2835              	.LVL200:
 2836              		.loc 1 2245 2 view .LVU757
 2837              		.loc 1 2247 3 view .LVU758
ARM GAS  C:\Users\38164\AppData\Local\Temp\ccm74k8u.s 			page 50


 2838              		.loc 1 2247 11 is_stmt 0 view .LVU759
 2839 0006 024B     		ldr	r3, .L213+4
 2840 0008 1868     		ldr	r0, [r3]
 2841              	.LVL201:
 2842              		.loc 1 2249 2 is_stmt 1 view .LVU760
 2843              		.loc 1 2251 2 view .LVU761
 2844              		.loc 1 2252 1 is_stmt 0 view .LVU762
 2845 000a 08BD     		pop	{r3, pc}
 2846              	.L214:
 2847              		.align	2
 2848              	.L213:
 2849 000c 00000000 		.word	vPortValidateInterruptPriority
 2850 0010 00000000 		.word	.LANCHOR15
 2851              		.cfi_endproc
 2852              	.LFE24:
 2854              		.section	.text.uxTaskGetNumberOfTasks,"ax",%progbits
 2855              		.align	1
 2856              		.global	uxTaskGetNumberOfTasks
 2857              		.syntax unified
 2858              		.thumb
 2859              		.thumb_func
 2860              		.fpu softvfp
 2862              	uxTaskGetNumberOfTasks:
 2863              	.LFB25:
 2864              		.loc 1 2256 1 is_stmt 1 view -0
 2865              		.cfi_startproc
 2866              		@ args = 0, pretend = 0, frame = 0
 2867              		@ frame_needed = 0, uses_anonymous_args = 0
 2868              		@ link register save eliminated.
 2869              		.loc 1 2259 2 view .LVU764
 2870              		.loc 1 2259 9 is_stmt 0 view .LVU765
 2871 0000 014B     		ldr	r3, .L216
 2872 0002 1868     		ldr	r0, [r3]
 2873              		.loc 1 2260 1 view .LVU766
 2874 0004 7047     		bx	lr
 2875              	.L217:
 2876 0006 00BF     		.align	2
 2877              	.L216:
 2878 0008 00000000 		.word	.LANCHOR9
 2879              		.cfi_endproc
 2880              	.LFE25:
 2882              		.section	.text.pcTaskGetName,"ax",%progbits
 2883              		.align	1
 2884              		.global	pcTaskGetName
 2885              		.syntax unified
 2886              		.thumb
 2887              		.thumb_func
 2888              		.fpu softvfp
 2890              	pcTaskGetName:
 2891              	.LVL202:
 2892              	.LFB26:
 2893              		.loc 1 2264 1 is_stmt 1 view -0
 2894              		.cfi_startproc
 2895              		@ args = 0, pretend = 0, frame = 0
 2896              		@ frame_needed = 0, uses_anonymous_args = 0
 2897              		@ link register save eliminated.
 2898              		.loc 1 2265 1 view .LVU768
ARM GAS  C:\Users\38164\AppData\Local\Temp\ccm74k8u.s 			page 51


 2899              		.loc 1 2269 2 view .LVU769
 2900              		.loc 1 2269 10 is_stmt 0 view .LVU770
 2901 0000 0346     		mov	r3, r0
 2902 0002 18B1     		cbz	r0, .L222
 2903              	.LVL203:
 2904              	.L219:
 2905              		.loc 1 2270 2 is_stmt 1 discriminator 4 view .LVU771
 2906 0004 2BB1     		cbz	r3, .L223
 2907              		.loc 1 2270 23 discriminator 2 view .LVU772
 2908              		.loc 1 2271 2 discriminator 2 view .LVU773
 2909              		.loc 1 2272 1 is_stmt 0 discriminator 2 view .LVU774
 2910 0006 03F13400 		add	r0, r3, #52
 2911 000a 7047     		bx	lr
 2912              	.LVL204:
 2913              	.L222:
 2914              		.loc 1 2269 10 discriminator 1 view .LVU775
 2915 000c 054B     		ldr	r3, .L224
 2916 000e 1B68     		ldr	r3, [r3]
 2917              	.LVL205:
 2918              		.loc 1 2269 10 discriminator 1 view .LVU776
 2919 0010 F8E7     		b	.L219
 2920              	.LVL206:
 2921              	.L223:
 2922              		.loc 1 2270 2 is_stmt 1 view .LVU777
 2923              	.LBB156:
 2924              	.LBI156:
 2925              		.loc 2 191 30 view .LVU778
 2926              	.LBB157:
 2927              		.loc 2 193 1 view .LVU779
 2928              		.loc 2 195 2 view .LVU780
 2929              		.syntax unified
 2930              	@ 195 "Middlewares/Third_Party/FreeRTOS/Source/portable/GCC/ARM_CM3/portmacro.h" 1
 2931 0012 4FF05003 			mov r3, #80												
 2932 0016 83F31188 		msr basepri, r3											
 2933 001a BFF36F8F 		isb														
 2934 001e BFF34F8F 		dsb														
 2935              	
 2936              	@ 0 "" 2
 2937              	.LVL207:
 2938              		.thumb
 2939              		.syntax unified
 2940              	.L221:
 2941              		.loc 2 195 2 is_stmt 0 view .LVU781
 2942              	.LBE157:
 2943              	.LBE156:
 2944              		.loc 1 2270 2 is_stmt 1 discriminator 1 view .LVU782
 2945              		.loc 1 2270 2 discriminator 1 view .LVU783
 2946              		.loc 1 2270 2 discriminator 1 view .LVU784
 2947 0022 FEE7     		b	.L221
 2948              	.L225:
 2949              		.align	2
 2950              	.L224:
 2951 0024 00000000 		.word	.LANCHOR10
 2952              		.cfi_endproc
 2953              	.LFE26:
 2955              		.section	.text.xTaskIncrementTick,"ax",%progbits
 2956              		.align	1
ARM GAS  C:\Users\38164\AppData\Local\Temp\ccm74k8u.s 			page 52


 2957              		.global	xTaskIncrementTick
 2958              		.syntax unified
 2959              		.thumb
 2960              		.thumb_func
 2961              		.fpu softvfp
 2963              	xTaskIncrementTick:
 2964              	.LFB28:
 2965              		.loc 1 2584 1 view -0
 2966              		.cfi_startproc
 2967              		@ args = 0, pretend = 0, frame = 0
 2968              		@ frame_needed = 0, uses_anonymous_args = 0
 2969 0000 F8B5     		push	{r3, r4, r5, r6, r7, lr}
 2970              	.LCFI28:
 2971              		.cfi_def_cfa_offset 24
 2972              		.cfi_offset 3, -24
 2973              		.cfi_offset 4, -20
 2974              		.cfi_offset 5, -16
 2975              		.cfi_offset 6, -12
 2976              		.cfi_offset 7, -8
 2977              		.cfi_offset 14, -4
 2978              		.loc 1 2585 1 view .LVU786
 2979              		.loc 1 2586 1 view .LVU787
 2980              		.loc 1 2587 1 view .LVU788
 2981              	.LVL208:
 2982              		.loc 1 2592 40 view .LVU789
 2983              		.loc 1 2593 2 view .LVU790
 2984              		.loc 1 2593 27 is_stmt 0 view .LVU791
 2985 0002 3A4B     		ldr	r3, .L248
 2986 0004 1B68     		ldr	r3, [r3]
 2987              		.loc 1 2593 4 view .LVU792
 2988 0006 002B     		cmp	r3, #0
 2989 0008 65D1     		bne	.L227
 2990              	.LBB158:
 2991              		.loc 1 2597 3 is_stmt 1 view .LVU793
 2992              		.loc 1 2597 49 is_stmt 0 view .LVU794
 2993 000a 394B     		ldr	r3, .L248+4
 2994 000c 1D68     		ldr	r5, [r3]
 2995              		.loc 1 2597 20 view .LVU795
 2996 000e 0135     		adds	r5, r5, #1
 2997              	.LVL209:
 2998              		.loc 1 2601 3 is_stmt 1 view .LVU796
 2999              		.loc 1 2601 14 is_stmt 0 view .LVU797
 3000 0010 1D60     		str	r5, [r3]
 3001              		.loc 1 2603 3 is_stmt 1 view .LVU798
 3002              		.loc 1 2603 5 is_stmt 0 view .LVU799
 3003 0012 C5B9     		cbnz	r5, .L228
 3004              	.LBB159:
 3005              		.loc 1 2605 4 is_stmt 1 view .LVU800
 3006              		.loc 1 2605 4 view .LVU801
 3007 0014 374B     		ldr	r3, .L248+8
 3008 0016 1B68     		ldr	r3, [r3]
 3009 0018 1B68     		ldr	r3, [r3]
 3010 001a 43B1     		cbz	r3, .L229
 3011              		.loc 1 2605 4 view .LVU802
 3012              	.LBB160:
 3013              	.LBI160:
 3014              		.loc 2 191 30 view .LVU803
ARM GAS  C:\Users\38164\AppData\Local\Temp\ccm74k8u.s 			page 53


 3015              	.LBB161:
 3016              		.loc 2 193 1 view .LVU804
 3017              		.loc 2 195 2 view .LVU805
 3018              		.syntax unified
 3019              	@ 195 "Middlewares/Third_Party/FreeRTOS/Source/portable/GCC/ARM_CM3/portmacro.h" 1
 3020 001c 4FF05003 			mov r3, #80												
 3021 0020 83F31188 		msr basepri, r3											
 3022 0024 BFF36F8F 		isb														
 3023 0028 BFF34F8F 		dsb														
 3024              	
 3025              	@ 0 "" 2
 3026              	.LVL210:
 3027              		.thumb
 3028              		.syntax unified
 3029              	.L230:
 3030              		.loc 2 195 2 is_stmt 0 view .LVU806
 3031              	.LBE161:
 3032              	.LBE160:
 3033              		.loc 1 2605 4 is_stmt 1 discriminator 1 view .LVU807
 3034              		.loc 1 2605 4 discriminator 1 view .LVU808
 3035              		.loc 1 2605 4 discriminator 1 view .LVU809
 3036 002c FEE7     		b	.L230
 3037              	.L229:
 3038              		.loc 1 2605 4 discriminator 2 view .LVU810
 3039              		.loc 1 2605 4 discriminator 2 view .LVU811
 3040 002e 314A     		ldr	r2, .L248+8
 3041 0030 1168     		ldr	r1, [r2]
 3042              	.LVL211:
 3043              		.loc 1 2605 4 discriminator 2 view .LVU812
 3044 0032 314B     		ldr	r3, .L248+12
 3045 0034 1868     		ldr	r0, [r3]
 3046 0036 1060     		str	r0, [r2]
 3047              		.loc 1 2605 4 discriminator 2 view .LVU813
 3048 0038 1960     		str	r1, [r3]
 3049              		.loc 1 2605 4 discriminator 2 view .LVU814
 3050 003a 304A     		ldr	r2, .L248+16
 3051 003c 1368     		ldr	r3, [r2]
 3052 003e 0133     		adds	r3, r3, #1
 3053 0040 1360     		str	r3, [r2]
 3054              		.loc 1 2605 4 discriminator 2 view .LVU815
 3055 0042 2F4B     		ldr	r3, .L248+20
 3056 0044 9847     		blx	r3
 3057              	.LVL212:
 3058              		.loc 1 2605 4 is_stmt 0 discriminator 2 view .LVU816
 3059              	.LBE159:
 3060              		.loc 1 2605 30 is_stmt 1 discriminator 2 view .LVU817
 3061              	.L228:
 3062              		.loc 1 2609 28 view .LVU818
 3063              		.loc 1 2616 3 view .LVU819
 3064              		.loc 1 2616 23 is_stmt 0 view .LVU820
 3065 0046 2F4B     		ldr	r3, .L248+24
 3066 0048 1B68     		ldr	r3, [r3]
 3067              		.loc 1 2616 5 view .LVU821
 3068 004a AB42     		cmp	r3, r5
 3069 004c 0CD9     		bls	.L241
 3070              	.LBE158:
 3071              		.loc 1 2587 12 view .LVU822
ARM GAS  C:\Users\38164\AppData\Local\Temp\ccm74k8u.s 			page 54


 3072 004e 0024     		movs	r4, #0
 3073              	.LVL213:
 3074              	.L232:
 3075              	.LBB162:
 3076              		.loc 1 2699 4 is_stmt 1 view .LVU823
 3077              		.loc 1 2699 8 is_stmt 0 view .LVU824
 3078 0050 2D4B     		ldr	r3, .L248+28
 3079 0052 1B68     		ldr	r3, [r3]
 3080 0054 DB6A     		ldr	r3, [r3, #44]
 3081 0056 03EB8303 		add	r3, r3, r3, lsl #2
 3082 005a 9A00     		lsls	r2, r3, #2
 3083 005c 2B4B     		ldr	r3, .L248+32
 3084 005e 9B58     		ldr	r3, [r3, r2]
 3085              		.loc 1 2699 6 view .LVU825
 3086 0060 012B     		cmp	r3, #1
 3087 0062 3DD9     		bls	.L239
 3088              		.loc 1 2701 21 view .LVU826
 3089 0064 0124     		movs	r4, #1
 3090              	.LVL214:
 3091              		.loc 1 2701 21 view .LVU827
 3092 0066 3BE0     		b	.L239
 3093              	.LVL215:
 3094              	.L241:
 3095              		.loc 1 2701 21 view .LVU828
 3096              	.LBE162:
 3097              		.loc 1 2587 12 view .LVU829
 3098 0068 0024     		movs	r4, #0
 3099 006a 16E0     		b	.L231
 3100              	.LVL216:
 3101              	.L246:
 3102              	.LBB163:
 3103              		.loc 1 2627 6 is_stmt 1 view .LVU830
 3104              		.loc 1 2627 27 is_stmt 0 view .LVU831
 3105 006c 254B     		ldr	r3, .L248+24
 3106 006e 4FF0FF32 		mov	r2, #-1
 3107 0072 1A60     		str	r2, [r3]
 3108              		.loc 1 2628 6 is_stmt 1 view .LVU832
 3109 0074 ECE7     		b	.L232
 3110              	.LVL217:
 3111              	.L247:
 3112              		.loc 1 2646 7 view .LVU833
 3113              		.loc 1 2646 28 is_stmt 0 view .LVU834
 3114 0076 234A     		ldr	r2, .L248+24
 3115 0078 1360     		str	r3, [r2]
 3116              		.loc 1 2647 7 is_stmt 1 view .LVU835
 3117 007a E9E7     		b	.L232
 3118              	.LVL218:
 3119              	.L236:
 3120              		.loc 1 2670 6 discriminator 3 view .LVU836
 3121              		.loc 1 2670 6 discriminator 3 view .LVU837
 3122 007c 03EB8303 		add	r3, r3, r3, lsl #2
 3123 0080 9A00     		lsls	r2, r3, #2
 3124 0082 3946     		mov	r1, r7
 3125 0084 2148     		ldr	r0, .L248+32
 3126 0086 1044     		add	r0, r0, r2
 3127 0088 214B     		ldr	r3, .L248+36
 3128 008a 9847     		blx	r3
ARM GAS  C:\Users\38164\AppData\Local\Temp\ccm74k8u.s 			page 55


 3129              	.LVL219:
 3130              		.loc 1 2670 36 discriminator 3 view .LVU838
 3131              		.loc 1 2680 7 discriminator 3 view .LVU839
 3132              		.loc 1 2680 16 is_stmt 0 discriminator 3 view .LVU840
 3133 008c F26A     		ldr	r2, [r6, #44]
 3134              		.loc 1 2680 44 discriminator 3 view .LVU841
 3135 008e 1E4B     		ldr	r3, .L248+28
 3136 0090 1B68     		ldr	r3, [r3]
 3137 0092 DB6A     		ldr	r3, [r3, #44]
 3138              		.loc 1 2680 9 discriminator 3 view .LVU842
 3139 0094 9A42     		cmp	r2, r3
 3140 0096 00D3     		bcc	.L231
 3141              		.loc 1 2682 24 view .LVU843
 3142 0098 0124     		movs	r4, #1
 3143              	.LVL220:
 3144              	.L231:
 3145              		.loc 1 2618 4 is_stmt 1 view .LVU844
 3146              		.loc 1 2620 5 view .LVU845
 3147              		.loc 1 2620 9 is_stmt 0 view .LVU846
 3148 009a 164B     		ldr	r3, .L248+8
 3149 009c 1B68     		ldr	r3, [r3]
 3150 009e 1B68     		ldr	r3, [r3]
 3151              		.loc 1 2620 48 view .LVU847
 3152 00a0 002B     		cmp	r3, #0
 3153 00a2 E3D0     		beq	.L246
 3154              		.loc 1 2636 6 is_stmt 1 view .LVU848
 3155              		.loc 1 2636 26 is_stmt 0 view .LVU849
 3156 00a4 134B     		ldr	r3, .L248+8
 3157 00a6 1B68     		ldr	r3, [r3]
 3158 00a8 DB68     		ldr	r3, [r3, #12]
 3159              		.loc 1 2636 12 view .LVU850
 3160 00aa DE68     		ldr	r6, [r3, #12]
 3161              	.LVL221:
 3162              		.loc 1 2637 6 is_stmt 1 view .LVU851
 3163              		.loc 1 2637 17 is_stmt 0 view .LVU852
 3164 00ac 7368     		ldr	r3, [r6, #4]
 3165              	.LVL222:
 3166              		.loc 1 2639 6 is_stmt 1 view .LVU853
 3167              		.loc 1 2639 8 is_stmt 0 view .LVU854
 3168 00ae 9D42     		cmp	r5, r3
 3169 00b0 E1D3     		bcc	.L247
 3170              		.loc 1 2651 31 is_stmt 1 view .LVU855
 3171              		.loc 1 2655 6 view .LVU856
 3172              		.loc 1 2655 15 is_stmt 0 view .LVU857
 3173 00b2 371D     		adds	r7, r6, #4
 3174 00b4 3846     		mov	r0, r7
 3175 00b6 174B     		ldr	r3, .L248+40
 3176              	.LVL223:
 3177              		.loc 1 2655 15 view .LVU858
 3178 00b8 9847     		blx	r3
 3179              	.LVL224:
 3180              		.loc 1 2659 6 is_stmt 1 view .LVU859
 3181              		.loc 1 2659 10 is_stmt 0 view .LVU860
 3182 00ba B36A     		ldr	r3, [r6, #40]
 3183              		.loc 1 2659 8 view .LVU861
 3184 00bc 1BB1     		cbz	r3, .L235
 3185              		.loc 1 2661 7 is_stmt 1 view .LVU862
ARM GAS  C:\Users\38164\AppData\Local\Temp\ccm74k8u.s 			page 56


 3186              		.loc 1 2661 16 is_stmt 0 view .LVU863
 3187 00be 06F11800 		add	r0, r6, #24
 3188 00c2 144B     		ldr	r3, .L248+40
 3189 00c4 9847     		blx	r3
 3190              	.LVL225:
 3191              	.L235:
 3192              		.loc 1 2665 31 is_stmt 1 view .LVU864
 3193              		.loc 1 2670 6 view .LVU865
 3194              		.loc 1 2670 6 view .LVU866
 3195 00c6 F36A     		ldr	r3, [r6, #44]
 3196 00c8 134A     		ldr	r2, .L248+44
 3197 00ca 1268     		ldr	r2, [r2]
 3198 00cc 9342     		cmp	r3, r2
 3199 00ce D5D9     		bls	.L236
 3200              		.loc 1 2670 6 discriminator 1 view .LVU867
 3201 00d0 114A     		ldr	r2, .L248+44
 3202 00d2 1360     		str	r3, [r2]
 3203 00d4 D2E7     		b	.L236
 3204              	.LVL226:
 3205              	.L227:
 3206              		.loc 1 2670 6 is_stmt 0 discriminator 1 view .LVU868
 3207              	.LBE163:
 3208              		.loc 1 2727 3 is_stmt 1 view .LVU869
 3209 00d6 114A     		ldr	r2, .L248+48
 3210 00d8 1368     		ldr	r3, [r2]
 3211 00da 0133     		adds	r3, r3, #1
 3212 00dc 1360     		str	r3, [r2]
 3213              		.loc 1 2587 12 is_stmt 0 view .LVU870
 3214 00de 0024     		movs	r4, #0
 3215              	.LVL227:
 3216              	.L239:
 3217              		.loc 1 2740 3 is_stmt 1 view .LVU871
 3218              		.loc 1 2740 21 is_stmt 0 view .LVU872
 3219 00e0 0F4B     		ldr	r3, .L248+52
 3220 00e2 1B68     		ldr	r3, [r3]
 3221              		.loc 1 2740 5 view .LVU873
 3222 00e4 03B1     		cbz	r3, .L226
 3223              		.loc 1 2742 20 view .LVU874
 3224 00e6 0124     		movs	r4, #1
 3225              	.LVL228:
 3226              		.loc 1 2746 28 is_stmt 1 view .LVU875
 3227              		.loc 1 2751 2 view .LVU876
 3228              	.L226:
 3229              		.loc 1 2752 1 is_stmt 0 view .LVU877
 3230 00e8 2046     		mov	r0, r4
 3231 00ea F8BD     		pop	{r3, r4, r5, r6, r7, pc}
 3232              	.L249:
 3233              		.align	2
 3234              	.L248:
 3235 00ec 00000000 		.word	.LANCHOR16
 3236 00f0 00000000 		.word	.LANCHOR15
 3237 00f4 00000000 		.word	.LANCHOR2
 3238 00f8 00000000 		.word	.LANCHOR8
 3239 00fc 00000000 		.word	.LANCHOR17
 3240 0100 00000000 		.word	prvResetNextTaskUnblockTime
 3241 0104 00000000 		.word	.LANCHOR3
 3242 0108 00000000 		.word	.LANCHOR10
ARM GAS  C:\Users\38164\AppData\Local\Temp\ccm74k8u.s 			page 57


 3243 010c 00000000 		.word	.LANCHOR4
 3244 0110 00000000 		.word	vListInsertEnd
 3245 0114 00000000 		.word	uxListRemove
 3246 0118 00000000 		.word	.LANCHOR13
 3247 011c 00000000 		.word	.LANCHOR18
 3248 0120 00000000 		.word	.LANCHOR19
 3249              		.cfi_endproc
 3250              	.LFE28:
 3252              		.section	.text.xTaskResumeAll,"ax",%progbits
 3253              		.align	1
 3254              		.global	xTaskResumeAll
 3255              		.syntax unified
 3256              		.thumb
 3257              		.thumb_func
 3258              		.fpu softvfp
 3260              	xTaskResumeAll:
 3261              	.LFB22:
 3262              		.loc 1 2100 1 is_stmt 1 view -0
 3263              		.cfi_startproc
 3264              		@ args = 0, pretend = 0, frame = 0
 3265              		@ frame_needed = 0, uses_anonymous_args = 0
 3266              		.loc 1 2101 1 view .LVU879
 3267              	.LVL229:
 3268              		.loc 1 2102 1 view .LVU880
 3269              		.loc 1 2106 2 view .LVU881
 3270 0000 334B     		ldr	r3, .L268
 3271 0002 1B68     		ldr	r3, [r3]
 3272 0004 43B9     		cbnz	r3, .L251
 3273              		.loc 1 2106 2 view .LVU882
 3274              	.LBB164:
 3275              	.LBI164:
 3276              		.loc 2 191 30 view .LVU883
 3277              	.LBB165:
 3278              		.loc 2 193 1 view .LVU884
 3279              		.loc 2 195 2 view .LVU885
 3280              		.syntax unified
 3281              	@ 195 "Middlewares/Third_Party/FreeRTOS/Source/portable/GCC/ARM_CM3/portmacro.h" 1
 3282 0006 4FF05003 			mov r3, #80												
 3283 000a 83F31188 		msr basepri, r3											
 3284 000e BFF36F8F 		isb														
 3285 0012 BFF34F8F 		dsb														
 3286              	
 3287              	@ 0 "" 2
 3288              	.LVL230:
 3289              		.thumb
 3290              		.syntax unified
 3291              	.L252:
 3292              		.loc 2 195 2 is_stmt 0 view .LVU886
 3293              	.LBE165:
 3294              	.LBE164:
 3295              		.loc 1 2106 2 is_stmt 1 discriminator 1 view .LVU887
 3296              		.loc 1 2106 2 discriminator 1 view .LVU888
 3297              		.loc 1 2106 2 discriminator 1 view .LVU889
 3298 0016 FEE7     		b	.L252
 3299              	.L251:
 3300              		.loc 1 2100 1 is_stmt 0 discriminator 2 view .LVU890
 3301 0018 70B5     		push	{r4, r5, r6, lr}
ARM GAS  C:\Users\38164\AppData\Local\Temp\ccm74k8u.s 			page 58


 3302              	.LCFI29:
 3303              		.cfi_def_cfa_offset 16
 3304              		.cfi_offset 4, -16
 3305              		.cfi_offset 5, -12
 3306              		.cfi_offset 6, -8
 3307              		.cfi_offset 14, -4
 3308              		.loc 1 2106 38 is_stmt 1 discriminator 2 view .LVU891
 3309              		.loc 1 2113 2 discriminator 2 view .LVU892
 3310 001a 2E4B     		ldr	r3, .L268+4
 3311 001c 9847     		blx	r3
 3312              	.LVL231:
 3313              		.loc 1 2115 3 discriminator 2 view .LVU893
 3314 001e 2C4B     		ldr	r3, .L268
 3315 0020 1A68     		ldr	r2, [r3]
 3316 0022 013A     		subs	r2, r2, #1
 3317 0024 1A60     		str	r2, [r3]
 3318              		.loc 1 2117 3 discriminator 2 view .LVU894
 3319              		.loc 1 2117 28 is_stmt 0 discriminator 2 view .LVU895
 3320 0026 1B68     		ldr	r3, [r3]
 3321              		.loc 1 2117 5 discriminator 2 view .LVU896
 3322 0028 002B     		cmp	r3, #0
 3323 002a 4CD1     		bne	.L262
 3324              		.loc 1 2119 4 is_stmt 1 view .LVU897
 3325              		.loc 1 2119 31 is_stmt 0 view .LVU898
 3326 002c 2A4B     		ldr	r3, .L268+8
 3327 002e 1B68     		ldr	r3, [r3]
 3328              		.loc 1 2119 6 view .LVU899
 3329 0030 0BB9     		cbnz	r3, .L263
 3330              		.loc 1 2102 12 view .LVU900
 3331 0032 0024     		movs	r4, #0
 3332 0034 48E0     		b	.L253
 3333              	.L263:
 3334              		.loc 1 2101 8 view .LVU901
 3335 0036 0024     		movs	r4, #0
 3336              	.LVL232:
 3337              	.L254:
 3338              		.loc 1 2138 31 is_stmt 1 view .LVU902
 3339              		.loc 1 2123 10 view .LVU903
 3340              		.loc 1 2123 12 is_stmt 0 view .LVU904
 3341 0038 284B     		ldr	r3, .L268+12
 3342 003a 1B68     		ldr	r3, [r3]
 3343              		.loc 1 2123 10 view .LVU905
 3344 003c 13B3     		cbz	r3, .L266
 3345              		.loc 1 2125 6 is_stmt 1 view .LVU906
 3346              		.loc 1 2125 26 is_stmt 0 view .LVU907
 3347 003e 274B     		ldr	r3, .L268+12
 3348 0040 DB68     		ldr	r3, [r3, #12]
 3349              		.loc 1 2125 12 view .LVU908
 3350 0042 DC68     		ldr	r4, [r3, #12]
 3351              	.LVL233:
 3352              		.loc 1 2126 6 is_stmt 1 view .LVU909
 3353              		.loc 1 2126 15 is_stmt 0 view .LVU910
 3354 0044 04F11800 		add	r0, r4, #24
 3355 0048 254E     		ldr	r6, .L268+16
 3356 004a B047     		blx	r6
 3357              	.LVL234:
 3358              		.loc 1 2127 6 is_stmt 1 view .LVU911
ARM GAS  C:\Users\38164\AppData\Local\Temp\ccm74k8u.s 			page 59


 3359              		.loc 1 2127 15 is_stmt 0 view .LVU912
 3360 004c 251D     		adds	r5, r4, #4
 3361 004e 2846     		mov	r0, r5
 3362 0050 B047     		blx	r6
 3363              	.LVL235:
 3364              		.loc 1 2128 6 is_stmt 1 view .LVU913
 3365              		.loc 1 2128 6 view .LVU914
 3366 0052 E06A     		ldr	r0, [r4, #44]
 3367 0054 234B     		ldr	r3, .L268+20
 3368 0056 1B68     		ldr	r3, [r3]
 3369 0058 9842     		cmp	r0, r3
 3370 005a 01D9     		bls	.L255
 3371              		.loc 1 2128 6 discriminator 1 view .LVU915
 3372 005c 214B     		ldr	r3, .L268+20
 3373 005e 1860     		str	r0, [r3]
 3374              	.L255:
 3375              		.loc 1 2128 6 discriminator 3 view .LVU916
 3376              		.loc 1 2128 6 discriminator 3 view .LVU917
 3377 0060 00EB8000 		add	r0, r0, r0, lsl #2
 3378 0064 2946     		mov	r1, r5
 3379 0066 204B     		ldr	r3, .L268+24
 3380 0068 03EB8000 		add	r0, r3, r0, lsl #2
 3381 006c 1F4B     		ldr	r3, .L268+28
 3382 006e 9847     		blx	r3
 3383              	.LVL236:
 3384              		.loc 1 2128 36 discriminator 3 view .LVU918
 3385              		.loc 1 2132 6 discriminator 3 view .LVU919
 3386              		.loc 1 2132 15 is_stmt 0 discriminator 3 view .LVU920
 3387 0070 E26A     		ldr	r2, [r4, #44]
 3388              		.loc 1 2132 43 discriminator 3 view .LVU921
 3389 0072 1F4B     		ldr	r3, .L268+32
 3390 0074 1B68     		ldr	r3, [r3]
 3391 0076 DB6A     		ldr	r3, [r3, #44]
 3392              		.loc 1 2132 8 discriminator 3 view .LVU922
 3393 0078 9A42     		cmp	r2, r3
 3394 007a DDD3     		bcc	.L254
 3395              		.loc 1 2134 7 is_stmt 1 view .LVU923
 3396              		.loc 1 2134 21 is_stmt 0 view .LVU924
 3397 007c 1D4B     		ldr	r3, .L268+36
 3398 007e 0122     		movs	r2, #1
 3399 0080 1A60     		str	r2, [r3]
 3400 0082 D9E7     		b	.L254
 3401              	.L266:
 3402              		.loc 1 2142 5 is_stmt 1 view .LVU925
 3403              		.loc 1 2142 7 is_stmt 0 view .LVU926
 3404 0084 0CB1     		cbz	r4, .L258
 3405              		.loc 1 2150 6 is_stmt 1 view .LVU927
 3406 0086 1C4B     		ldr	r3, .L268+40
 3407 0088 9847     		blx	r3
 3408              	.LVL237:
 3409              	.L258:
 3410              	.LBB166:
 3411              		.loc 1 2158 6 view .LVU928
 3412              		.loc 1 2158 18 is_stmt 0 view .LVU929
 3413 008a 1C4B     		ldr	r3, .L268+44
 3414 008c 1C68     		ldr	r4, [r3]
 3415              	.LVL238:
ARM GAS  C:\Users\38164\AppData\Local\Temp\ccm74k8u.s 			page 60


 3416              		.loc 1 2160 6 is_stmt 1 view .LVU930
 3417              		.loc 1 2160 8 is_stmt 0 view .LVU931
 3418 008e 74B9     		cbnz	r4, .L261
 3419              	.L259:
 3420              		.loc 1 2179 31 is_stmt 1 view .LVU932
 3421              	.LBE166:
 3422              		.loc 1 2183 5 view .LVU933
 3423              		.loc 1 2183 23 is_stmt 0 view .LVU934
 3424 0090 184B     		ldr	r3, .L268+36
 3425 0092 1C68     		ldr	r4, [r3]
 3426              	.LVL239:
 3427              		.loc 1 2183 7 view .LVU935
 3428 0094 C4B1     		cbz	r4, .L253
 3429              		.loc 1 2187 7 is_stmt 1 view .LVU936
 3430              	.LVL240:
 3431              		.loc 1 2190 6 view .LVU937
 3432 0096 1A4B     		ldr	r3, .L268+48
 3433 0098 4FF08052 		mov	r2, #268435456
 3434 009c 1A60     		str	r2, [r3]
 3435              		.loc 1 2190 6 view .LVU938
 3436              		.syntax unified
 3437              	@ 2190 "Middlewares/Third_Party/FreeRTOS/Source/tasks.c" 1
 3438 009e BFF34F8F 		dsb
 3439              	@ 0 "" 2
 3440              		.loc 1 2190 6 view .LVU939
 3441              	@ 2190 "Middlewares/Third_Party/FreeRTOS/Source/tasks.c" 1
 3442 00a2 BFF36F8F 		isb
 3443              	@ 0 "" 2
 3444              		.loc 1 2190 37 view .LVU940
 3445              		.loc 1 2187 23 is_stmt 0 view .LVU941
 3446              		.thumb
 3447              		.syntax unified
 3448 00a6 0124     		movs	r4, #1
 3449 00a8 0EE0     		b	.L253
 3450              	.LVL241:
 3451              	.L260:
 3452              	.LBB167:
 3453              		.loc 1 2170 33 is_stmt 1 view .LVU942
 3454              		.loc 1 2172 8 view .LVU943
 3455              		.loc 1 2173 14 view .LVU944
 3456              		.loc 1 2173 7 is_stmt 0 view .LVU945
 3457 00aa 013C     		subs	r4, r4, #1
 3458              	.LVL242:
 3459              		.loc 1 2173 7 view .LVU946
 3460 00ac 07D0     		beq	.L267
 3461              	.L261:
 3462              		.loc 1 2162 7 is_stmt 1 view .LVU947
 3463              		.loc 1 2164 8 view .LVU948
 3464              		.loc 1 2164 12 is_stmt 0 view .LVU949
 3465 00ae 154B     		ldr	r3, .L268+52
 3466 00b0 9847     		blx	r3
 3467              	.LVL243:
 3468              		.loc 1 2164 10 view .LVU950
 3469 00b2 0028     		cmp	r0, #0
 3470 00b4 F9D0     		beq	.L260
 3471              		.loc 1 2166 9 is_stmt 1 view .LVU951
 3472              		.loc 1 2166 23 is_stmt 0 view .LVU952
ARM GAS  C:\Users\38164\AppData\Local\Temp\ccm74k8u.s 			page 61


 3473 00b6 0F4B     		ldr	r3, .L268+36
 3474 00b8 0122     		movs	r2, #1
 3475 00ba 1A60     		str	r2, [r3]
 3476 00bc F5E7     		b	.L260
 3477              	.L267:
 3478              		.loc 1 2175 7 is_stmt 1 view .LVU953
 3479              		.loc 1 2175 21 is_stmt 0 view .LVU954
 3480 00be 0F4B     		ldr	r3, .L268+44
 3481 00c0 0022     		movs	r2, #0
 3482 00c2 1A60     		str	r2, [r3]
 3483 00c4 E4E7     		b	.L259
 3484              	.LVL244:
 3485              	.L262:
 3486              		.loc 1 2175 21 view .LVU955
 3487              	.LBE167:
 3488              		.loc 1 2102 12 view .LVU956
 3489 00c6 0024     		movs	r4, #0
 3490              	.LVL245:
 3491              	.L253:
 3492              		.loc 1 2200 28 is_stmt 1 view .LVU957
 3493              		.loc 1 2203 2 view .LVU958
 3494 00c8 0F4B     		ldr	r3, .L268+56
 3495 00ca 9847     		blx	r3
 3496              	.LVL246:
 3497              		.loc 1 2205 2 view .LVU959
 3498              		.loc 1 2206 1 is_stmt 0 view .LVU960
 3499 00cc 2046     		mov	r0, r4
 3500 00ce 70BD     		pop	{r4, r5, r6, pc}
 3501              	.LVL247:
 3502              	.L269:
 3503              		.loc 1 2206 1 view .LVU961
 3504              		.align	2
 3505              	.L268:
 3506 00d0 00000000 		.word	.LANCHOR16
 3507 00d4 00000000 		.word	vPortEnterCritical
 3508 00d8 00000000 		.word	.LANCHOR9
 3509 00dc 00000000 		.word	.LANCHOR1
 3510 00e0 00000000 		.word	uxListRemove
 3511 00e4 00000000 		.word	.LANCHOR13
 3512 00e8 00000000 		.word	.LANCHOR4
 3513 00ec 00000000 		.word	vListInsertEnd
 3514 00f0 00000000 		.word	.LANCHOR10
 3515 00f4 00000000 		.word	.LANCHOR19
 3516 00f8 00000000 		.word	prvResetNextTaskUnblockTime
 3517 00fc 00000000 		.word	.LANCHOR18
 3518 0100 04ED00E0 		.word	-536810236
 3519 0104 00000000 		.word	xTaskIncrementTick
 3520 0108 00000000 		.word	vPortExitCritical
 3521              		.cfi_endproc
 3522              	.LFE22:
 3524              		.section	.text.vTaskDelayUntil,"ax",%progbits
 3525              		.align	1
 3526              		.global	vTaskDelayUntil
 3527              		.syntax unified
 3528              		.thumb
 3529              		.thumb_func
 3530              		.fpu softvfp
ARM GAS  C:\Users\38164\AppData\Local\Temp\ccm74k8u.s 			page 62


 3532              	vTaskDelayUntil:
 3533              	.LVL248:
 3534              	.LFB9:
 3535              		.loc 1 1199 2 is_stmt 1 view -0
 3536              		.cfi_startproc
 3537              		@ args = 0, pretend = 0, frame = 0
 3538              		@ frame_needed = 0, uses_anonymous_args = 0
 3539              		.loc 1 1199 2 is_stmt 0 view .LVU963
 3540 0000 38B5     		push	{r3, r4, r5, lr}
 3541              	.LCFI30:
 3542              		.cfi_def_cfa_offset 16
 3543              		.cfi_offset 3, -16
 3544              		.cfi_offset 4, -12
 3545              		.cfi_offset 5, -8
 3546              		.cfi_offset 14, -4
 3547              		.loc 1 1200 2 is_stmt 1 view .LVU964
 3548              		.loc 1 1201 2 view .LVU965
 3549              	.LVL249:
 3550              		.loc 1 1203 3 view .LVU966
 3551 0002 58B1     		cbz	r0, .L286
 3552 0004 0C46     		mov	r4, r1
 3553 0006 0546     		mov	r5, r0
 3554              		.loc 1 1203 37 discriminator 2 view .LVU967
 3555              		.loc 1 1204 3 discriminator 2 view .LVU968
 3556 0008 89B9     		cbnz	r1, .L273
 3557              		.loc 1 1204 3 view .LVU969
 3558              	.LBB168:
 3559              	.LBI168:
 3560              		.loc 2 191 30 view .LVU970
 3561              	.LBB169:
 3562              		.loc 2 193 1 view .LVU971
 3563              		.loc 2 195 2 view .LVU972
 3564              		.syntax unified
 3565              	@ 195 "Middlewares/Third_Party/FreeRTOS/Source/portable/GCC/ARM_CM3/portmacro.h" 1
 3566 000a 4FF05003 			mov r3, #80												
 3567 000e 83F31188 		msr basepri, r3											
 3568 0012 BFF36F8F 		isb														
 3569 0016 BFF34F8F 		dsb														
 3570              	
 3571              	@ 0 "" 2
 3572              	.LVL250:
 3573              		.thumb
 3574              		.syntax unified
 3575              	.L274:
 3576              		.loc 2 195 2 is_stmt 0 view .LVU973
 3577              	.LBE169:
 3578              	.LBE168:
 3579              		.loc 1 1204 3 is_stmt 1 discriminator 2 view .LVU974
 3580              		.loc 1 1204 3 discriminator 2 view .LVU975
 3581              		.loc 1 1204 3 discriminator 2 view .LVU976
 3582 001a FEE7     		b	.L274
 3583              	.L286:
 3584              		.loc 1 1203 3 view .LVU977
 3585              	.LBB170:
 3586              	.LBI170:
 3587              		.loc 2 191 30 view .LVU978
 3588              	.LBB171:
ARM GAS  C:\Users\38164\AppData\Local\Temp\ccm74k8u.s 			page 63


 3589              		.loc 2 193 1 view .LVU979
 3590              		.loc 2 195 2 view .LVU980
 3591              		.syntax unified
 3592              	@ 195 "Middlewares/Third_Party/FreeRTOS/Source/portable/GCC/ARM_CM3/portmacro.h" 1
 3593 001c 4FF05003 			mov r3, #80												
 3594 0020 83F31188 		msr basepri, r3											
 3595 0024 BFF36F8F 		isb														
 3596 0028 BFF34F8F 		dsb														
 3597              	
 3598              	@ 0 "" 2
 3599              	.LVL251:
 3600              		.thumb
 3601              		.syntax unified
 3602              	.L272:
 3603              		.loc 2 195 2 is_stmt 0 view .LVU981
 3604              	.LBE171:
 3605              	.LBE170:
 3606              		.loc 1 1203 3 is_stmt 1 discriminator 1 view .LVU982
 3607              		.loc 1 1203 3 discriminator 1 view .LVU983
 3608              		.loc 1 1203 3 discriminator 1 view .LVU984
 3609 002c FEE7     		b	.L272
 3610              	.L273:
 3611              		.loc 1 1204 42 discriminator 2 view .LVU985
 3612              		.loc 1 1205 3 discriminator 2 view .LVU986
 3613 002e 1A4B     		ldr	r3, .L287
 3614 0030 1B68     		ldr	r3, [r3]
 3615 0032 43B1     		cbz	r3, .L275
 3616              		.loc 1 1205 3 view .LVU987
 3617              	.LBB172:
 3618              	.LBI172:
 3619              		.loc 2 191 30 view .LVU988
 3620              	.LBB173:
 3621              		.loc 2 193 1 view .LVU989
 3622              		.loc 2 195 2 view .LVU990
 3623              		.syntax unified
 3624              	@ 195 "Middlewares/Third_Party/FreeRTOS/Source/portable/GCC/ARM_CM3/portmacro.h" 1
 3625 0034 4FF05003 			mov r3, #80												
 3626 0038 83F31188 		msr basepri, r3											
 3627 003c BFF36F8F 		isb														
 3628 0040 BFF34F8F 		dsb														
 3629              	
 3630              	@ 0 "" 2
 3631              	.LVL252:
 3632              		.thumb
 3633              		.syntax unified
 3634              	.L276:
 3635              		.loc 2 195 2 is_stmt 0 view .LVU991
 3636              	.LBE173:
 3637              	.LBE172:
 3638              		.loc 1 1205 3 is_stmt 1 discriminator 3 view .LVU992
 3639              		.loc 1 1205 3 discriminator 3 view .LVU993
 3640              		.loc 1 1205 3 discriminator 3 view .LVU994
 3641 0044 FEE7     		b	.L276
 3642              	.L275:
 3643              		.loc 1 1205 44 discriminator 2 view .LVU995
 3644              		.loc 1 1207 3 discriminator 2 view .LVU996
 3645 0046 154B     		ldr	r3, .L287+4
ARM GAS  C:\Users\38164\AppData\Local\Temp\ccm74k8u.s 			page 64


 3646 0048 9847     		blx	r3
 3647              	.LVL253:
 3648              	.LBB174:
 3649              		.loc 1 1211 4 discriminator 2 view .LVU997
 3650              		.loc 1 1211 21 is_stmt 0 discriminator 2 view .LVU998
 3651 004a 154B     		ldr	r3, .L287+8
 3652 004c 1868     		ldr	r0, [r3]
 3653              	.LVL254:
 3654              		.loc 1 1214 4 is_stmt 1 discriminator 2 view .LVU999
 3655              		.loc 1 1214 18 is_stmt 0 discriminator 2 view .LVU1000
 3656 004e 2A68     		ldr	r2, [r5]
 3657              		.loc 1 1214 16 discriminator 2 view .LVU1001
 3658 0050 1444     		add	r4, r4, r2
 3659              	.LVL255:
 3660              		.loc 1 1216 4 is_stmt 1 discriminator 2 view .LVU1002
 3661              		.loc 1 1216 6 is_stmt 0 discriminator 2 view .LVU1003
 3662 0052 8242     		cmp	r2, r0
 3663 0054 09D9     		bls	.L277
 3664              		.loc 1 1223 5 is_stmt 1 view .LVU1004
 3665              		.loc 1 1223 7 is_stmt 0 view .LVU1005
 3666 0056 A242     		cmp	r2, r4
 3667 0058 01D8     		bhi	.L278
 3668              		.loc 1 1248 4 is_stmt 1 view .LVU1006
 3669              		.loc 1 1248 24 is_stmt 0 view .LVU1007
 3670 005a 2C60     		str	r4, [r5]
 3671              		.loc 1 1250 4 is_stmt 1 view .LVU1008
 3672 005c 0EE0     		b	.L279
 3673              	.L278:
 3674              		.loc 1 1223 47 is_stmt 0 discriminator 1 view .LVU1009
 3675 005e A042     		cmp	r0, r4
 3676 0060 01D3     		bcc	.L280
 3677              		.loc 1 1248 4 is_stmt 1 view .LVU1010
 3678              		.loc 1 1248 24 is_stmt 0 view .LVU1011
 3679 0062 2C60     		str	r4, [r5]
 3680              		.loc 1 1250 4 is_stmt 1 view .LVU1012
 3681 0064 0AE0     		b	.L279
 3682              	.L280:
 3683              		.loc 1 1225 6 view .LVU1013
 3684              	.LVL256:
 3685              		.loc 1 1248 4 view .LVU1014
 3686              		.loc 1 1248 24 is_stmt 0 view .LVU1015
 3687 0066 2C60     		str	r4, [r5]
 3688              		.loc 1 1250 4 is_stmt 1 view .LVU1016
 3689 0068 04E0     		b	.L281
 3690              	.LVL257:
 3691              	.L277:
 3692              		.loc 1 1237 5 view .LVU1017
 3693              		.loc 1 1237 7 is_stmt 0 view .LVU1018
 3694 006a A242     		cmp	r2, r4
 3695 006c 01D8     		bhi	.L282
 3696              		.loc 1 1237 47 discriminator 1 view .LVU1019
 3697 006e A042     		cmp	r0, r4
 3698 0070 10D2     		bcs	.L283
 3699              	.L282:
 3700              		.loc 1 1239 6 is_stmt 1 view .LVU1020
 3701              	.LVL258:
 3702              		.loc 1 1248 4 view .LVU1021
ARM GAS  C:\Users\38164\AppData\Local\Temp\ccm74k8u.s 			page 65


 3703              		.loc 1 1248 24 is_stmt 0 view .LVU1022
 3704 0072 2C60     		str	r4, [r5]
 3705              		.loc 1 1250 4 is_stmt 1 view .LVU1023
 3706              	.L281:
 3707              		.loc 1 1252 41 view .LVU1024
 3708              		.loc 1 1256 5 view .LVU1025
 3709 0074 0021     		movs	r1, #0
 3710 0076 201A     		subs	r0, r4, r0
 3711              	.LVL259:
 3712              		.loc 1 1256 5 is_stmt 0 view .LVU1026
 3713 0078 0A4B     		ldr	r3, .L287+12
 3714 007a 9847     		blx	r3
 3715              	.LVL260:
 3716              	.L279:
 3717              		.loc 1 1260 29 is_stmt 1 view .LVU1027
 3718              	.LBE174:
 3719              		.loc 1 1263 3 view .LVU1028
 3720              		.loc 1 1263 21 is_stmt 0 view .LVU1029
 3721 007c 0A4B     		ldr	r3, .L287+16
 3722 007e 9847     		blx	r3
 3723              	.LVL261:
 3724              		.loc 1 1267 3 is_stmt 1 view .LVU1030
 3725              		.loc 1 1267 5 is_stmt 0 view .LVU1031
 3726 0080 38B9     		cbnz	r0, .L270
 3727              		.loc 1 1269 4 is_stmt 1 view .LVU1032
 3728 0082 0A4B     		ldr	r3, .L287+20
 3729 0084 4FF08052 		mov	r2, #268435456
 3730 0088 1A60     		str	r2, [r3]
 3731              		.loc 1 1269 4 view .LVU1033
 3732              		.syntax unified
 3733              	@ 1269 "Middlewares/Third_Party/FreeRTOS/Source/tasks.c" 1
 3734 008a BFF34F8F 		dsb
 3735              	@ 0 "" 2
 3736              		.loc 1 1269 4 view .LVU1034
 3737              	@ 1269 "Middlewares/Third_Party/FreeRTOS/Source/tasks.c" 1
 3738 008e BFF36F8F 		isb
 3739              	@ 0 "" 2
 3740              		.loc 1 1269 26 view .LVU1035
 3741              		.loc 1 1273 28 view .LVU1036
 3742              		.thumb
 3743              		.syntax unified
 3744              	.L270:
 3745              		.loc 1 1275 2 is_stmt 0 view .LVU1037
 3746 0092 38BD     		pop	{r3, r4, r5, pc}
 3747              	.LVL262:
 3748              	.L283:
 3749              	.LBB175:
 3750              		.loc 1 1248 4 is_stmt 1 view .LVU1038
 3751              		.loc 1 1248 24 is_stmt 0 view .LVU1039
 3752 0094 2C60     		str	r4, [r5]
 3753              		.loc 1 1250 4 is_stmt 1 view .LVU1040
 3754 0096 F1E7     		b	.L279
 3755              	.L288:
 3756              		.align	2
 3757              	.L287:
 3758 0098 00000000 		.word	.LANCHOR16
 3759 009c 00000000 		.word	vTaskSuspendAll
ARM GAS  C:\Users\38164\AppData\Local\Temp\ccm74k8u.s 			page 66


 3760 00a0 00000000 		.word	.LANCHOR15
 3761 00a4 00000000 		.word	prvAddCurrentTaskToDelayedList
 3762 00a8 00000000 		.word	xTaskResumeAll
 3763 00ac 04ED00E0 		.word	-536810236
 3764              	.LBE175:
 3765              		.cfi_endproc
 3766              	.LFE9:
 3768              		.section	.text.vTaskDelay,"ax",%progbits
 3769              		.align	1
 3770              		.global	vTaskDelay
 3771              		.syntax unified
 3772              		.thumb
 3773              		.thumb_func
 3774              		.fpu softvfp
 3776              	vTaskDelay:
 3777              	.LVL263:
 3778              	.LFB10:
 3779              		.loc 1 1283 2 view -0
 3780              		.cfi_startproc
 3781              		@ args = 0, pretend = 0, frame = 0
 3782              		@ frame_needed = 0, uses_anonymous_args = 0
 3783              		.loc 1 1283 2 is_stmt 0 view .LVU1042
 3784 0000 10B5     		push	{r4, lr}
 3785              	.LCFI31:
 3786              		.cfi_def_cfa_offset 8
 3787              		.cfi_offset 4, -8
 3788              		.cfi_offset 14, -4
 3789              		.loc 1 1284 2 is_stmt 1 view .LVU1043
 3790              	.LVL264:
 3791              		.loc 1 1287 3 view .LVU1044
 3792              		.loc 1 1287 5 is_stmt 0 view .LVU1045
 3793 0002 A8B1     		cbz	r0, .L290
 3794 0004 0446     		mov	r4, r0
 3795              		.loc 1 1289 4 is_stmt 1 view .LVU1046
 3796 0006 0F4B     		ldr	r3, .L295
 3797 0008 1B68     		ldr	r3, [r3]
 3798 000a 43B1     		cbz	r3, .L291
 3799              		.loc 1 1289 4 view .LVU1047
 3800              	.LBB176:
 3801              	.LBI176:
 3802              		.loc 2 191 30 view .LVU1048
 3803              	.LBB177:
 3804              		.loc 2 193 1 view .LVU1049
 3805              		.loc 2 195 2 view .LVU1050
 3806              		.syntax unified
 3807              	@ 195 "Middlewares/Third_Party/FreeRTOS/Source/portable/GCC/ARM_CM3/portmacro.h" 1
 3808 000c 4FF05003 			mov r3, #80												
 3809 0010 83F31188 		msr basepri, r3											
 3810 0014 BFF36F8F 		isb														
 3811 0018 BFF34F8F 		dsb														
 3812              	
 3813              	@ 0 "" 2
 3814              	.LVL265:
 3815              		.thumb
 3816              		.syntax unified
 3817              	.L292:
 3818              		.loc 2 195 2 is_stmt 0 view .LVU1051
ARM GAS  C:\Users\38164\AppData\Local\Temp\ccm74k8u.s 			page 67


 3819              	.LBE177:
 3820              	.LBE176:
 3821              		.loc 1 1289 4 is_stmt 1 discriminator 1 view .LVU1052
 3822              		.loc 1 1289 4 discriminator 1 view .LVU1053
 3823              		.loc 1 1289 4 discriminator 1 view .LVU1054
 3824 001c FEE7     		b	.L292
 3825              	.L291:
 3826              		.loc 1 1289 45 discriminator 2 view .LVU1055
 3827              		.loc 1 1290 4 discriminator 2 view .LVU1056
 3828 001e 0A4B     		ldr	r3, .L295+4
 3829 0020 9847     		blx	r3
 3830              	.LVL266:
 3831              		.loc 1 1292 22 discriminator 2 view .LVU1057
 3832              		.loc 1 1301 5 discriminator 2 view .LVU1058
 3833 0022 0021     		movs	r1, #0
 3834 0024 2046     		mov	r0, r4
 3835 0026 094B     		ldr	r3, .L295+8
 3836 0028 9847     		blx	r3
 3837              	.LVL267:
 3838              		.loc 1 1303 4 discriminator 2 view .LVU1059
 3839              		.loc 1 1303 22 is_stmt 0 discriminator 2 view .LVU1060
 3840 002a 094B     		ldr	r3, .L295+12
 3841 002c 9847     		blx	r3
 3842              	.LVL268:
 3843              		.loc 1 1307 28 is_stmt 1 discriminator 2 view .LVU1061
 3844              		.loc 1 1312 3 discriminator 2 view .LVU1062
 3845              		.loc 1 1312 5 is_stmt 0 discriminator 2 view .LVU1063
 3846 002e 38B9     		cbnz	r0, .L289
 3847              	.LVL269:
 3848              	.L290:
 3849              		.loc 1 1314 4 is_stmt 1 view .LVU1064
 3850 0030 084B     		ldr	r3, .L295+16
 3851 0032 4FF08052 		mov	r2, #268435456
 3852 0036 1A60     		str	r2, [r3]
 3853              		.loc 1 1314 4 view .LVU1065
 3854              		.syntax unified
 3855              	@ 1314 "Middlewares/Third_Party/FreeRTOS/Source/tasks.c" 1
 3856 0038 BFF34F8F 		dsb
 3857              	@ 0 "" 2
 3858              		.loc 1 1314 4 view .LVU1066
 3859              	@ 1314 "Middlewares/Third_Party/FreeRTOS/Source/tasks.c" 1
 3860 003c BFF36F8F 		isb
 3861              	@ 0 "" 2
 3862              		.loc 1 1314 26 view .LVU1067
 3863              		.loc 1 1318 28 view .LVU1068
 3864              		.thumb
 3865              		.syntax unified
 3866              	.L289:
 3867              		.loc 1 1320 2 is_stmt 0 view .LVU1069
 3868 0040 10BD     		pop	{r4, pc}
 3869              	.L296:
 3870 0042 00BF     		.align	2
 3871              	.L295:
 3872 0044 00000000 		.word	.LANCHOR16
 3873 0048 00000000 		.word	vTaskSuspendAll
 3874 004c 00000000 		.word	prvAddCurrentTaskToDelayedList
 3875 0050 00000000 		.word	xTaskResumeAll
ARM GAS  C:\Users\38164\AppData\Local\Temp\ccm74k8u.s 			page 68


 3876 0054 04ED00E0 		.word	-536810236
 3877              		.cfi_endproc
 3878              	.LFE10:
 3880              		.section	.text.vTaskSwitchContext,"ax",%progbits
 3881              		.align	1
 3882              		.global	vTaskSwitchContext
 3883              		.syntax unified
 3884              		.thumb
 3885              		.thumb_func
 3886              		.fpu softvfp
 3888              	vTaskSwitchContext:
 3889              	.LFB29:
 3890              		.loc 1 2846 1 is_stmt 1 view -0
 3891              		.cfi_startproc
 3892              		@ args = 0, pretend = 0, frame = 0
 3893              		@ frame_needed = 0, uses_anonymous_args = 0
 3894              		@ link register save eliminated.
 3895              		.loc 1 2847 2 view .LVU1071
 3896              		.loc 1 2847 27 is_stmt 0 view .LVU1072
 3897 0000 1F4B     		ldr	r3, .L312
 3898 0002 1B68     		ldr	r3, [r3]
 3899              		.loc 1 2847 4 view .LVU1073
 3900 0004 1BB1     		cbz	r3, .L298
 3901              		.loc 1 2851 3 is_stmt 1 view .LVU1074
 3902              		.loc 1 2851 17 is_stmt 0 view .LVU1075
 3903 0006 1F4B     		ldr	r3, .L312+4
 3904 0008 0122     		movs	r2, #1
 3905 000a 1A60     		str	r2, [r3]
 3906 000c 7047     		bx	lr
 3907              	.L298:
 3908              		.loc 1 2855 3 is_stmt 1 view .LVU1076
 3909              		.loc 1 2855 17 is_stmt 0 view .LVU1077
 3910 000e 1D4B     		ldr	r3, .L312+4
 3911 0010 0022     		movs	r2, #0
 3912 0012 1A60     		str	r2, [r3]
 3913              		.loc 1 2856 27 is_stmt 1 view .LVU1078
 3914              		.loc 1 2886 33 view .LVU1079
 3915              	.LBB178:
 3916              		.loc 1 2890 3 view .LVU1080
 3917 0014 1C4B     		ldr	r3, .L312+8
 3918 0016 1B68     		ldr	r3, [r3]
 3919              	.LVL270:
 3920              		.loc 1 2890 3 view .LVU1081
 3921              	.L300:
 3922              		.loc 1 2890 3 discriminator 5 view .LVU1082
 3923 0018 03EB8301 		add	r1, r3, r3, lsl #2
 3924 001c 8A00     		lsls	r2, r1, #2
 3925 001e 1B49     		ldr	r1, .L312+12
 3926 0020 8A58     		ldr	r2, [r1, r2]
 3927 0022 5AB9     		cbnz	r2, .L309
 3928              		.loc 1 2890 3 discriminator 6 view .LVU1083
 3929 0024 0BB1     		cbz	r3, .L310
 3930              		.loc 1 2890 3 discriminator 3 view .LVU1084
 3931              		.loc 1 2890 3 discriminator 3 view .LVU1085
 3932 0026 013B     		subs	r3, r3, #1
 3933              	.LVL271:
 3934              		.loc 1 2890 3 is_stmt 0 discriminator 3 view .LVU1086
ARM GAS  C:\Users\38164\AppData\Local\Temp\ccm74k8u.s 			page 69


 3935 0028 F6E7     		b	.L300
 3936              	.L310:
 3937              		.loc 1 2890 3 is_stmt 1 view .LVU1087
 3938              	.LBB179:
 3939              	.LBI179:
 3940              		.loc 2 191 30 view .LVU1088
 3941              	.LBB180:
 3942              		.loc 2 193 1 view .LVU1089
 3943              		.loc 2 195 2 view .LVU1090
 3944              		.syntax unified
 3945              	@ 195 "Middlewares/Third_Party/FreeRTOS/Source/portable/GCC/ARM_CM3/portmacro.h" 1
 3946 002a 4FF05003 			mov r3, #80												
 3947 002e 83F31188 		msr basepri, r3											
 3948 0032 BFF36F8F 		isb														
 3949 0036 BFF34F8F 		dsb														
 3950              	
 3951              	@ 0 "" 2
 3952              	.LVL272:
 3953              		.thumb
 3954              		.syntax unified
 3955              	.L302:
 3956              		.loc 2 195 2 is_stmt 0 view .LVU1091
 3957              	.LBE180:
 3958              	.LBE179:
 3959              		.loc 1 2890 3 is_stmt 1 discriminator 1 view .LVU1092
 3960              		.loc 1 2890 3 discriminator 1 view .LVU1093
 3961              		.loc 1 2890 3 discriminator 1 view .LVU1094
 3962 003a FEE7     		b	.L302
 3963              	.LVL273:
 3964              	.L309:
 3965              		.loc 1 2890 3 is_stmt 0 discriminator 1 view .LVU1095
 3966              	.LBE178:
 3967              		.loc 1 2846 1 discriminator 7 view .LVU1096
 3968 003c 10B4     		push	{r4}
 3969              	.LCFI32:
 3970              		.cfi_def_cfa_offset 4
 3971              		.cfi_offset 4, -4
 3972              	.LBB183:
 3973              	.LBB181:
 3974              		.loc 1 2890 3 is_stmt 1 discriminator 7 view .LVU1097
 3975              	.LVL274:
 3976              		.loc 1 2890 3 discriminator 7 view .LVU1098
 3977 003e 03EB8300 		add	r0, r3, r3, lsl #2
 3978 0042 8200     		lsls	r2, r0, #2
 3979 0044 0A44     		add	r2, r2, r1
 3980 0046 5068     		ldr	r0, [r2, #4]
 3981 0048 4068     		ldr	r0, [r0, #4]
 3982 004a 5060     		str	r0, [r2, #4]
 3983              		.loc 1 2890 3 discriminator 7 view .LVU1099
 3984 004c 03EB8304 		add	r4, r3, r3, lsl #2
 3985 0050 A200     		lsls	r2, r4, #2
 3986 0052 1446     		mov	r4, r2
 3987 0054 0832     		adds	r2, r2, #8
 3988 0056 1144     		add	r1, r1, r2
 3989 0058 8842     		cmp	r0, r1
 3990 005a 0CD0     		beq	.L311
 3991              	.L304:
ARM GAS  C:\Users\38164\AppData\Local\Temp\ccm74k8u.s 			page 70


 3992              		.loc 1 2890 3 discriminator 10 view .LVU1100
 3993 005c 03EB8302 		add	r2, r3, r3, lsl #2
 3994 0060 9100     		lsls	r1, r2, #2
 3995 0062 0A4A     		ldr	r2, .L312+12
 3996 0064 0A44     		add	r2, r2, r1
 3997 0066 5268     		ldr	r2, [r2, #4]
 3998 0068 D168     		ldr	r1, [r2, #12]
 3999 006a 094A     		ldr	r2, .L312+16
 4000 006c 1160     		str	r1, [r2]
 4001              	.LBE181:
 4002              		.loc 1 2890 3 discriminator 10 view .LVU1101
 4003              		.loc 1 2890 3 discriminator 10 view .LVU1102
 4004 006e 064A     		ldr	r2, .L312+8
 4005 0070 1360     		str	r3, [r2]
 4006              	.LBE183:
 4007              		.loc 1 2890 37 discriminator 10 view .LVU1103
 4008              		.loc 1 2891 26 discriminator 10 view .LVU1104
 4009              		.loc 1 2901 1 is_stmt 0 discriminator 10 view .LVU1105
 4010 0072 10BC     		pop	{r4}
 4011              	.LCFI33:
 4012              		.cfi_remember_state
 4013              		.cfi_restore 4
 4014              		.cfi_def_cfa_offset 0
 4015 0074 7047     		bx	lr
 4016              	.L311:
 4017              	.LCFI34:
 4018              		.cfi_restore_state
 4019              	.LBB184:
 4020              	.LBB182:
 4021              		.loc 1 2890 3 is_stmt 1 discriminator 8 view .LVU1106
 4022 0076 4068     		ldr	r0, [r0, #4]
 4023 0078 044A     		ldr	r2, .L312+12
 4024 007a 2244     		add	r2, r2, r4
 4025 007c 5060     		str	r0, [r2, #4]
 4026 007e EDE7     		b	.L304
 4027              	.L313:
 4028              		.align	2
 4029              	.L312:
 4030 0080 00000000 		.word	.LANCHOR16
 4031 0084 00000000 		.word	.LANCHOR19
 4032 0088 00000000 		.word	.LANCHOR13
 4033 008c 00000000 		.word	.LANCHOR4
 4034 0090 00000000 		.word	.LANCHOR10
 4035              	.LBE182:
 4036              	.LBE184:
 4037              		.cfi_endproc
 4038              	.LFE29:
 4040              		.section	.text.vTaskSuspend,"ax",%progbits
 4041              		.align	1
 4042              		.global	vTaskSuspend
 4043              		.syntax unified
 4044              		.thumb
 4045              		.thumb_func
 4046              		.fpu softvfp
 4048              	vTaskSuspend:
 4049              	.LVL275:
 4050              	.LFB15:
ARM GAS  C:\Users\38164\AppData\Local\Temp\ccm74k8u.s 			page 71


 4051              		.loc 1 1625 2 view -0
 4052              		.cfi_startproc
 4053              		@ args = 0, pretend = 0, frame = 0
 4054              		@ frame_needed = 0, uses_anonymous_args = 0
 4055              		.loc 1 1625 2 is_stmt 0 view .LVU1108
 4056 0000 38B5     		push	{r3, r4, r5, lr}
 4057              	.LCFI35:
 4058              		.cfi_def_cfa_offset 16
 4059              		.cfi_offset 3, -16
 4060              		.cfi_offset 4, -12
 4061              		.cfi_offset 5, -8
 4062              		.cfi_offset 14, -4
 4063 0002 0446     		mov	r4, r0
 4064              		.loc 1 1626 2 is_stmt 1 view .LVU1109
 4065              		.loc 1 1628 3 view .LVU1110
 4066 0004 294B     		ldr	r3, .L329
 4067 0006 9847     		blx	r3
 4068              	.LVL276:
 4069              		.loc 1 1632 4 view .LVU1111
 4070              		.loc 1 1632 12 is_stmt 0 view .LVU1112
 4071 0008 E4B1     		cbz	r4, .L325
 4072              	.LVL277:
 4073              	.L315:
 4074              		.loc 1 1634 30 is_stmt 1 discriminator 4 view .LVU1113
 4075              		.loc 1 1638 4 discriminator 4 view .LVU1114
 4076              		.loc 1 1638 8 is_stmt 0 discriminator 4 view .LVU1115
 4077 000a 251D     		adds	r5, r4, #4
 4078 000c 2846     		mov	r0, r5
 4079 000e 284B     		ldr	r3, .L329+4
 4080 0010 9847     		blx	r3
 4081              	.LVL278:
 4082              		.loc 1 1644 29 is_stmt 1 discriminator 4 view .LVU1116
 4083              		.loc 1 1648 4 discriminator 4 view .LVU1117
 4084              		.loc 1 1648 8 is_stmt 0 discriminator 4 view .LVU1118
 4085 0012 A36A     		ldr	r3, [r4, #40]
 4086              		.loc 1 1648 6 discriminator 4 view .LVU1119
 4087 0014 1BB1     		cbz	r3, .L316
 4088              		.loc 1 1650 5 is_stmt 1 view .LVU1120
 4089              		.loc 1 1650 14 is_stmt 0 view .LVU1121
 4090 0016 04F11800 		add	r0, r4, #24
 4091 001a 254B     		ldr	r3, .L329+4
 4092 001c 9847     		blx	r3
 4093              	.LVL279:
 4094              	.L316:
 4095              		.loc 1 1654 29 is_stmt 1 view .LVU1122
 4096              		.loc 1 1657 4 view .LVU1123
 4097 001e 2946     		mov	r1, r5
 4098 0020 2448     		ldr	r0, .L329+8
 4099 0022 254B     		ldr	r3, .L329+12
 4100 0024 9847     		blx	r3
 4101              	.LVL280:
 4102              		.loc 1 1661 5 view .LVU1124
 4103              		.loc 1 1661 14 is_stmt 0 view .LVU1125
 4104 0026 94F85830 		ldrb	r3, [r4, #88]	@ zero_extendqisi2
 4105 002a DBB2     		uxtb	r3, r3
 4106              		.loc 1 1661 7 view .LVU1126
 4107 002c 012B     		cmp	r3, #1
ARM GAS  C:\Users\38164\AppData\Local\Temp\ccm74k8u.s 			page 72


 4108 002e 0CD0     		beq	.L326
 4109              	.L317:
 4110              		.loc 1 1670 3 is_stmt 1 view .LVU1127
 4111 0030 224B     		ldr	r3, .L329+16
 4112 0032 9847     		blx	r3
 4113              	.LVL281:
 4114              		.loc 1 1672 3 view .LVU1128
 4115              		.loc 1 1672 25 is_stmt 0 view .LVU1129
 4116 0034 224B     		ldr	r3, .L329+20
 4117 0036 1B68     		ldr	r3, [r3]
 4118              		.loc 1 1672 5 view .LVU1130
 4119 0038 5BB9     		cbnz	r3, .L327
 4120              	.L318:
 4121              		.loc 1 1684 28 is_stmt 1 view .LVU1131
 4122              		.loc 1 1687 3 view .LVU1132
 4123              		.loc 1 1687 13 is_stmt 0 view .LVU1133
 4124 003a 224B     		ldr	r3, .L329+24
 4125 003c 1B68     		ldr	r3, [r3]
 4126              		.loc 1 1687 5 view .LVU1134
 4127 003e A342     		cmp	r3, r4
 4128 0040 0ED0     		beq	.L328
 4129              	.L314:
 4130              		.loc 1 1718 2 view .LVU1135
 4131 0042 38BD     		pop	{r3, r4, r5, pc}
 4132              	.LVL282:
 4133              	.L325:
 4134              		.loc 1 1632 12 discriminator 1 view .LVU1136
 4135 0044 1F4B     		ldr	r3, .L329+24
 4136 0046 1C68     		ldr	r4, [r3]
 4137              	.LVL283:
 4138              		.loc 1 1632 12 discriminator 1 view .LVU1137
 4139 0048 DFE7     		b	.L315
 4140              	.LVL284:
 4141              	.L326:
 4142              		.loc 1 1665 6 is_stmt 1 view .LVU1138
 4143              		.loc 1 1665 27 is_stmt 0 view .LVU1139
 4144 004a 0023     		movs	r3, #0
 4145 004c 84F85830 		strb	r3, [r4, #88]
 4146 0050 EEE7     		b	.L317
 4147              	.L327:
 4148              		.loc 1 1676 4 is_stmt 1 view .LVU1140
 4149 0052 164B     		ldr	r3, .L329
 4150 0054 9847     		blx	r3
 4151              	.LVL285:
 4152              		.loc 1 1678 5 view .LVU1141
 4153 0056 1C4B     		ldr	r3, .L329+28
 4154 0058 9847     		blx	r3
 4155              	.LVL286:
 4156              		.loc 1 1680 4 view .LVU1142
 4157 005a 184B     		ldr	r3, .L329+16
 4158 005c 9847     		blx	r3
 4159              	.LVL287:
 4160 005e ECE7     		b	.L318
 4161              	.L328:
 4162              		.loc 1 1689 4 view .LVU1143
 4163              		.loc 1 1689 26 is_stmt 0 view .LVU1144
 4164 0060 174B     		ldr	r3, .L329+20
ARM GAS  C:\Users\38164\AppData\Local\Temp\ccm74k8u.s 			page 73


 4165 0062 1B68     		ldr	r3, [r3]
 4166              		.loc 1 1689 6 view .LVU1145
 4167 0064 A3B1     		cbz	r3, .L320
 4168              		.loc 1 1692 5 is_stmt 1 view .LVU1146
 4169 0066 194B     		ldr	r3, .L329+32
 4170 0068 1B68     		ldr	r3, [r3]
 4171 006a 43B1     		cbz	r3, .L321
 4172              		.loc 1 1692 5 view .LVU1147
 4173              	.LBB185:
 4174              	.LBI185:
 4175              		.loc 2 191 30 view .LVU1148
 4176              	.LBB186:
 4177              		.loc 2 193 1 view .LVU1149
 4178              		.loc 2 195 2 view .LVU1150
 4179              		.syntax unified
 4180              	@ 195 "Middlewares/Third_Party/FreeRTOS/Source/portable/GCC/ARM_CM3/portmacro.h" 1
 4181 006c 4FF05003 			mov r3, #80												
 4182 0070 83F31188 		msr basepri, r3											
 4183 0074 BFF36F8F 		isb														
 4184 0078 BFF34F8F 		dsb														
 4185              	
 4186              	@ 0 "" 2
 4187              	.LVL288:
 4188              		.thumb
 4189              		.syntax unified
 4190              	.L322:
 4191              		.loc 2 195 2 is_stmt 0 view .LVU1151
 4192              	.LBE186:
 4193              	.LBE185:
 4194              		.loc 1 1692 5 is_stmt 1 discriminator 1 view .LVU1152
 4195              		.loc 1 1692 5 discriminator 1 view .LVU1153
 4196              		.loc 1 1692 5 discriminator 1 view .LVU1154
 4197 007c FEE7     		b	.L322
 4198              	.L321:
 4199              		.loc 1 1692 46 discriminator 2 view .LVU1155
 4200              		.loc 1 1693 5 discriminator 2 view .LVU1156
 4201 007e 144B     		ldr	r3, .L329+36
 4202 0080 4FF08052 		mov	r2, #268435456
 4203 0084 1A60     		str	r2, [r3]
 4204              		.loc 1 1693 5 discriminator 2 view .LVU1157
 4205              		.syntax unified
 4206              	@ 1693 "Middlewares/Third_Party/FreeRTOS/Source/tasks.c" 1
 4207 0086 BFF34F8F 		dsb
 4208              	@ 0 "" 2
 4209              		.loc 1 1693 5 discriminator 2 view .LVU1158
 4210              	@ 1693 "Middlewares/Third_Party/FreeRTOS/Source/tasks.c" 1
 4211 008a BFF36F8F 		isb
 4212              	@ 0 "" 2
 4213              		.loc 1 1693 27 discriminator 2 view .LVU1159
 4214              		.thumb
 4215              		.syntax unified
 4216 008e D8E7     		b	.L314
 4217              	.L320:
 4218              		.loc 1 1700 5 view .LVU1160
 4219              		.loc 1 1700 9 is_stmt 0 view .LVU1161
 4220 0090 084B     		ldr	r3, .L329+8
 4221 0092 1A68     		ldr	r2, [r3]
ARM GAS  C:\Users\38164\AppData\Local\Temp\ccm74k8u.s 			page 74


 4222              		.loc 1 1700 56 view .LVU1162
 4223 0094 0F4B     		ldr	r3, .L329+40
 4224 0096 1B68     		ldr	r3, [r3]
 4225              		.loc 1 1700 7 view .LVU1163
 4226 0098 9A42     		cmp	r2, r3
 4227 009a 03D1     		bne	.L323
 4228              		.loc 1 1706 6 is_stmt 1 view .LVU1164
 4229              		.loc 1 1706 19 is_stmt 0 view .LVU1165
 4230 009c 094B     		ldr	r3, .L329+24
 4231 009e 0022     		movs	r2, #0
 4232 00a0 1A60     		str	r2, [r3]
 4233 00a2 CEE7     		b	.L314
 4234              	.L323:
 4235              		.loc 1 1710 6 is_stmt 1 view .LVU1166
 4236 00a4 0C4B     		ldr	r3, .L329+44
 4237 00a6 9847     		blx	r3
 4238              	.LVL289:
 4239              		.loc 1 1716 28 view .LVU1167
 4240              		.loc 1 1718 2 is_stmt 0 view .LVU1168
 4241 00a8 CBE7     		b	.L314
 4242              	.L330:
 4243 00aa 00BF     		.align	2
 4244              	.L329:
 4245 00ac 00000000 		.word	vPortEnterCritical
 4246 00b0 00000000 		.word	uxListRemove
 4247 00b4 00000000 		.word	.LANCHOR0
 4248 00b8 00000000 		.word	vListInsertEnd
 4249 00bc 00000000 		.word	vPortExitCritical
 4250 00c0 00000000 		.word	.LANCHOR11
 4251 00c4 00000000 		.word	.LANCHOR10
 4252 00c8 00000000 		.word	prvResetNextTaskUnblockTime
 4253 00cc 00000000 		.word	.LANCHOR16
 4254 00d0 04ED00E0 		.word	-536810236
 4255 00d4 00000000 		.word	.LANCHOR9
 4256 00d8 00000000 		.word	vTaskSwitchContext
 4257              		.cfi_endproc
 4258              	.LFE15:
 4260              		.section	.text.vTaskPlaceOnEventList,"ax",%progbits
 4261              		.align	1
 4262              		.global	vTaskPlaceOnEventList
 4263              		.syntax unified
 4264              		.thumb
 4265              		.thumb_func
 4266              		.fpu softvfp
 4268              	vTaskPlaceOnEventList:
 4269              	.LVL290:
 4270              	.LFB30:
 4271              		.loc 1 2905 1 is_stmt 1 view -0
 4272              		.cfi_startproc
 4273              		@ args = 0, pretend = 0, frame = 0
 4274              		@ frame_needed = 0, uses_anonymous_args = 0
 4275              		.loc 1 2906 2 view .LVU1170
 4276 0000 58B1     		cbz	r0, .L336
 4277              		.loc 1 2905 1 is_stmt 0 discriminator 2 view .LVU1171
 4278 0002 10B5     		push	{r4, lr}
 4279              	.LCFI36:
 4280              		.cfi_def_cfa_offset 8
ARM GAS  C:\Users\38164\AppData\Local\Temp\ccm74k8u.s 			page 75


 4281              		.cfi_offset 4, -8
 4282              		.cfi_offset 14, -4
 4283 0004 0C46     		mov	r4, r1
 4284              		.loc 1 2906 29 is_stmt 1 discriminator 2 view .LVU1172
 4285              		.loc 1 2915 2 discriminator 2 view .LVU1173
 4286              		.loc 1 2915 43 is_stmt 0 discriminator 2 view .LVU1174
 4287 0006 094B     		ldr	r3, .L337
 4288 0008 1968     		ldr	r1, [r3]
 4289              	.LVL291:
 4290              		.loc 1 2915 2 discriminator 2 view .LVU1175
 4291 000a 1831     		adds	r1, r1, #24
 4292 000c 084B     		ldr	r3, .L337+4
 4293 000e 9847     		blx	r3
 4294              	.LVL292:
 4295              		.loc 1 2917 2 is_stmt 1 discriminator 2 view .LVU1176
 4296 0010 0121     		movs	r1, #1
 4297 0012 2046     		mov	r0, r4
 4298 0014 074B     		ldr	r3, .L337+8
 4299 0016 9847     		blx	r3
 4300              	.LVL293:
 4301              		.loc 1 2918 1 is_stmt 0 discriminator 2 view .LVU1177
 4302 0018 10BD     		pop	{r4, pc}
 4303              	.LVL294:
 4304              	.L336:
 4305              	.LCFI37:
 4306              		.cfi_def_cfa_offset 0
 4307              		.cfi_restore 4
 4308              		.cfi_restore 14
 4309              		.loc 1 2906 2 is_stmt 1 view .LVU1178
 4310              	.LBB187:
 4311              	.LBI187:
 4312              		.loc 2 191 30 view .LVU1179
 4313              	.LBB188:
 4314              		.loc 2 193 1 view .LVU1180
 4315              		.loc 2 195 2 view .LVU1181
 4316              		.syntax unified
 4317              	@ 195 "Middlewares/Third_Party/FreeRTOS/Source/portable/GCC/ARM_CM3/portmacro.h" 1
 4318 001a 4FF05003 			mov r3, #80												
 4319 001e 83F31188 		msr basepri, r3											
 4320 0022 BFF36F8F 		isb														
 4321 0026 BFF34F8F 		dsb														
 4322              	
 4323              	@ 0 "" 2
 4324              	.LVL295:
 4325              		.thumb
 4326              		.syntax unified
 4327              	.L333:
 4328              		.loc 2 195 2 is_stmt 0 view .LVU1182
 4329              	.LBE188:
 4330              	.LBE187:
 4331              		.loc 1 2906 2 is_stmt 1 discriminator 1 view .LVU1183
 4332              		.loc 1 2906 2 discriminator 1 view .LVU1184
 4333              		.loc 1 2906 2 discriminator 1 view .LVU1185
 4334 002a FEE7     		b	.L333
 4335              	.L338:
 4336              		.align	2
 4337              	.L337:
ARM GAS  C:\Users\38164\AppData\Local\Temp\ccm74k8u.s 			page 76


 4338 002c 00000000 		.word	.LANCHOR10
 4339 0030 00000000 		.word	vListInsert
 4340 0034 00000000 		.word	prvAddCurrentTaskToDelayedList
 4341              		.cfi_endproc
 4342              	.LFE30:
 4344              		.section	.text.vTaskPlaceOnUnorderedEventList,"ax",%progbits
 4345              		.align	1
 4346              		.global	vTaskPlaceOnUnorderedEventList
 4347              		.syntax unified
 4348              		.thumb
 4349              		.thumb_func
 4350              		.fpu softvfp
 4352              	vTaskPlaceOnUnorderedEventList:
 4353              	.LVL296:
 4354              	.LFB31:
 4355              		.loc 1 2922 1 view -0
 4356              		.cfi_startproc
 4357              		@ args = 0, pretend = 0, frame = 0
 4358              		@ frame_needed = 0, uses_anonymous_args = 0
 4359              		.loc 1 2922 1 is_stmt 0 view .LVU1187
 4360 0000 38B5     		push	{r3, r4, r5, lr}
 4361              	.LCFI38:
 4362              		.cfi_def_cfa_offset 16
 4363              		.cfi_offset 3, -16
 4364              		.cfi_offset 4, -12
 4365              		.cfi_offset 5, -8
 4366              		.cfi_offset 14, -4
 4367              		.loc 1 2923 2 is_stmt 1 view .LVU1188
 4368 0002 68B1     		cbz	r0, .L345
 4369 0004 0B46     		mov	r3, r1
 4370 0006 1446     		mov	r4, r2
 4371              		.loc 1 2923 29 discriminator 2 view .LVU1189
 4372              		.loc 1 2927 2 discriminator 2 view .LVU1190
 4373 0008 114A     		ldr	r2, .L346
 4374              	.LVL297:
 4375              		.loc 1 2927 2 is_stmt 0 discriminator 2 view .LVU1191
 4376 000a 1268     		ldr	r2, [r2]
 4377 000c 8AB9     		cbnz	r2, .L342
 4378              		.loc 1 2927 2 is_stmt 1 view .LVU1192
 4379              	.LBB189:
 4380              	.LBI189:
 4381              		.loc 2 191 30 view .LVU1193
 4382              	.LBB190:
 4383              		.loc 2 193 1 view .LVU1194
 4384              		.loc 2 195 2 view .LVU1195
 4385              		.syntax unified
 4386              	@ 195 "Middlewares/Third_Party/FreeRTOS/Source/portable/GCC/ARM_CM3/portmacro.h" 1
 4387 000e 4FF05003 			mov r3, #80												
 4388 0012 83F31188 		msr basepri, r3											
 4389 0016 BFF36F8F 		isb														
 4390 001a BFF34F8F 		dsb														
 4391              	
 4392              	@ 0 "" 2
 4393              	.LVL298:
 4394              		.thumb
 4395              		.syntax unified
 4396              	.L343:
ARM GAS  C:\Users\38164\AppData\Local\Temp\ccm74k8u.s 			page 77


 4397              		.loc 2 195 2 is_stmt 0 view .LVU1196
 4398              	.LBE190:
 4399              	.LBE189:
 4400              		.loc 1 2927 2 is_stmt 1 discriminator 2 view .LVU1197
 4401              		.loc 1 2927 2 discriminator 2 view .LVU1198
 4402              		.loc 1 2927 2 discriminator 2 view .LVU1199
 4403 001e FEE7     		b	.L343
 4404              	.LVL299:
 4405              	.L345:
 4406              		.loc 1 2923 2 view .LVU1200
 4407              	.LBB191:
 4408              	.LBI191:
 4409              		.loc 2 191 30 view .LVU1201
 4410              	.LBB192:
 4411              		.loc 2 193 1 view .LVU1202
 4412              		.loc 2 195 2 view .LVU1203
 4413              		.syntax unified
 4414              	@ 195 "Middlewares/Third_Party/FreeRTOS/Source/portable/GCC/ARM_CM3/portmacro.h" 1
 4415 0020 4FF05003 			mov r3, #80												
 4416 0024 83F31188 		msr basepri, r3											
 4417 0028 BFF36F8F 		isb														
 4418 002c BFF34F8F 		dsb														
 4419              	
 4420              	@ 0 "" 2
 4421              	.LVL300:
 4422              		.thumb
 4423              		.syntax unified
 4424              	.L341:
 4425              		.loc 2 195 2 is_stmt 0 view .LVU1204
 4426              	.LBE192:
 4427              	.LBE191:
 4428              		.loc 1 2923 2 is_stmt 1 discriminator 1 view .LVU1205
 4429              		.loc 1 2923 2 discriminator 1 view .LVU1206
 4430              		.loc 1 2923 2 discriminator 1 view .LVU1207
 4431 0030 FEE7     		b	.L341
 4432              	.LVL301:
 4433              	.L342:
 4434              		.loc 1 2927 43 discriminator 2 view .LVU1208
 4435              		.loc 1 2932 2 discriminator 2 view .LVU1209
 4436 0032 084A     		ldr	r2, .L346+4
 4437 0034 1168     		ldr	r1, [r2]
 4438              	.LVL302:
 4439              		.loc 1 2932 2 is_stmt 0 discriminator 2 view .LVU1210
 4440 0036 43F00043 		orr	r3, r3, #-2147483648
 4441              	.LVL303:
 4442              		.loc 1 2932 2 discriminator 2 view .LVU1211
 4443 003a 8B61     		str	r3, [r1, #24]
 4444              		.loc 1 2939 2 is_stmt 1 discriminator 2 view .LVU1212
 4445              		.loc 1 2939 46 is_stmt 0 discriminator 2 view .LVU1213
 4446 003c 1168     		ldr	r1, [r2]
 4447              		.loc 1 2939 2 discriminator 2 view .LVU1214
 4448 003e 1831     		adds	r1, r1, #24
 4449 0040 054B     		ldr	r3, .L346+8
 4450 0042 9847     		blx	r3
 4451              	.LVL304:
 4452              		.loc 1 2941 2 is_stmt 1 discriminator 2 view .LVU1215
 4453 0044 0121     		movs	r1, #1
ARM GAS  C:\Users\38164\AppData\Local\Temp\ccm74k8u.s 			page 78


 4454 0046 2046     		mov	r0, r4
 4455 0048 044B     		ldr	r3, .L346+12
 4456 004a 9847     		blx	r3
 4457              	.LVL305:
 4458              		.loc 1 2942 1 is_stmt 0 discriminator 2 view .LVU1216
 4459 004c 38BD     		pop	{r3, r4, r5, pc}
 4460              	.LVL306:
 4461              	.L347:
 4462              		.loc 1 2942 1 discriminator 2 view .LVU1217
 4463 004e 00BF     		.align	2
 4464              	.L346:
 4465 0050 00000000 		.word	.LANCHOR16
 4466 0054 00000000 		.word	.LANCHOR10
 4467 0058 00000000 		.word	vListInsertEnd
 4468 005c 00000000 		.word	prvAddCurrentTaskToDelayedList
 4469              		.cfi_endproc
 4470              	.LFE31:
 4472              		.section	.text.vTaskPlaceOnEventListRestricted,"ax",%progbits
 4473              		.align	1
 4474              		.global	vTaskPlaceOnEventListRestricted
 4475              		.syntax unified
 4476              		.thumb
 4477              		.thumb_func
 4478              		.fpu softvfp
 4480              	vTaskPlaceOnEventListRestricted:
 4481              	.LVL307:
 4482              	.LFB32:
 4483              		.loc 1 2948 2 is_stmt 1 view -0
 4484              		.cfi_startproc
 4485              		@ args = 0, pretend = 0, frame = 0
 4486              		@ frame_needed = 0, uses_anonymous_args = 0
 4487              		.loc 1 2948 2 is_stmt 0 view .LVU1219
 4488 0000 38B5     		push	{r3, r4, r5, lr}
 4489              	.LCFI39:
 4490              		.cfi_def_cfa_offset 16
 4491              		.cfi_offset 3, -16
 4492              		.cfi_offset 4, -12
 4493              		.cfi_offset 5, -8
 4494              		.cfi_offset 14, -4
 4495              		.loc 1 2949 3 is_stmt 1 view .LVU1220
 4496 0002 70B1     		cbz	r0, .L354
 4497 0004 0C46     		mov	r4, r1
 4498 0006 1546     		mov	r5, r2
 4499              		.loc 1 2949 30 discriminator 2 view .LVU1221
 4500              		.loc 1 2961 3 discriminator 2 view .LVU1222
 4501              		.loc 1 2961 47 is_stmt 0 discriminator 2 view .LVU1223
 4502 0008 0A4B     		ldr	r3, .L355
 4503 000a 1968     		ldr	r1, [r3]
 4504              	.LVL308:
 4505              		.loc 1 2961 3 discriminator 2 view .LVU1224
 4506 000c 1831     		adds	r1, r1, #24
 4507 000e 0A4B     		ldr	r3, .L355+4
 4508 0010 9847     		blx	r3
 4509              	.LVL309:
 4510              		.loc 1 2966 3 is_stmt 1 discriminator 2 view .LVU1225
 4511              		.loc 1 2966 5 is_stmt 0 discriminator 2 view .LVU1226
 4512 0012 0DB1     		cbz	r5, .L351
ARM GAS  C:\Users\38164\AppData\Local\Temp\ccm74k8u.s 			page 79


 4513              		.loc 1 2968 17 view .LVU1227
 4514 0014 4FF0FF34 		mov	r4, #-1
 4515              	.LVL310:
 4516              	.L351:
 4517              		.loc 1 2971 57 is_stmt 1 view .LVU1228
 4518              		.loc 1 2972 3 view .LVU1229
 4519 0018 2946     		mov	r1, r5
 4520 001a 2046     		mov	r0, r4
 4521 001c 074B     		ldr	r3, .L355+8
 4522 001e 9847     		blx	r3
 4523              	.LVL311:
 4524              		.loc 1 2973 2 is_stmt 0 view .LVU1230
 4525 0020 38BD     		pop	{r3, r4, r5, pc}
 4526              	.LVL312:
 4527              	.L354:
 4528              		.loc 1 2949 3 is_stmt 1 view .LVU1231
 4529              	.LBB193:
 4530              	.LBI193:
 4531              		.loc 2 191 30 view .LVU1232
 4532              	.LBB194:
 4533              		.loc 2 193 1 view .LVU1233
 4534              		.loc 2 195 2 view .LVU1234
 4535              		.syntax unified
 4536              	@ 195 "Middlewares/Third_Party/FreeRTOS/Source/portable/GCC/ARM_CM3/portmacro.h" 1
 4537 0022 4FF05003 			mov r3, #80												
 4538 0026 83F31188 		msr basepri, r3											
 4539 002a BFF36F8F 		isb														
 4540 002e BFF34F8F 		dsb														
 4541              	
 4542              	@ 0 "" 2
 4543              	.LVL313:
 4544              		.thumb
 4545              		.syntax unified
 4546              	.L350:
 4547              		.loc 2 195 2 is_stmt 0 view .LVU1235
 4548              	.LBE194:
 4549              	.LBE193:
 4550              		.loc 1 2949 3 is_stmt 1 discriminator 1 view .LVU1236
 4551              		.loc 1 2949 3 discriminator 1 view .LVU1237
 4552              		.loc 1 2949 3 discriminator 1 view .LVU1238
 4553 0032 FEE7     		b	.L350
 4554              	.L356:
 4555              		.align	2
 4556              	.L355:
 4557 0034 00000000 		.word	.LANCHOR10
 4558 0038 00000000 		.word	vListInsertEnd
 4559 003c 00000000 		.word	prvAddCurrentTaskToDelayedList
 4560              		.cfi_endproc
 4561              	.LFE32:
 4563              		.section	.text.xTaskRemoveFromEventList,"ax",%progbits
 4564              		.align	1
 4565              		.global	xTaskRemoveFromEventList
 4566              		.syntax unified
 4567              		.thumb
 4568              		.thumb_func
 4569              		.fpu softvfp
 4571              	xTaskRemoveFromEventList:
ARM GAS  C:\Users\38164\AppData\Local\Temp\ccm74k8u.s 			page 80


 4572              	.LVL314:
 4573              	.LFB33:
 4574              		.loc 1 2979 1 view -0
 4575              		.cfi_startproc
 4576              		@ args = 0, pretend = 0, frame = 0
 4577              		@ frame_needed = 0, uses_anonymous_args = 0
 4578              		.loc 1 2979 1 is_stmt 0 view .LVU1240
 4579 0000 38B5     		push	{r3, r4, r5, lr}
 4580              	.LCFI40:
 4581              		.cfi_def_cfa_offset 16
 4582              		.cfi_offset 3, -16
 4583              		.cfi_offset 4, -12
 4584              		.cfi_offset 5, -8
 4585              		.cfi_offset 14, -4
 4586              		.loc 1 2980 1 is_stmt 1 view .LVU1241
 4587              		.loc 1 2981 1 view .LVU1242
 4588              		.loc 1 2996 2 view .LVU1243
 4589              		.loc 1 2996 31 is_stmt 0 view .LVU1244
 4590 0002 C368     		ldr	r3, [r0, #12]
 4591              		.loc 1 2996 17 view .LVU1245
 4592 0004 DC68     		ldr	r4, [r3, #12]
 4593              	.LVL315:
 4594              		.loc 1 2997 2 is_stmt 1 view .LVU1246
 4595 0006 24B3     		cbz	r4, .L366
 4596              		.loc 1 2997 32 discriminator 2 view .LVU1247
 4597              		.loc 1 2998 2 discriminator 2 view .LVU1248
 4598              		.loc 1 2998 11 is_stmt 0 discriminator 2 view .LVU1249
 4599 0008 04F11805 		add	r5, r4, #24
 4600 000c 2846     		mov	r0, r5
 4601              	.LVL316:
 4602              		.loc 1 2998 11 discriminator 2 view .LVU1250
 4603 000e 194B     		ldr	r3, .L367
 4604 0010 9847     		blx	r3
 4605              	.LVL317:
 4606              		.loc 1 3000 2 is_stmt 1 discriminator 2 view .LVU1251
 4607              		.loc 1 3000 27 is_stmt 0 discriminator 2 view .LVU1252
 4608 0012 194B     		ldr	r3, .L367+4
 4609 0014 1B68     		ldr	r3, [r3]
 4610              		.loc 1 3000 4 discriminator 2 view .LVU1253
 4611 0016 2BBB     		cbnz	r3, .L360
 4612              		.loc 1 3002 3 is_stmt 1 view .LVU1254
 4613              		.loc 1 3002 12 is_stmt 0 view .LVU1255
 4614 0018 251D     		adds	r5, r4, #4
 4615 001a 2846     		mov	r0, r5
 4616 001c 154B     		ldr	r3, .L367
 4617 001e 9847     		blx	r3
 4618              	.LVL318:
 4619              		.loc 1 3003 3 is_stmt 1 view .LVU1256
 4620              		.loc 1 3003 3 view .LVU1257
 4621 0020 E06A     		ldr	r0, [r4, #44]
 4622 0022 164B     		ldr	r3, .L367+8
 4623 0024 1B68     		ldr	r3, [r3]
 4624 0026 9842     		cmp	r0, r3
 4625 0028 01D9     		bls	.L361
 4626              		.loc 1 3003 3 discriminator 1 view .LVU1258
 4627 002a 144B     		ldr	r3, .L367+8
 4628 002c 1860     		str	r0, [r3]
ARM GAS  C:\Users\38164\AppData\Local\Temp\ccm74k8u.s 			page 81


 4629              	.L361:
 4630              		.loc 1 3003 3 discriminator 3 view .LVU1259
 4631              		.loc 1 3003 3 discriminator 3 view .LVU1260
 4632 002e 00EB8000 		add	r0, r0, r0, lsl #2
 4633 0032 2946     		mov	r1, r5
 4634 0034 124B     		ldr	r3, .L367+12
 4635 0036 03EB8000 		add	r0, r3, r0, lsl #2
 4636 003a 124B     		ldr	r3, .L367+16
 4637 003c 9847     		blx	r3
 4638              	.LVL319:
 4639              		.loc 1 3003 42 discriminator 3 view .LVU1261
 4640              	.L362:
 4641              		.loc 1 3012 2 view .LVU1262
 4642              		.loc 1 3012 20 is_stmt 0 view .LVU1263
 4643 003e E26A     		ldr	r2, [r4, #44]
 4644              		.loc 1 3012 47 view .LVU1264
 4645 0040 114B     		ldr	r3, .L367+20
 4646 0042 1B68     		ldr	r3, [r3]
 4647 0044 DB6A     		ldr	r3, [r3, #44]
 4648              		.loc 1 3012 4 view .LVU1265
 4649 0046 9A42     		cmp	r2, r3
 4650 0048 11D9     		bls	.L364
 4651              		.loc 1 3017 3 is_stmt 1 view .LVU1266
 4652              	.LVL320:
 4653              		.loc 1 3021 3 view .LVU1267
 4654              		.loc 1 3021 17 is_stmt 0 view .LVU1268
 4655 004a 0120     		movs	r0, #1
 4656 004c 0F4B     		ldr	r3, .L367+24
 4657 004e 1860     		str	r0, [r3]
 4658 0050 0EE0     		b	.L357
 4659              	.LVL321:
 4660              	.L366:
 4661              		.loc 1 2997 2 is_stmt 1 view .LVU1269
 4662              	.LBB195:
 4663              	.LBI195:
 4664              		.loc 2 191 30 view .LVU1270
 4665              	.LBB196:
 4666              		.loc 2 193 1 view .LVU1271
 4667              		.loc 2 195 2 view .LVU1272
 4668              		.syntax unified
 4669              	@ 195 "Middlewares/Third_Party/FreeRTOS/Source/portable/GCC/ARM_CM3/portmacro.h" 1
 4670 0052 4FF05003 			mov r3, #80												
 4671 0056 83F31188 		msr basepri, r3											
 4672 005a BFF36F8F 		isb														
 4673 005e BFF34F8F 		dsb														
 4674              	
 4675              	@ 0 "" 2
 4676              	.LVL322:
 4677              		.thumb
 4678              		.syntax unified
 4679              	.L359:
 4680              		.loc 2 195 2 is_stmt 0 view .LVU1273
 4681              	.LBE196:
 4682              	.LBE195:
 4683              		.loc 1 2997 2 is_stmt 1 discriminator 1 view .LVU1274
 4684              		.loc 1 2997 2 discriminator 1 view .LVU1275
 4685              		.loc 1 2997 2 discriminator 1 view .LVU1276
ARM GAS  C:\Users\38164\AppData\Local\Temp\ccm74k8u.s 			page 82


 4686 0062 FEE7     		b	.L359
 4687              	.LVL323:
 4688              	.L360:
 4689              		.loc 1 3009 3 view .LVU1277
 4690 0064 2946     		mov	r1, r5
 4691 0066 0A48     		ldr	r0, .L367+28
 4692 0068 064B     		ldr	r3, .L367+16
 4693 006a 9847     		blx	r3
 4694              	.LVL324:
 4695 006c E7E7     		b	.L362
 4696              	.L364:
 4697              		.loc 1 3025 11 is_stmt 0 view .LVU1278
 4698 006e 0020     		movs	r0, #0
 4699              	.LVL325:
 4700              		.loc 1 3042 2 is_stmt 1 view .LVU1279
 4701              	.L357:
 4702              		.loc 1 3043 1 is_stmt 0 view .LVU1280
 4703 0070 38BD     		pop	{r3, r4, r5, pc}
 4704              	.LVL326:
 4705              	.L368:
 4706              		.loc 1 3043 1 view .LVU1281
 4707 0072 00BF     		.align	2
 4708              	.L367:
 4709 0074 00000000 		.word	uxListRemove
 4710 0078 00000000 		.word	.LANCHOR16
 4711 007c 00000000 		.word	.LANCHOR13
 4712 0080 00000000 		.word	.LANCHOR4
 4713 0084 00000000 		.word	vListInsertEnd
 4714 0088 00000000 		.word	.LANCHOR10
 4715 008c 00000000 		.word	.LANCHOR19
 4716 0090 00000000 		.word	.LANCHOR1
 4717              		.cfi_endproc
 4718              	.LFE33:
 4720              		.section	.text.vTaskRemoveFromUnorderedEventList,"ax",%progbits
 4721              		.align	1
 4722              		.global	vTaskRemoveFromUnorderedEventList
 4723              		.syntax unified
 4724              		.thumb
 4725              		.thumb_func
 4726              		.fpu softvfp
 4728              	vTaskRemoveFromUnorderedEventList:
 4729              	.LVL327:
 4730              	.LFB34:
 4731              		.loc 1 3047 1 is_stmt 1 view -0
 4732              		.cfi_startproc
 4733              		@ args = 0, pretend = 0, frame = 0
 4734              		@ frame_needed = 0, uses_anonymous_args = 0
 4735              		.loc 1 3048 1 view .LVU1283
 4736              		.loc 1 3052 2 view .LVU1284
 4737 0000 1C4A     		ldr	r2, .L379
 4738 0002 1268     		ldr	r2, [r2]
 4739 0004 42B9     		cbnz	r2, .L370
 4740              		.loc 1 3052 2 view .LVU1285
 4741              	.LBB197:
 4742              	.LBI197:
 4743              		.loc 2 191 30 view .LVU1286
 4744              	.LBB198:
ARM GAS  C:\Users\38164\AppData\Local\Temp\ccm74k8u.s 			page 83


 4745              		.loc 2 193 1 view .LVU1287
 4746              		.loc 2 195 2 view .LVU1288
 4747              		.syntax unified
 4748              	@ 195 "Middlewares/Third_Party/FreeRTOS/Source/portable/GCC/ARM_CM3/portmacro.h" 1
 4749 0006 4FF05003 			mov r3, #80												
 4750 000a 83F31188 		msr basepri, r3											
 4751 000e BFF36F8F 		isb														
 4752 0012 BFF34F8F 		dsb														
 4753              	
 4754              	@ 0 "" 2
 4755              	.LVL328:
 4756              		.thumb
 4757              		.syntax unified
 4758              	.L371:
 4759              		.loc 2 195 2 is_stmt 0 view .LVU1289
 4760              	.LBE198:
 4761              	.LBE197:
 4762              		.loc 1 3052 2 is_stmt 1 discriminator 1 view .LVU1290
 4763              		.loc 1 3052 2 discriminator 1 view .LVU1291
 4764              		.loc 1 3052 2 discriminator 1 view .LVU1292
 4765 0016 FEE7     		b	.L371
 4766              	.L370:
 4767              		.loc 1 3047 1 is_stmt 0 discriminator 2 view .LVU1293
 4768 0018 70B5     		push	{r4, r5, r6, lr}
 4769              	.LCFI41:
 4770              		.cfi_def_cfa_offset 16
 4771              		.cfi_offset 4, -16
 4772              		.cfi_offset 5, -12
 4773              		.cfi_offset 6, -8
 4774              		.cfi_offset 14, -4
 4775              		.loc 1 3052 49 is_stmt 1 discriminator 2 view .LVU1294
 4776              		.loc 1 3055 2 discriminator 2 view .LVU1295
 4777 001a 41F00043 		orr	r3, r1, #-2147483648
 4778 001e 0360     		str	r3, [r0]
 4779              		.loc 1 3059 2 discriminator 2 view .LVU1296
 4780              		.loc 1 3059 17 is_stmt 0 discriminator 2 view .LVU1297
 4781 0020 C468     		ldr	r4, [r0, #12]
 4782              	.LVL329:
 4783              		.loc 1 3060 2 is_stmt 1 discriminator 2 view .LVU1298
 4784 0022 ECB1     		cbz	r4, .L378
 4785              		.loc 1 3060 32 discriminator 2 view .LVU1299
 4786              		.loc 1 3061 2 discriminator 2 view .LVU1300
 4787              		.loc 1 3061 11 is_stmt 0 discriminator 2 view .LVU1301
 4788 0024 144E     		ldr	r6, .L379+4
 4789 0026 B047     		blx	r6
 4790              	.LVL330:
 4791              		.loc 1 3066 2 is_stmt 1 discriminator 2 view .LVU1302
 4792              		.loc 1 3066 11 is_stmt 0 discriminator 2 view .LVU1303
 4793 0028 251D     		adds	r5, r4, #4
 4794 002a 2846     		mov	r0, r5
 4795 002c B047     		blx	r6
 4796              	.LVL331:
 4797              		.loc 1 3067 2 is_stmt 1 discriminator 2 view .LVU1304
 4798              		.loc 1 3067 2 discriminator 2 view .LVU1305
 4799 002e E06A     		ldr	r0, [r4, #44]
 4800 0030 124B     		ldr	r3, .L379+8
 4801 0032 1B68     		ldr	r3, [r3]
ARM GAS  C:\Users\38164\AppData\Local\Temp\ccm74k8u.s 			page 84


 4802 0034 9842     		cmp	r0, r3
 4803 0036 01D9     		bls	.L374
 4804              		.loc 1 3067 2 discriminator 1 view .LVU1306
 4805 0038 104B     		ldr	r3, .L379+8
 4806 003a 1860     		str	r0, [r3]
 4807              	.L374:
 4808              		.loc 1 3067 2 discriminator 3 view .LVU1307
 4809              		.loc 1 3067 2 discriminator 3 view .LVU1308
 4810 003c 00EB8000 		add	r0, r0, r0, lsl #2
 4811 0040 2946     		mov	r1, r5
 4812 0042 0F4B     		ldr	r3, .L379+12
 4813 0044 03EB8000 		add	r0, r3, r0, lsl #2
 4814 0048 0E4B     		ldr	r3, .L379+16
 4815 004a 9847     		blx	r3
 4816              	.LVL332:
 4817              		.loc 1 3067 41 discriminator 3 view .LVU1309
 4818              		.loc 1 3069 2 discriminator 3 view .LVU1310
 4819              		.loc 1 3069 20 is_stmt 0 discriminator 3 view .LVU1311
 4820 004c E26A     		ldr	r2, [r4, #44]
 4821              		.loc 1 3069 47 discriminator 3 view .LVU1312
 4822 004e 0E4B     		ldr	r3, .L379+20
 4823 0050 1B68     		ldr	r3, [r3]
 4824 0052 DB6A     		ldr	r3, [r3, #44]
 4825              		.loc 1 3069 4 discriminator 3 view .LVU1313
 4826 0054 9A42     		cmp	r2, r3
 4827 0056 02D9     		bls	.L369
 4828              		.loc 1 3075 3 is_stmt 1 view .LVU1314
 4829              		.loc 1 3075 17 is_stmt 0 view .LVU1315
 4830 0058 0C4B     		ldr	r3, .L379+24
 4831 005a 0122     		movs	r2, #1
 4832 005c 1A60     		str	r2, [r3]
 4833              	.L369:
 4834              		.loc 1 3077 1 view .LVU1316
 4835 005e 70BD     		pop	{r4, r5, r6, pc}
 4836              	.LVL333:
 4837              	.L378:
 4838              		.loc 1 3060 2 is_stmt 1 view .LVU1317
 4839              	.LBB199:
 4840              	.LBI199:
 4841              		.loc 2 191 30 view .LVU1318
 4842              	.LBB200:
 4843              		.loc 2 193 1 view .LVU1319
 4844              		.loc 2 195 2 view .LVU1320
 4845              		.syntax unified
 4846              	@ 195 "Middlewares/Third_Party/FreeRTOS/Source/portable/GCC/ARM_CM3/portmacro.h" 1
 4847 0060 4FF05003 			mov r3, #80												
 4848 0064 83F31188 		msr basepri, r3											
 4849 0068 BFF36F8F 		isb														
 4850 006c BFF34F8F 		dsb														
 4851              	
 4852              	@ 0 "" 2
 4853              	.LVL334:
 4854              		.thumb
 4855              		.syntax unified
 4856              	.L373:
 4857              		.loc 2 195 2 is_stmt 0 view .LVU1321
 4858              	.LBE200:
ARM GAS  C:\Users\38164\AppData\Local\Temp\ccm74k8u.s 			page 85


 4859              	.LBE199:
 4860              		.loc 1 3060 2 is_stmt 1 discriminator 2 view .LVU1322
 4861              		.loc 1 3060 2 discriminator 2 view .LVU1323
 4862              		.loc 1 3060 2 discriminator 2 view .LVU1324
 4863 0070 FEE7     		b	.L373
 4864              	.L380:
 4865 0072 00BF     		.align	2
 4866              	.L379:
 4867 0074 00000000 		.word	.LANCHOR16
 4868 0078 00000000 		.word	uxListRemove
 4869 007c 00000000 		.word	.LANCHOR13
 4870 0080 00000000 		.word	.LANCHOR4
 4871 0084 00000000 		.word	vListInsertEnd
 4872 0088 00000000 		.word	.LANCHOR10
 4873 008c 00000000 		.word	.LANCHOR19
 4874              		.cfi_endproc
 4875              	.LFE34:
 4877              		.section	.text.vTaskSetTimeOutState,"ax",%progbits
 4878              		.align	1
 4879              		.global	vTaskSetTimeOutState
 4880              		.syntax unified
 4881              		.thumb
 4882              		.thumb_func
 4883              		.fpu softvfp
 4885              	vTaskSetTimeOutState:
 4886              	.LVL335:
 4887              	.LFB35:
 4888              		.loc 1 3081 1 view -0
 4889              		.cfi_startproc
 4890              		@ args = 0, pretend = 0, frame = 0
 4891              		@ frame_needed = 0, uses_anonymous_args = 0
 4892              		.loc 1 3082 2 view .LVU1326
 4893 0000 60B1     		cbz	r0, .L386
 4894              		.loc 1 3081 1 is_stmt 0 discriminator 2 view .LVU1327
 4895 0002 10B5     		push	{r4, lr}
 4896              	.LCFI42:
 4897              		.cfi_def_cfa_offset 8
 4898              		.cfi_offset 4, -8
 4899              		.cfi_offset 14, -4
 4900 0004 0446     		mov	r4, r0
 4901              		.loc 1 3082 27 is_stmt 1 discriminator 2 view .LVU1328
 4902              		.loc 1 3083 2 discriminator 2 view .LVU1329
 4903 0006 0A4B     		ldr	r3, .L387
 4904 0008 9847     		blx	r3
 4905              	.LVL336:
 4906              		.loc 1 3085 3 discriminator 2 view .LVU1330
 4907              		.loc 1 3085 29 is_stmt 0 discriminator 2 view .LVU1331
 4908 000a 0A4B     		ldr	r3, .L387+4
 4909 000c 1B68     		ldr	r3, [r3]
 4910 000e 2360     		str	r3, [r4]
 4911              		.loc 1 3086 3 is_stmt 1 discriminator 2 view .LVU1332
 4912              		.loc 1 3086 30 is_stmt 0 discriminator 2 view .LVU1333
 4913 0010 094B     		ldr	r3, .L387+8
 4914 0012 1B68     		ldr	r3, [r3]
 4915 0014 6360     		str	r3, [r4, #4]
 4916              		.loc 1 3088 2 is_stmt 1 discriminator 2 view .LVU1334
 4917 0016 094B     		ldr	r3, .L387+12
ARM GAS  C:\Users\38164\AppData\Local\Temp\ccm74k8u.s 			page 86


 4918 0018 9847     		blx	r3
 4919              	.LVL337:
 4920              		.loc 1 3089 1 is_stmt 0 discriminator 2 view .LVU1335
 4921 001a 10BD     		pop	{r4, pc}
 4922              	.LVL338:
 4923              	.L386:
 4924              	.LCFI43:
 4925              		.cfi_def_cfa_offset 0
 4926              		.cfi_restore 4
 4927              		.cfi_restore 14
 4928              		.loc 1 3082 2 is_stmt 1 view .LVU1336
 4929              	.LBB201:
 4930              	.LBI201:
 4931              		.loc 2 191 30 view .LVU1337
 4932              	.LBB202:
 4933              		.loc 2 193 1 view .LVU1338
 4934              		.loc 2 195 2 view .LVU1339
 4935              		.syntax unified
 4936              	@ 195 "Middlewares/Third_Party/FreeRTOS/Source/portable/GCC/ARM_CM3/portmacro.h" 1
 4937 001c 4FF05003 			mov r3, #80												
 4938 0020 83F31188 		msr basepri, r3											
 4939 0024 BFF36F8F 		isb														
 4940 0028 BFF34F8F 		dsb														
 4941              	
 4942              	@ 0 "" 2
 4943              	.LVL339:
 4944              		.thumb
 4945              		.syntax unified
 4946              	.L383:
 4947              		.loc 2 195 2 is_stmt 0 view .LVU1340
 4948              	.LBE202:
 4949              	.LBE201:
 4950              		.loc 1 3082 2 is_stmt 1 discriminator 1 view .LVU1341
 4951              		.loc 1 3082 2 discriminator 1 view .LVU1342
 4952              		.loc 1 3082 2 discriminator 1 view .LVU1343
 4953 002c FEE7     		b	.L383
 4954              	.L388:
 4955 002e 00BF     		.align	2
 4956              	.L387:
 4957 0030 00000000 		.word	vPortEnterCritical
 4958 0034 00000000 		.word	.LANCHOR17
 4959 0038 00000000 		.word	.LANCHOR15
 4960 003c 00000000 		.word	vPortExitCritical
 4961              		.cfi_endproc
 4962              	.LFE35:
 4964              		.section	.text.vTaskInternalSetTimeOutState,"ax",%progbits
 4965              		.align	1
 4966              		.global	vTaskInternalSetTimeOutState
 4967              		.syntax unified
 4968              		.thumb
 4969              		.thumb_func
 4970              		.fpu softvfp
 4972              	vTaskInternalSetTimeOutState:
 4973              	.LVL340:
 4974              	.LFB36:
 4975              		.loc 1 3093 1 view -0
 4976              		.cfi_startproc
ARM GAS  C:\Users\38164\AppData\Local\Temp\ccm74k8u.s 			page 87


 4977              		@ args = 0, pretend = 0, frame = 0
 4978              		@ frame_needed = 0, uses_anonymous_args = 0
 4979              		@ link register save eliminated.
 4980              		.loc 1 3095 2 view .LVU1345
 4981              		.loc 1 3095 28 is_stmt 0 view .LVU1346
 4982 0000 034B     		ldr	r3, .L390
 4983 0002 1B68     		ldr	r3, [r3]
 4984 0004 0360     		str	r3, [r0]
 4985              		.loc 1 3096 2 is_stmt 1 view .LVU1347
 4986              		.loc 1 3096 29 is_stmt 0 view .LVU1348
 4987 0006 034B     		ldr	r3, .L390+4
 4988 0008 1B68     		ldr	r3, [r3]
 4989 000a 4360     		str	r3, [r0, #4]
 4990              		.loc 1 3097 1 view .LVU1349
 4991 000c 7047     		bx	lr
 4992              	.L391:
 4993 000e 00BF     		.align	2
 4994              	.L390:
 4995 0010 00000000 		.word	.LANCHOR17
 4996 0014 00000000 		.word	.LANCHOR15
 4997              		.cfi_endproc
 4998              	.LFE36:
 5000              		.section	.text.xTaskCheckForTimeOut,"ax",%progbits
 5001              		.align	1
 5002              		.global	xTaskCheckForTimeOut
 5003              		.syntax unified
 5004              		.thumb
 5005              		.thumb_func
 5006              		.fpu softvfp
 5008              	xTaskCheckForTimeOut:
 5009              	.LVL341:
 5010              	.LFB37:
 5011              		.loc 1 3101 1 is_stmt 1 view -0
 5012              		.cfi_startproc
 5013              		@ args = 0, pretend = 0, frame = 0
 5014              		@ frame_needed = 0, uses_anonymous_args = 0
 5015              		.loc 1 3101 1 is_stmt 0 view .LVU1351
 5016 0000 F8B5     		push	{r3, r4, r5, r6, r7, lr}
 5017              	.LCFI44:
 5018              		.cfi_def_cfa_offset 24
 5019              		.cfi_offset 3, -24
 5020              		.cfi_offset 4, -20
 5021              		.cfi_offset 5, -16
 5022              		.cfi_offset 6, -12
 5023              		.cfi_offset 7, -8
 5024              		.cfi_offset 14, -4
 5025              		.loc 1 3102 1 is_stmt 1 view .LVU1352
 5026              		.loc 1 3104 2 view .LVU1353
 5027 0002 C8B1     		cbz	r0, .L403
 5028 0004 0C46     		mov	r4, r1
 5029 0006 0546     		mov	r5, r0
 5030              		.loc 1 3104 27 discriminator 2 view .LVU1354
 5031              		.loc 1 3105 2 discriminator 2 view .LVU1355
 5032 0008 F9B1     		cbz	r1, .L404
 5033              		.loc 1 3105 31 discriminator 2 view .LVU1356
 5034              		.loc 1 3107 2 discriminator 2 view .LVU1357
 5035 000a 1C4B     		ldr	r3, .L406
ARM GAS  C:\Users\38164\AppData\Local\Temp\ccm74k8u.s 			page 88


 5036 000c 9847     		blx	r3
 5037              	.LVL342:
 5038              	.LBB203:
 5039              		.loc 1 3110 3 discriminator 2 view .LVU1358
 5040              		.loc 1 3110 20 is_stmt 0 discriminator 2 view .LVU1359
 5041 000e 1C4B     		ldr	r3, .L406+4
 5042 0010 1968     		ldr	r1, [r3]
 5043              	.LVL343:
 5044              		.loc 1 3111 3 is_stmt 1 discriminator 2 view .LVU1360
 5045              		.loc 1 3111 62 is_stmt 0 discriminator 2 view .LVU1361
 5046 0012 6B68     		ldr	r3, [r5, #4]
 5047              		.loc 1 3111 20 discriminator 2 view .LVU1362
 5048 0014 C81A     		subs	r0, r1, r3
 5049              	.LVL344:
 5050              		.loc 1 3125 4 is_stmt 1 discriminator 2 view .LVU1363
 5051              		.loc 1 3125 8 is_stmt 0 discriminator 2 view .LVU1364
 5052 0016 2268     		ldr	r2, [r4]
 5053              		.loc 1 3125 6 discriminator 2 view .LVU1365
 5054 0018 B2F1FF3F 		cmp	r2, #-1
 5055 001c 26D0     		beq	.L400
 5056              		.loc 1 3135 3 is_stmt 1 view .LVU1366
 5057              		.loc 1 3135 37 is_stmt 0 view .LVU1367
 5058 001e 2F68     		ldr	r7, [r5]
 5059              		.loc 1 3135 25 view .LVU1368
 5060 0020 184E     		ldr	r6, .L406+8
 5061 0022 3668     		ldr	r6, [r6]
 5062              		.loc 1 3135 5 view .LVU1369
 5063 0024 B742     		cmp	r7, r6
 5064 0026 01D0     		beq	.L398
 5065              		.loc 1 3135 56 discriminator 1 view .LVU1370
 5066 0028 8B42     		cmp	r3, r1
 5067 002a 24D9     		bls	.L401
 5068              	.L398:
 5069              		.loc 1 3144 8 is_stmt 1 view .LVU1371
 5070              		.loc 1 3144 10 is_stmt 0 view .LVU1372
 5071 002c 8242     		cmp	r2, r0
 5072 002e 15D8     		bhi	.L405
 5073              		.loc 1 3153 4 is_stmt 1 view .LVU1373
 5074              		.loc 1 3153 19 is_stmt 0 view .LVU1374
 5075 0030 0023     		movs	r3, #0
 5076 0032 2360     		str	r3, [r4]
 5077              		.loc 1 3154 4 is_stmt 1 view .LVU1375
 5078              	.LVL345:
 5079              		.loc 1 3154 12 is_stmt 0 view .LVU1376
 5080 0034 0124     		movs	r4, #1
 5081              	.LVL346:
 5082              		.loc 1 3154 12 view .LVU1377
 5083 0036 1AE0     		b	.L397
 5084              	.LVL347:
 5085              	.L403:
 5086              		.loc 1 3154 12 view .LVU1378
 5087              	.LBE203:
 5088              		.loc 1 3104 2 is_stmt 1 view .LVU1379
 5089              	.LBB204:
 5090              	.LBI204:
 5091              		.loc 2 191 30 view .LVU1380
 5092              	.LBB205:
ARM GAS  C:\Users\38164\AppData\Local\Temp\ccm74k8u.s 			page 89


 5093              		.loc 2 193 1 view .LVU1381
 5094              		.loc 2 195 2 view .LVU1382
 5095              		.syntax unified
 5096              	@ 195 "Middlewares/Third_Party/FreeRTOS/Source/portable/GCC/ARM_CM3/portmacro.h" 1
 5097 0038 4FF05003 			mov r3, #80												
 5098 003c 83F31188 		msr basepri, r3											
 5099 0040 BFF36F8F 		isb														
 5100 0044 BFF34F8F 		dsb														
 5101              	
 5102              	@ 0 "" 2
 5103              	.LVL348:
 5104              		.thumb
 5105              		.syntax unified
 5106              	.L394:
 5107              		.loc 2 195 2 is_stmt 0 view .LVU1383
 5108              	.LBE205:
 5109              	.LBE204:
 5110              		.loc 1 3104 2 is_stmt 1 discriminator 1 view .LVU1384
 5111              		.loc 1 3104 2 discriminator 1 view .LVU1385
 5112              		.loc 1 3104 2 discriminator 1 view .LVU1386
 5113 0048 FEE7     		b	.L394
 5114              	.L404:
 5115              		.loc 1 3105 2 view .LVU1387
 5116              	.LBB206:
 5117              	.LBI206:
 5118              		.loc 2 191 30 view .LVU1388
 5119              	.LBB207:
 5120              		.loc 2 193 1 view .LVU1389
 5121              		.loc 2 195 2 view .LVU1390
 5122              		.syntax unified
 5123              	@ 195 "Middlewares/Third_Party/FreeRTOS/Source/portable/GCC/ARM_CM3/portmacro.h" 1
 5124 004a 4FF05003 			mov r3, #80												
 5125 004e 83F31188 		msr basepri, r3											
 5126 0052 BFF36F8F 		isb														
 5127 0056 BFF34F8F 		dsb														
 5128              	
 5129              	@ 0 "" 2
 5130              	.LVL349:
 5131              		.thumb
 5132              		.syntax unified
 5133              	.L396:
 5134              		.loc 2 195 2 is_stmt 0 view .LVU1391
 5135              	.LBE207:
 5136              	.LBE206:
 5137              		.loc 1 3105 2 is_stmt 1 discriminator 2 view .LVU1392
 5138              		.loc 1 3105 2 discriminator 2 view .LVU1393
 5139              		.loc 1 3105 2 discriminator 2 view .LVU1394
 5140 005a FEE7     		b	.L396
 5141              	.LVL350:
 5142              	.L405:
 5143              	.LBB208:
 5144              		.loc 1 3147 4 view .LVU1395
 5145              		.loc 1 3147 19 is_stmt 0 view .LVU1396
 5146 005c 5B1A     		subs	r3, r3, r1
 5147 005e 1344     		add	r3, r3, r2
 5148 0060 2360     		str	r3, [r4]
 5149              		.loc 1 3148 4 is_stmt 1 view .LVU1397
ARM GAS  C:\Users\38164\AppData\Local\Temp\ccm74k8u.s 			page 90


 5150 0062 2846     		mov	r0, r5
 5151              	.LVL351:
 5152              		.loc 1 3148 4 is_stmt 0 view .LVU1398
 5153 0064 084B     		ldr	r3, .L406+12
 5154 0066 9847     		blx	r3
 5155              	.LVL352:
 5156              		.loc 1 3149 4 is_stmt 1 view .LVU1399
 5157              		.loc 1 3149 12 is_stmt 0 view .LVU1400
 5158 0068 0024     		movs	r4, #0
 5159              	.LVL353:
 5160              		.loc 1 3149 12 view .LVU1401
 5161 006a 00E0     		b	.L397
 5162              	.LVL354:
 5163              	.L400:
 5164              		.loc 1 3130 13 view .LVU1402
 5165 006c 0024     		movs	r4, #0
 5166              	.LVL355:
 5167              	.L397:
 5168              		.loc 1 3130 13 view .LVU1403
 5169              	.LBE208:
 5170              		.loc 1 3157 2 is_stmt 1 view .LVU1404
 5171 006e 074B     		ldr	r3, .L406+16
 5172 0070 9847     		blx	r3
 5173              	.LVL356:
 5174              		.loc 1 3159 2 view .LVU1405
 5175              		.loc 1 3160 1 is_stmt 0 view .LVU1406
 5176 0072 2046     		mov	r0, r4
 5177 0074 F8BD     		pop	{r3, r4, r5, r6, r7, pc}
 5178              	.LVL357:
 5179              	.L401:
 5180              	.LBB209:
 5181              		.loc 1 3142 12 view .LVU1407
 5182 0076 0124     		movs	r4, #1
 5183              	.LVL358:
 5184              		.loc 1 3142 12 view .LVU1408
 5185 0078 F9E7     		b	.L397
 5186              	.L407:
 5187 007a 00BF     		.align	2
 5188              	.L406:
 5189 007c 00000000 		.word	vPortEnterCritical
 5190 0080 00000000 		.word	.LANCHOR15
 5191 0084 00000000 		.word	.LANCHOR17
 5192 0088 00000000 		.word	vTaskInternalSetTimeOutState
 5193 008c 00000000 		.word	vPortExitCritical
 5194              	.LBE209:
 5195              		.cfi_endproc
 5196              	.LFE37:
 5198              		.section	.text.vTaskMissedYield,"ax",%progbits
 5199              		.align	1
 5200              		.global	vTaskMissedYield
 5201              		.syntax unified
 5202              		.thumb
 5203              		.thumb_func
 5204              		.fpu softvfp
 5206              	vTaskMissedYield:
 5207              	.LFB38:
 5208              		.loc 1 3164 1 is_stmt 1 view -0
ARM GAS  C:\Users\38164\AppData\Local\Temp\ccm74k8u.s 			page 91


 5209              		.cfi_startproc
 5210              		@ args = 0, pretend = 0, frame = 0
 5211              		@ frame_needed = 0, uses_anonymous_args = 0
 5212              		@ link register save eliminated.
 5213              		.loc 1 3165 2 view .LVU1410
 5214              		.loc 1 3165 16 is_stmt 0 view .LVU1411
 5215 0000 014B     		ldr	r3, .L409
 5216 0002 0122     		movs	r2, #1
 5217 0004 1A60     		str	r2, [r3]
 5218              		.loc 1 3166 1 view .LVU1412
 5219 0006 7047     		bx	lr
 5220              	.L410:
 5221              		.align	2
 5222              	.L409:
 5223 0008 00000000 		.word	.LANCHOR19
 5224              		.cfi_endproc
 5225              	.LFE38:
 5227              		.section	.text.uxTaskGetTaskNumber,"ax",%progbits
 5228              		.align	1
 5229              		.global	uxTaskGetTaskNumber
 5230              		.syntax unified
 5231              		.thumb
 5232              		.thumb_func
 5233              		.fpu softvfp
 5235              	uxTaskGetTaskNumber:
 5236              	.LVL359:
 5237              	.LFB39:
 5238              		.loc 1 3172 2 is_stmt 1 view -0
 5239              		.cfi_startproc
 5240              		@ args = 0, pretend = 0, frame = 0
 5241              		@ frame_needed = 0, uses_anonymous_args = 0
 5242              		@ link register save eliminated.
 5243              		.loc 1 3173 2 view .LVU1414
 5244              		.loc 1 3174 2 view .LVU1415
 5245              		.loc 1 3176 3 view .LVU1416
 5246              		.loc 1 3176 5 is_stmt 0 view .LVU1417
 5247 0000 08B1     		cbz	r0, .L413
 5248              		.loc 1 3178 4 is_stmt 1 view .LVU1418
 5249              	.LVL360:
 5250              		.loc 1 3179 4 view .LVU1419
 5251              		.loc 1 3179 13 is_stmt 0 view .LVU1420
 5252 0002 806C     		ldr	r0, [r0, #72]
 5253              	.LVL361:
 5254              		.loc 1 3179 13 view .LVU1421
 5255 0004 7047     		bx	lr
 5256              	.LVL362:
 5257              	.L413:
 5258              		.loc 1 3183 13 view .LVU1422
 5259 0006 0020     		movs	r0, #0
 5260              	.LVL363:
 5261              		.loc 1 3186 3 is_stmt 1 view .LVU1423
 5262              		.loc 1 3187 2 is_stmt 0 view .LVU1424
 5263 0008 7047     		bx	lr
 5264              		.cfi_endproc
 5265              	.LFE39:
 5267              		.section	.text.vTaskSetTaskNumber,"ax",%progbits
 5268              		.align	1
ARM GAS  C:\Users\38164\AppData\Local\Temp\ccm74k8u.s 			page 92


 5269              		.global	vTaskSetTaskNumber
 5270              		.syntax unified
 5271              		.thumb
 5272              		.thumb_func
 5273              		.fpu softvfp
 5275              	vTaskSetTaskNumber:
 5276              	.LVL364:
 5277              	.LFB40:
 5278              		.loc 1 3195 2 is_stmt 1 view -0
 5279              		.cfi_startproc
 5280              		@ args = 0, pretend = 0, frame = 0
 5281              		@ frame_needed = 0, uses_anonymous_args = 0
 5282              		@ link register save eliminated.
 5283              		.loc 1 3196 2 view .LVU1426
 5284              		.loc 1 3198 3 view .LVU1427
 5285              		.loc 1 3198 5 is_stmt 0 view .LVU1428
 5286 0000 00B1     		cbz	r0, .L414
 5287              		.loc 1 3200 4 is_stmt 1 view .LVU1429
 5288              	.LVL365:
 5289              		.loc 1 3201 4 view .LVU1430
 5290              		.loc 1 3201 24 is_stmt 0 view .LVU1431
 5291 0002 8164     		str	r1, [r0, #72]
 5292              	.LVL366:
 5293              	.L414:
 5294              		.loc 1 3203 2 view .LVU1432
 5295 0004 7047     		bx	lr
 5296              		.cfi_endproc
 5297              	.LFE40:
 5299              		.section	.text.vTaskGetInfo,"ax",%progbits
 5300              		.align	1
 5301              		.global	vTaskGetInfo
 5302              		.syntax unified
 5303              		.thumb
 5304              		.thumb_func
 5305              		.fpu softvfp
 5307              	vTaskGetInfo:
 5308              	.LVL367:
 5309              	.LFB44:
 5310              		.loc 1 3494 2 is_stmt 1 view -0
 5311              		.cfi_startproc
 5312              		@ args = 0, pretend = 0, frame = 0
 5313              		@ frame_needed = 0, uses_anonymous_args = 0
 5314              		.loc 1 3494 2 is_stmt 0 view .LVU1434
 5315 0000 70B5     		push	{r4, r5, r6, lr}
 5316              	.LCFI45:
 5317              		.cfi_def_cfa_offset 16
 5318              		.cfi_offset 4, -16
 5319              		.cfi_offset 5, -12
 5320              		.cfi_offset 6, -8
 5321              		.cfi_offset 14, -4
 5322 0002 0C46     		mov	r4, r1
 5323 0004 1646     		mov	r6, r2
 5324              		.loc 1 3495 2 is_stmt 1 view .LVU1435
 5325              		.loc 1 3498 3 view .LVU1436
 5326              		.loc 1 3498 11 is_stmt 0 view .LVU1437
 5327 0006 0546     		mov	r5, r0
 5328 0008 D0B1     		cbz	r0, .L425
ARM GAS  C:\Users\38164\AppData\Local\Temp\ccm74k8u.s 			page 93


 5329              	.LVL368:
 5330              	.L417:
 5331              		.loc 1 3500 3 is_stmt 1 discriminator 4 view .LVU1438
 5332              		.loc 1 3500 25 is_stmt 0 discriminator 4 view .LVU1439
 5333 000a 2560     		str	r5, [r4]
 5334              		.loc 1 3501 3 is_stmt 1 discriminator 4 view .LVU1440
 5335              		.loc 1 3501 47 is_stmt 0 discriminator 4 view .LVU1441
 5336 000c 05F13402 		add	r2, r5, #52
 5337              		.loc 1 3501 28 discriminator 4 view .LVU1442
 5338 0010 6260     		str	r2, [r4, #4]
 5339              		.loc 1 3502 3 is_stmt 1 discriminator 4 view .LVU1443
 5340              		.loc 1 3502 42 is_stmt 0 discriminator 4 view .LVU1444
 5341 0012 EA6A     		ldr	r2, [r5, #44]
 5342              		.loc 1 3502 35 discriminator 4 view .LVU1445
 5343 0014 2261     		str	r2, [r4, #16]
 5344              		.loc 1 3503 3 is_stmt 1 discriminator 4 view .LVU1446
 5345              		.loc 1 3503 36 is_stmt 0 discriminator 4 view .LVU1447
 5346 0016 2A6B     		ldr	r2, [r5, #48]
 5347              		.loc 1 3503 29 discriminator 4 view .LVU1448
 5348 0018 E261     		str	r2, [r4, #28]
 5349              		.loc 1 3504 3 is_stmt 1 discriminator 4 view .LVU1449
 5350              		.loc 1 3504 36 is_stmt 0 discriminator 4 view .LVU1450
 5351 001a 6A6C     		ldr	r2, [r5, #68]
 5352              		.loc 1 3504 29 discriminator 4 view .LVU1451
 5353 001c A260     		str	r2, [r4, #8]
 5354              		.loc 1 3508 4 is_stmt 1 discriminator 4 view .LVU1452
 5355              		.loc 1 3508 40 is_stmt 0 discriminator 4 view .LVU1453
 5356 001e EA6C     		ldr	r2, [r5, #76]
 5357              		.loc 1 3508 33 discriminator 4 view .LVU1454
 5358 0020 6261     		str	r2, [r4, #20]
 5359              		.loc 1 3522 4 is_stmt 1 discriminator 4 view .LVU1455
 5360              		.loc 1 3522 35 is_stmt 0 discriminator 4 view .LVU1456
 5361 0022 0022     		movs	r2, #0
 5362 0024 A261     		str	r2, [r4, #24]
 5363              		.loc 1 3529 3 is_stmt 1 discriminator 4 view .LVU1457
 5364              		.loc 1 3529 5 is_stmt 0 discriminator 4 view .LVU1458
 5365 0026 052B     		cmp	r3, #5
 5366 0028 19D0     		beq	.L418
 5367              		.loc 1 3531 4 is_stmt 1 view .LVU1459
 5368              		.loc 1 3531 14 is_stmt 0 view .LVU1460
 5369 002a 124A     		ldr	r2, .L429
 5370 002c 1268     		ldr	r2, [r2]
 5371              		.loc 1 3531 6 view .LVU1461
 5372 002e AA42     		cmp	r2, r5
 5373 0030 09D0     		beq	.L426
 5374              		.loc 1 3537 5 is_stmt 1 view .LVU1462
 5375              		.loc 1 3537 33 is_stmt 0 view .LVU1463
 5376 0032 2373     		strb	r3, [r4, #12]
 5377              		.loc 1 3544 6 is_stmt 1 view .LVU1464
 5378              		.loc 1 3544 8 is_stmt 0 view .LVU1465
 5379 0034 032B     		cmp	r3, #3
 5380 0036 09D0     		beq	.L427
 5381              	.LVL369:
 5382              	.L420:
 5383              		.loc 1 3566 3 is_stmt 1 view .LVU1466
 5384              		.loc 1 3566 5 is_stmt 0 view .LVU1467
 5385 0038 B6B9     		cbnz	r6, .L428
ARM GAS  C:\Users\38164\AppData\Local\Temp\ccm74k8u.s 			page 94


 5386              		.loc 1 3580 4 is_stmt 1 view .LVU1468
 5387              		.loc 1 3580 39 is_stmt 0 view .LVU1469
 5388 003a 0023     		movs	r3, #0
 5389 003c 2384     		strh	r3, [r4, #32]	@ movhi
 5390              	.L416:
 5391              		.loc 1 3582 2 view .LVU1470
 5392 003e 70BD     		pop	{r4, r5, r6, pc}
 5393              	.LVL370:
 5394              	.L425:
 5395              		.loc 1 3498 11 discriminator 1 view .LVU1471
 5396 0040 0C4A     		ldr	r2, .L429
 5397              	.LVL371:
 5398              		.loc 1 3498 11 discriminator 1 view .LVU1472
 5399 0042 1568     		ldr	r5, [r2]
 5400              	.LVL372:
 5401              		.loc 1 3498 11 discriminator 1 view .LVU1473
 5402 0044 E1E7     		b	.L417
 5403              	.LVL373:
 5404              	.L426:
 5405              		.loc 1 3533 5 is_stmt 1 view .LVU1474
 5406              		.loc 1 3533 33 is_stmt 0 view .LVU1475
 5407 0046 0023     		movs	r3, #0
 5408              	.LVL374:
 5409              		.loc 1 3533 33 view .LVU1476
 5410 0048 2373     		strb	r3, [r4, #12]
 5411 004a F5E7     		b	.L420
 5412              	.LVL375:
 5413              	.L427:
 5414              		.loc 1 3546 7 is_stmt 1 view .LVU1477
 5415 004c 0A4B     		ldr	r3, .L429+4
 5416              	.LVL376:
 5417              		.loc 1 3546 7 is_stmt 0 view .LVU1478
 5418 004e 9847     		blx	r3
 5419              	.LVL377:
 5420              		.loc 1 3548 8 is_stmt 1 view .LVU1479
 5421              		.loc 1 3548 12 is_stmt 0 view .LVU1480
 5422 0050 AB6A     		ldr	r3, [r5, #40]
 5423              		.loc 1 3548 10 view .LVU1481
 5424 0052 0BB1     		cbz	r3, .L421
 5425              		.loc 1 3550 9 is_stmt 1 view .LVU1482
 5426              		.loc 1 3550 37 is_stmt 0 view .LVU1483
 5427 0054 0223     		movs	r3, #2
 5428 0056 2373     		strb	r3, [r4, #12]
 5429              	.L421:
 5430              		.loc 1 3553 7 is_stmt 1 view .LVU1484
 5431              		.loc 1 3553 16 is_stmt 0 view .LVU1485
 5432 0058 084B     		ldr	r3, .L429+8
 5433 005a 9847     		blx	r3
 5434              	.LVL378:
 5435 005c ECE7     		b	.L420
 5436              	.LVL379:
 5437              	.L418:
 5438              		.loc 1 3561 4 is_stmt 1 view .LVU1486
 5439              		.loc 1 3561 34 is_stmt 0 view .LVU1487
 5440 005e 2846     		mov	r0, r5
 5441 0060 074B     		ldr	r3, .L429+12
 5442              	.LVL380:
ARM GAS  C:\Users\38164\AppData\Local\Temp\ccm74k8u.s 			page 95


 5443              		.loc 1 3561 34 view .LVU1488
 5444 0062 9847     		blx	r3
 5445              	.LVL381:
 5446              		.loc 1 3561 32 view .LVU1489
 5447 0064 2073     		strb	r0, [r4, #12]
 5448 0066 E7E7     		b	.L420
 5449              	.L428:
 5450              		.loc 1 3574 5 is_stmt 1 view .LVU1490
 5451              		.loc 1 3574 42 is_stmt 0 view .LVU1491
 5452 0068 286B     		ldr	r0, [r5, #48]
 5453 006a 064B     		ldr	r3, .L429+16
 5454 006c 9847     		blx	r3
 5455              	.LVL382:
 5456              		.loc 1 3574 40 view .LVU1492
 5457 006e 2084     		strh	r0, [r4, #32]	@ movhi
 5458 0070 E5E7     		b	.L416
 5459              	.L430:
 5460 0072 00BF     		.align	2
 5461              	.L429:
 5462 0074 00000000 		.word	.LANCHOR10
 5463 0078 00000000 		.word	vTaskSuspendAll
 5464 007c 00000000 		.word	xTaskResumeAll
 5465 0080 00000000 		.word	eTaskGetState
 5466 0084 00000000 		.word	prvTaskCheckFreeStackSpace
 5467              		.cfi_endproc
 5468              	.LFE44:
 5470              		.section	.text.prvListTasksWithinSingleList,"ax",%progbits
 5471              		.align	1
 5472              		.syntax unified
 5473              		.thumb
 5474              		.thumb_func
 5475              		.fpu softvfp
 5477              	prvListTasksWithinSingleList:
 5478              	.LVL383:
 5479              	.LFB45:
 5480              		.loc 1 3590 2 is_stmt 1 view -0
 5481              		.cfi_startproc
 5482              		@ args = 0, pretend = 0, frame = 0
 5483              		@ frame_needed = 0, uses_anonymous_args = 0
 5484              		.loc 1 3590 2 is_stmt 0 view .LVU1494
 5485 0000 2DE9F84F 		push	{r3, r4, r5, r6, r7, r8, r9, r10, fp, lr}
 5486              	.LCFI46:
 5487              		.cfi_def_cfa_offset 40
 5488              		.cfi_offset 3, -40
 5489              		.cfi_offset 4, -36
 5490              		.cfi_offset 5, -32
 5491              		.cfi_offset 6, -28
 5492              		.cfi_offset 7, -24
 5493              		.cfi_offset 8, -20
 5494              		.cfi_offset 9, -16
 5495              		.cfi_offset 10, -12
 5496              		.cfi_offset 11, -8
 5497              		.cfi_offset 14, -4
 5498              		.loc 1 3591 22 is_stmt 1 view .LVU1495
 5499              		.loc 1 3592 2 view .LVU1496
 5500              	.LVL384:
 5501              		.loc 1 3594 3 view .LVU1497
ARM GAS  C:\Users\38164\AppData\Local\Temp\ccm74k8u.s 			page 96


 5502              		.loc 1 3594 7 is_stmt 0 view .LVU1498
 5503 0004 0C68     		ldr	r4, [r1]
 5504              		.loc 1 3594 5 view .LVU1499
 5505 0006 44B3     		cbz	r4, .L431
 5506 0008 0746     		mov	r7, r0
 5507 000a 0D46     		mov	r5, r1
 5508 000c 9046     		mov	r8, r2
 5509              	.LBB210:
 5510              		.loc 1 3596 4 is_stmt 1 view .LVU1500
 5511              	.LVL385:
 5512              		.loc 1 3596 4 view .LVU1501
 5513 000e 4B68     		ldr	r3, [r1, #4]
 5514 0010 5B68     		ldr	r3, [r3, #4]
 5515 0012 4B60     		str	r3, [r1, #4]
 5516              		.loc 1 3596 4 view .LVU1502
 5517 0014 01F10809 		add	r9, r1, #8
 5518 0018 4B45     		cmp	r3, r9
 5519 001a 04D0     		beq	.L437
 5520              	.L433:
 5521              		.loc 1 3596 4 discriminator 3 view .LVU1503
 5522 001c 6B68     		ldr	r3, [r5, #4]
 5523 001e D3F80CA0 		ldr	r10, [r3, #12]
 5524              	.LVL386:
 5525              		.loc 1 3596 4 is_stmt 0 discriminator 3 view .LVU1504
 5526              	.LBE210:
 5527              		.loc 1 3592 14 discriminator 3 view .LVU1505
 5528 0022 0024     		movs	r4, #0
 5529 0024 13E0     		b	.L435
 5530              	.LVL387:
 5531              	.L437:
 5532              	.LBB211:
 5533              		.loc 1 3596 4 is_stmt 1 discriminator 1 view .LVU1506
 5534 0026 5B68     		ldr	r3, [r3, #4]
 5535 0028 4B60     		str	r3, [r1, #4]
 5536 002a F7E7     		b	.L433
 5537              	.LVL388:
 5538              	.L438:
 5539              		.loc 1 3596 4 is_stmt 0 discriminator 1 view .LVU1507
 5540              	.LBE211:
 5541              	.LBB212:
 5542              		.loc 1 3604 5 is_stmt 1 discriminator 1 view .LVU1508
 5543 002c 5B68     		ldr	r3, [r3, #4]
 5544 002e 6B60     		str	r3, [r5, #4]
 5545              	.L434:
 5546              		.loc 1 3604 5 discriminator 3 view .LVU1509
 5547 0030 6B68     		ldr	r3, [r5, #4]
 5548 0032 DE68     		ldr	r6, [r3, #12]
 5549              	.LVL389:
 5550              		.loc 1 3604 5 is_stmt 0 discriminator 3 view .LVU1510
 5551              	.LBE212:
 5552              		.loc 1 3604 53 is_stmt 1 discriminator 3 view .LVU1511
 5553              		.loc 1 3605 5 discriminator 3 view .LVU1512
 5554              		.loc 1 3605 67 is_stmt 0 discriminator 3 view .LVU1513
 5555 0034 04EBC401 		add	r1, r4, r4, lsl #3
 5556              		.loc 1 3605 5 discriminator 3 view .LVU1514
 5557 0038 4346     		mov	r3, r8
 5558 003a 0122     		movs	r2, #1
ARM GAS  C:\Users\38164\AppData\Local\Temp\ccm74k8u.s 			page 97


 5559 003c 07EB8101 		add	r1, r7, r1, lsl #2
 5560 0040 3046     		mov	r0, r6
 5561 0042 DFF81CB0 		ldr	fp, .L439
 5562 0046 D847     		blx	fp
 5563              	.LVL390:
 5564              		.loc 1 3606 5 is_stmt 1 discriminator 3 view .LVU1515
 5565              		.loc 1 3606 11 is_stmt 0 discriminator 3 view .LVU1516
 5566 0048 0134     		adds	r4, r4, #1
 5567              	.LVL391:
 5568              		.loc 1 3607 11 is_stmt 1 discriminator 3 view .LVU1517
 5569              		.loc 1 3607 4 is_stmt 0 discriminator 3 view .LVU1518
 5570 004a B245     		cmp	r10, r6
 5571 004c 05D0     		beq	.L431
 5572              	.LVL392:
 5573              	.L435:
 5574              		.loc 1 3596 53 is_stmt 1 discriminator 4 view .LVU1519
 5575              		.loc 1 3602 4 discriminator 4 view .LVU1520
 5576              	.LBB213:
 5577              		.loc 1 3604 5 discriminator 4 view .LVU1521
 5578              		.loc 1 3604 5 discriminator 4 view .LVU1522
 5579 004e 6B68     		ldr	r3, [r5, #4]
 5580 0050 5B68     		ldr	r3, [r3, #4]
 5581 0052 6B60     		str	r3, [r5, #4]
 5582              		.loc 1 3604 5 discriminator 4 view .LVU1523
 5583 0054 9945     		cmp	r9, r3
 5584 0056 EBD1     		bne	.L434
 5585 0058 E8E7     		b	.L438
 5586              	.LVL393:
 5587              	.L431:
 5588              		.loc 1 3604 5 is_stmt 0 discriminator 4 view .LVU1524
 5589              	.LBE213:
 5590              		.loc 1 3615 2 view .LVU1525
 5591 005a 2046     		mov	r0, r4
 5592 005c BDE8F88F 		pop	{r3, r4, r5, r6, r7, r8, r9, r10, fp, pc}
 5593              	.L440:
 5594              		.align	2
 5595              	.L439:
 5596 0060 00000000 		.word	vTaskGetInfo
 5597              		.cfi_endproc
 5598              	.LFE45:
 5600              		.section	.text.uxTaskGetSystemState,"ax",%progbits
 5601              		.align	1
 5602              		.global	uxTaskGetSystemState
 5603              		.syntax unified
 5604              		.thumb
 5605              		.thumb_func
 5606              		.fpu softvfp
 5608              	uxTaskGetSystemState:
 5609              	.LVL394:
 5610              	.LFB27:
 5611              		.loc 1 2404 2 is_stmt 1 view -0
 5612              		.cfi_startproc
 5613              		@ args = 0, pretend = 0, frame = 0
 5614              		@ frame_needed = 0, uses_anonymous_args = 0
 5615              		.loc 1 2404 2 is_stmt 0 view .LVU1527
 5616 0000 2DE9F041 		push	{r4, r5, r6, r7, r8, lr}
 5617              	.LCFI47:
ARM GAS  C:\Users\38164\AppData\Local\Temp\ccm74k8u.s 			page 98


 5618              		.cfi_def_cfa_offset 24
 5619              		.cfi_offset 4, -24
 5620              		.cfi_offset 5, -20
 5621              		.cfi_offset 6, -16
 5622              		.cfi_offset 7, -12
 5623              		.cfi_offset 8, -8
 5624              		.cfi_offset 14, -4
 5625 0004 0746     		mov	r7, r0
 5626 0006 0C46     		mov	r4, r1
 5627 0008 1646     		mov	r6, r2
 5628              		.loc 1 2405 2 is_stmt 1 view .LVU1528
 5629              	.LVL395:
 5630              		.loc 1 2407 3 view .LVU1529
 5631 000a 234B     		ldr	r3, .L446
 5632 000c 9847     		blx	r3
 5633              	.LVL396:
 5634              		.loc 1 2410 4 view .LVU1530
 5635              		.loc 1 2410 20 is_stmt 0 view .LVU1531
 5636 000e 234B     		ldr	r3, .L446+4
 5637 0010 1B68     		ldr	r3, [r3]
 5638              		.loc 1 2410 6 view .LVU1532
 5639 0012 A342     		cmp	r3, r4
 5640 0014 39D8     		bhi	.L444
 5641              		.loc 1 2405 26 view .LVU1533
 5642 0016 3824     		movs	r4, #56
 5643              	.LVL397:
 5644              		.loc 1 2405 14 view .LVU1534
 5645 0018 0025     		movs	r5, #0
 5646              	.LVL398:
 5647              	.L443:
 5648              		.loc 1 2414 5 is_stmt 1 discriminator 1 view .LVU1535
 5649              		.loc 1 2416 6 discriminator 1 view .LVU1536
 5650              		.loc 1 2416 13 is_stmt 0 discriminator 1 view .LVU1537
 5651 001a 013C     		subs	r4, r4, #1
 5652              	.LVL399:
 5653              		.loc 1 2417 6 is_stmt 1 discriminator 1 view .LVU1538
 5654              		.loc 1 2417 66 is_stmt 0 discriminator 1 view .LVU1539
 5655 001c 05EBC500 		add	r0, r5, r5, lsl #3
 5656              		.loc 1 2417 16 discriminator 1 view .LVU1540
 5657 0020 04EB8401 		add	r1, r4, r4, lsl #2
 5658 0024 0122     		movs	r2, #1
 5659 0026 1E4B     		ldr	r3, .L446+8
 5660 0028 03EB8101 		add	r1, r3, r1, lsl #2
 5661 002c 07EB8000 		add	r0, r7, r0, lsl #2
 5662 0030 1C4B     		ldr	r3, .L446+12
 5663 0032 9847     		blx	r3
 5664              	.LVL400:
 5665              		.loc 1 2417 13 discriminator 1 view .LVU1541
 5666 0034 0544     		add	r5, r5, r0
 5667              	.LVL401:
 5668              		.loc 1 2419 12 is_stmt 1 discriminator 1 view .LVU1542
 5669              		.loc 1 2419 5 is_stmt 0 discriminator 1 view .LVU1543
 5670 0036 002C     		cmp	r4, #0
 5671 0038 EFD1     		bne	.L443
 5672              		.loc 1 2423 5 is_stmt 1 view .LVU1544
 5673              		.loc 1 2423 65 is_stmt 0 view .LVU1545
 5674 003a 05EBC500 		add	r0, r5, r5, lsl #3
ARM GAS  C:\Users\38164\AppData\Local\Temp\ccm74k8u.s 			page 99


 5675              		.loc 1 2423 15 view .LVU1546
 5676 003e 1A4B     		ldr	r3, .L446+16
 5677 0040 1968     		ldr	r1, [r3]
 5678 0042 0222     		movs	r2, #2
 5679 0044 07EB8000 		add	r0, r7, r0, lsl #2
 5680 0048 DFF85880 		ldr	r8, .L446+12
 5681 004c C047     		blx	r8
 5682              	.LVL402:
 5683              		.loc 1 2423 12 view .LVU1547
 5684 004e 0544     		add	r5, r5, r0
 5685              	.LVL403:
 5686              		.loc 1 2424 5 is_stmt 1 view .LVU1548
 5687              		.loc 1 2424 65 is_stmt 0 view .LVU1549
 5688 0050 05EBC500 		add	r0, r5, r5, lsl #3
 5689              		.loc 1 2424 15 view .LVU1550
 5690 0054 154B     		ldr	r3, .L446+20
 5691 0056 1968     		ldr	r1, [r3]
 5692 0058 0222     		movs	r2, #2
 5693 005a 07EB8000 		add	r0, r7, r0, lsl #2
 5694 005e C047     		blx	r8
 5695              	.LVL404:
 5696              		.loc 1 2424 12 view .LVU1551
 5697 0060 0544     		add	r5, r5, r0
 5698              	.LVL405:
 5699              		.loc 1 2430 6 is_stmt 1 view .LVU1552
 5700              		.loc 1 2430 66 is_stmt 0 view .LVU1553
 5701 0062 05EBC500 		add	r0, r5, r5, lsl #3
 5702              		.loc 1 2430 16 view .LVU1554
 5703 0066 0422     		movs	r2, #4
 5704 0068 1149     		ldr	r1, .L446+24
 5705 006a 07EB8000 		add	r0, r7, r0, lsl #2
 5706 006e C047     		blx	r8
 5707              	.LVL406:
 5708              		.loc 1 2430 13 view .LVU1555
 5709 0070 2C18     		adds	r4, r5, r0
 5710              	.LVL407:
 5711              		.loc 1 2438 6 is_stmt 1 view .LVU1556
 5712              		.loc 1 2438 66 is_stmt 0 view .LVU1557
 5713 0072 04EBC400 		add	r0, r4, r4, lsl #3
 5714              		.loc 1 2438 16 view .LVU1558
 5715 0076 0322     		movs	r2, #3
 5716 0078 0E49     		ldr	r1, .L446+28
 5717 007a 07EB8000 		add	r0, r7, r0, lsl #2
 5718 007e C047     		blx	r8
 5719              	.LVL408:
 5720              		.loc 1 2438 13 view .LVU1559
 5721 0080 0444     		add	r4, r4, r0
 5722              	.LVL409:
 5723              		.loc 1 2455 6 is_stmt 1 view .LVU1560
 5724              		.loc 1 2455 8 is_stmt 0 view .LVU1561
 5725 0082 1EB1     		cbz	r6, .L442
 5726              		.loc 1 2457 7 is_stmt 1 view .LVU1562
 5727              		.loc 1 2457 24 is_stmt 0 view .LVU1563
 5728 0084 0023     		movs	r3, #0
 5729 0086 3360     		str	r3, [r6]
 5730 0088 00E0     		b	.L442
 5731              	.LVL410:
ARM GAS  C:\Users\38164\AppData\Local\Temp\ccm74k8u.s 			page 100


 5732              	.L444:
 5733              		.loc 1 2405 14 view .LVU1564
 5734 008a 0024     		movs	r4, #0
 5735              	.LVL411:
 5736              	.L442:
 5737              		.loc 1 2464 29 is_stmt 1 view .LVU1565
 5738              		.loc 1 2467 3 view .LVU1566
 5739              		.loc 1 2467 12 is_stmt 0 view .LVU1567
 5740 008c 0A4B     		ldr	r3, .L446+32
 5741 008e 9847     		blx	r3
 5742              	.LVL412:
 5743              		.loc 1 2469 3 is_stmt 1 view .LVU1568
 5744              		.loc 1 2470 2 is_stmt 0 view .LVU1569
 5745 0090 2046     		mov	r0, r4
 5746 0092 BDE8F081 		pop	{r4, r5, r6, r7, r8, pc}
 5747              	.LVL413:
 5748              	.L447:
 5749              		.loc 1 2470 2 view .LVU1570
 5750 0096 00BF     		.align	2
 5751              	.L446:
 5752 0098 00000000 		.word	vTaskSuspendAll
 5753 009c 00000000 		.word	.LANCHOR9
 5754 00a0 00000000 		.word	.LANCHOR4
 5755 00a4 00000000 		.word	prvListTasksWithinSingleList
 5756 00a8 00000000 		.word	.LANCHOR2
 5757 00ac 00000000 		.word	.LANCHOR8
 5758 00b0 00000000 		.word	.LANCHOR7
 5759 00b4 00000000 		.word	.LANCHOR0
 5760 00b8 00000000 		.word	xTaskResumeAll
 5761              		.cfi_endproc
 5762              	.LFE27:
 5764              		.section	.text.uxTaskGetStackHighWaterMark,"ax",%progbits
 5765              		.align	1
 5766              		.global	uxTaskGetStackHighWaterMark
 5767              		.syntax unified
 5768              		.thumb
 5769              		.thumb_func
 5770              		.fpu softvfp
 5772              	uxTaskGetStackHighWaterMark:
 5773              	.LVL414:
 5774              	.LFB47:
 5775              		.loc 1 3643 2 is_stmt 1 view -0
 5776              		.cfi_startproc
 5777              		@ args = 0, pretend = 0, frame = 0
 5778              		@ frame_needed = 0, uses_anonymous_args = 0
 5779              		.loc 1 3643 2 is_stmt 0 view .LVU1572
 5780 0000 08B5     		push	{r3, lr}
 5781              	.LCFI48:
 5782              		.cfi_def_cfa_offset 8
 5783              		.cfi_offset 3, -8
 5784              		.cfi_offset 14, -4
 5785              		.loc 1 3644 2 is_stmt 1 view .LVU1573
 5786              		.loc 1 3645 2 view .LVU1574
 5787              		.loc 1 3646 2 view .LVU1575
 5788              		.loc 1 3648 3 view .LVU1576
 5789              		.loc 1 3648 11 is_stmt 0 view .LVU1577
 5790 0002 0346     		mov	r3, r0
ARM GAS  C:\Users\38164\AppData\Local\Temp\ccm74k8u.s 			page 101


 5791 0004 18B1     		cbz	r0, .L451
 5792              	.LVL415:
 5793              	.L449:
 5794              		.loc 1 3652 4 is_stmt 1 discriminator 4 view .LVU1578
 5795              		.loc 1 3660 3 discriminator 4 view .LVU1579
 5796              		.loc 1 3660 30 is_stmt 0 discriminator 4 view .LVU1580
 5797 0006 186B     		ldr	r0, [r3, #48]
 5798 0008 024B     		ldr	r3, .L452
 5799              	.LVL416:
 5800              		.loc 1 3660 30 discriminator 4 view .LVU1581
 5801 000a 9847     		blx	r3
 5802              	.LVL417:
 5803              		.loc 1 3662 3 is_stmt 1 discriminator 4 view .LVU1582
 5804              		.loc 1 3663 2 is_stmt 0 discriminator 4 view .LVU1583
 5805 000c 08BD     		pop	{r3, pc}
 5806              	.LVL418:
 5807              	.L451:
 5808              		.loc 1 3648 11 discriminator 1 view .LVU1584
 5809 000e 024B     		ldr	r3, .L452+4
 5810 0010 1B68     		ldr	r3, [r3]
 5811              	.LVL419:
 5812              		.loc 1 3648 11 discriminator 1 view .LVU1585
 5813 0012 F8E7     		b	.L449
 5814              	.L453:
 5815              		.align	2
 5816              	.L452:
 5817 0014 00000000 		.word	prvTaskCheckFreeStackSpace
 5818 0018 00000000 		.word	.LANCHOR10
 5819              		.cfi_endproc
 5820              	.LFE47:
 5822              		.section	.text.xTaskGetCurrentTaskHandle,"ax",%progbits
 5823              		.align	1
 5824              		.global	xTaskGetCurrentTaskHandle
 5825              		.syntax unified
 5826              		.thumb
 5827              		.thumb_func
 5828              		.fpu softvfp
 5830              	xTaskGetCurrentTaskHandle:
 5831              	.LFB50:
 5832              		.loc 1 3751 2 is_stmt 1 view -0
 5833              		.cfi_startproc
 5834              		@ args = 0, pretend = 0, frame = 0
 5835              		@ frame_needed = 0, uses_anonymous_args = 0
 5836              		@ link register save eliminated.
 5837              		.loc 1 3752 2 view .LVU1587
 5838              		.loc 1 3757 3 view .LVU1588
 5839              		.loc 1 3757 11 is_stmt 0 view .LVU1589
 5840 0000 014B     		ldr	r3, .L455
 5841 0002 1868     		ldr	r0, [r3]
 5842              	.LVL420:
 5843              		.loc 1 3759 3 is_stmt 1 view .LVU1590
 5844              		.loc 1 3760 2 is_stmt 0 view .LVU1591
 5845 0004 7047     		bx	lr
 5846              	.L456:
 5847 0006 00BF     		.align	2
 5848              	.L455:
 5849 0008 00000000 		.word	.LANCHOR10
ARM GAS  C:\Users\38164\AppData\Local\Temp\ccm74k8u.s 			page 102


 5850              		.cfi_endproc
 5851              	.LFE50:
 5853              		.section	.text.xTaskGetSchedulerState,"ax",%progbits
 5854              		.align	1
 5855              		.global	xTaskGetSchedulerState
 5856              		.syntax unified
 5857              		.thumb
 5858              		.thumb_func
 5859              		.fpu softvfp
 5861              	xTaskGetSchedulerState:
 5862              	.LFB51:
 5863              		.loc 1 3768 2 is_stmt 1 view -0
 5864              		.cfi_startproc
 5865              		@ args = 0, pretend = 0, frame = 0
 5866              		@ frame_needed = 0, uses_anonymous_args = 0
 5867              		@ link register save eliminated.
 5868              		.loc 1 3769 2 view .LVU1593
 5869              		.loc 1 3771 3 view .LVU1594
 5870              		.loc 1 3771 25 is_stmt 0 view .LVU1595
 5871 0000 054B     		ldr	r3, .L462
 5872 0002 1B68     		ldr	r3, [r3]
 5873              		.loc 1 3771 5 view .LVU1596
 5874 0004 33B1     		cbz	r3, .L459
 5875              		.loc 1 3777 4 is_stmt 1 view .LVU1597
 5876              		.loc 1 3777 29 is_stmt 0 view .LVU1598
 5877 0006 054B     		ldr	r3, .L462+4
 5878 0008 1B68     		ldr	r3, [r3]
 5879              		.loc 1 3777 6 view .LVU1599
 5880 000a 0BB1     		cbz	r3, .L461
 5881              		.loc 1 3783 13 view .LVU1600
 5882 000c 0020     		movs	r0, #0
 5883              	.LVL421:
 5884              		.loc 1 3787 3 is_stmt 1 view .LVU1601
 5885              		.loc 1 3788 2 is_stmt 0 view .LVU1602
 5886 000e 7047     		bx	lr
 5887              	.LVL422:
 5888              	.L461:
 5889              		.loc 1 3779 13 view .LVU1603
 5890 0010 0220     		movs	r0, #2
 5891 0012 7047     		bx	lr
 5892              	.L459:
 5893              		.loc 1 3773 12 view .LVU1604
 5894 0014 0120     		movs	r0, #1
 5895 0016 7047     		bx	lr
 5896              	.L463:
 5897              		.align	2
 5898              	.L462:
 5899 0018 00000000 		.word	.LANCHOR11
 5900 001c 00000000 		.word	.LANCHOR16
 5901              		.cfi_endproc
 5902              	.LFE51:
 5904              		.section	.text.xTaskPriorityInherit,"ax",%progbits
 5905              		.align	1
 5906              		.global	xTaskPriorityInherit
