ARM GAS  C:\Users\38164\AppData\Local\Temp\cciLFpIZ.s 			page 1


   1              		.cpu cortex-m3
   2              		.eabi_attribute 20, 1
   3              		.eabi_attribute 21, 1
   4              		.eabi_attribute 23, 3
   5              		.eabi_attribute 24, 1
   6              		.eabi_attribute 25, 1
   7              		.eabi_attribute 26, 1
   8              		.eabi_attribute 30, 1
   9              		.eabi_attribute 34, 1
  10              		.eabi_attribute 18, 4
  11              		.file	"timers.c"
  12              		.text
  13              	.Ltext0:
  14              		.cfi_sections	.debug_frame
  15              		.section	.text.prvGetNextExpireTime,"ax",%progbits
  16              		.align	1
  17              		.arch armv7-m
  18              		.syntax unified
  19              		.thumb
  20              		.thumb_func
  21              		.fpu softvfp
  23              	prvGetNextExpireTime:
  24              	.LVL0:
  25              	.LFB16:
  26              		.file 1 "../Middlewares/Third_Party/FreeRTOS/Source/timers.c"
   1:../Middlewares/Third_Party/FreeRTOS/Source/timers.c **** 
  27              		.loc 1 599 1 view -0
  28              		.cfi_startproc
  29              		@ args = 0, pretend = 0, frame = 0
  30              		@ frame_needed = 0, uses_anonymous_args = 0
  31              		@ link register save eliminated.
  32              		.loc 1 600 1 view .LVU1
  33              		.loc 1 609 2 view .LVU2
  34              		.loc 1 609 20 is_stmt 0 view .LVU3
  35 0000 064B     		ldr	r3, .L4
  36 0002 1A68     		ldr	r2, [r3]
  37 0004 1368     		ldr	r3, [r2]
  38 0006 B3FA83F3 		clz	r3, r3
  39 000a 5B09     		lsrs	r3, r3, #5
  40              		.loc 1 609 18 view .LVU4
  41 000c 0360     		str	r3, [r0]
  42              		.loc 1 610 2 is_stmt 1 view .LVU5
  43              		.loc 1 610 4 is_stmt 0 view .LVU6
  44 000e 13B9     		cbnz	r3, .L3
  45              		.loc 1 612 3 is_stmt 1 view .LVU7
  46              		.loc 1 612 21 is_stmt 0 view .LVU8
  47 0010 D368     		ldr	r3, [r2, #12]
  48              		.loc 1 612 19 view .LVU9
  49 0012 1868     		ldr	r0, [r3]
  50              	.LVL1:
  51              		.loc 1 612 19 view .LVU10
  52 0014 7047     		bx	lr
  53              	.LVL2:
  54              	.L3:
  55              		.loc 1 617 19 view .LVU11
  56 0016 0020     		movs	r0, #0
  57              	.LVL3:
ARM GAS  C:\Users\38164\AppData\Local\Temp\cciLFpIZ.s 			page 2


  58              		.loc 1 620 2 is_stmt 1 view .LVU12
  59              		.loc 1 621 1 is_stmt 0 view .LVU13
  60 0018 7047     		bx	lr
  61              	.L5:
  62 001a 00BF     		.align	2
  63              	.L4:
  64 001c 00000000 		.word	.LANCHOR0
  65              		.cfi_endproc
  66              	.LFE16:
  68              		.section	.text.prvInsertTimerInActiveList,"ax",%progbits
  69              		.align	1
  70              		.syntax unified
  71              		.thumb
  72              		.thumb_func
  73              		.fpu softvfp
  75              	prvInsertTimerInActiveList:
  76              	.LVL4:
  77              	.LFB18:
  78              		.loc 1 648 1 is_stmt 1 view -0
  79              		.cfi_startproc
  80              		@ args = 0, pretend = 0, frame = 0
  81              		@ frame_needed = 0, uses_anonymous_args = 0
  82              		.loc 1 648 1 is_stmt 0 view .LVU15
  83 0000 08B5     		push	{r3, lr}
  84              	.LCFI0:
  85              		.cfi_def_cfa_offset 8
  86              		.cfi_offset 3, -8
  87              		.cfi_offset 14, -4
  88              		.loc 1 649 1 is_stmt 1 view .LVU16
  89              	.LVL5:
  90              		.loc 1 651 2 view .LVU17
  91 0002 4160     		str	r1, [r0, #4]
  92              		.loc 1 652 2 view .LVU18
  93 0004 0061     		str	r0, [r0, #16]
  94              		.loc 1 654 2 view .LVU19
  95              		.loc 1 654 4 is_stmt 0 view .LVU20
  96 0006 9142     		cmp	r1, r2
  97 0008 0CD8     		bhi	.L7
  98              		.loc 1 658 3 is_stmt 1 view .LVU21
  99              		.loc 1 658 9 is_stmt 0 view .LVU22
 100 000a D21A     		subs	r2, r2, r3
 101              	.LVL6:
 102              		.loc 1 658 64 view .LVU23
 103 000c 8369     		ldr	r3, [r0, #24]
 104              	.LVL7:
 105              		.loc 1 658 5 view .LVU24
 106 000e 9A42     		cmp	r2, r3
 107 0010 01D3     		bcc	.L13
 108              		.loc 1 662 21 view .LVU25
 109 0012 0120     		movs	r0, #1
 110              	.LVL8:
 111              	.L6:
 112              		.loc 1 685 1 view .LVU26
 113 0014 08BD     		pop	{r3, pc}
 114              	.LVL9:
 115              	.L13:
 116              		.loc 1 666 4 is_stmt 1 view .LVU27
ARM GAS  C:\Users\38164\AppData\Local\Temp\cciLFpIZ.s 			page 3


 117 0016 011D     		adds	r1, r0, #4
 118              	.LVL10:
 119              		.loc 1 666 4 is_stmt 0 view .LVU28
 120 0018 094B     		ldr	r3, .L14
 121 001a 1868     		ldr	r0, [r3]
 122              	.LVL11:
 123              		.loc 1 666 4 view .LVU29
 124 001c 094B     		ldr	r3, .L14+4
 125 001e 9847     		blx	r3
 126              	.LVL12:
 127              		.loc 1 649 12 view .LVU30
 128 0020 0020     		movs	r0, #0
 129 0022 F7E7     		b	.L6
 130              	.LVL13:
 131              	.L7:
 132              		.loc 1 671 3 is_stmt 1 view .LVU31
 133              		.loc 1 671 5 is_stmt 0 view .LVU32
 134 0024 9A42     		cmp	r2, r3
 135 0026 01D2     		bcs	.L9
 136              		.loc 1 671 35 discriminator 1 view .LVU33
 137 0028 9942     		cmp	r1, r3
 138 002a 06D2     		bcs	.L11
 139              	.L9:
 140              		.loc 1 680 4 is_stmt 1 view .LVU34
 141 002c 011D     		adds	r1, r0, #4
 142              	.LVL14:
 143              		.loc 1 680 4 is_stmt 0 view .LVU35
 144 002e 064B     		ldr	r3, .L14+8
 145              	.LVL15:
 146              		.loc 1 680 4 view .LVU36
 147 0030 1868     		ldr	r0, [r3]
 148              	.LVL16:
 149              		.loc 1 680 4 view .LVU37
 150 0032 044B     		ldr	r3, .L14+4
 151 0034 9847     		blx	r3
 152              	.LVL17:
 153              		.loc 1 649 12 view .LVU38
 154 0036 0020     		movs	r0, #0
 155 0038 ECE7     		b	.L6
 156              	.LVL18:
 157              	.L11:
 158              		.loc 1 676 21 view .LVU39
 159 003a 0120     		movs	r0, #1
 160              	.LVL19:
 161              		.loc 1 684 2 is_stmt 1 view .LVU40
 162              		.loc 1 684 9 is_stmt 0 view .LVU41
 163 003c EAE7     		b	.L6
 164              	.L15:
 165 003e 00BF     		.align	2
 166              	.L14:
 167 0040 00000000 		.word	.LANCHOR1
 168 0044 00000000 		.word	vListInsert
 169 0048 00000000 		.word	.LANCHOR0
 170              		.cfi_endproc
 171              	.LFE18:
 173              		.section	.rodata.prvCheckForValidListAndQueue.str1.4,"aMS",%progbits,1
 174              		.align	2
ARM GAS  C:\Users\38164\AppData\Local\Temp\cciLFpIZ.s 			page 4


 175              	.LC0:
 176 0000 546D7251 		.ascii	"TmrQ\000"
 176      00
 177              		.section	.text.prvCheckForValidListAndQueue,"ax",%progbits
 178              		.align	1
 179              		.syntax unified
 180              		.thumb
 181              		.thumb_func
 182              		.fpu softvfp
 184              	prvCheckForValidListAndQueue:
 185              	.LFB21:
 186              		.loc 1 895 1 is_stmt 1 view -0
 187              		.cfi_startproc
 188              		@ args = 0, pretend = 0, frame = 0
 189              		@ frame_needed = 0, uses_anonymous_args = 0
 190 0000 70B5     		push	{r4, r5, r6, lr}
 191              	.LCFI1:
 192              		.cfi_def_cfa_offset 16
 193              		.cfi_offset 4, -16
 194              		.cfi_offset 5, -12
 195              		.cfi_offset 6, -8
 196              		.cfi_offset 14, -4
 197 0002 82B0     		sub	sp, sp, #8
 198              	.LCFI2:
 199              		.cfi_def_cfa_offset 24
 200              		.loc 1 899 2 view .LVU43
 201 0004 114B     		ldr	r3, .L20
 202 0006 9847     		blx	r3
 203              	.LVL20:
 204              		.loc 1 901 3 view .LVU44
 205              		.loc 1 901 19 is_stmt 0 view .LVU45
 206 0008 114B     		ldr	r3, .L20+4
 207 000a 1B68     		ldr	r3, [r3]
 208              		.loc 1 901 5 view .LVU46
 209 000c 1BB1     		cbz	r3, .L19
 210              	.L17:
 211              		.loc 1 938 28 is_stmt 1 view .LVU47
 212              		.loc 1 941 2 view .LVU48
 213 000e 114B     		ldr	r3, .L20+8
 214 0010 9847     		blx	r3
 215              	.LVL21:
 216              		.loc 1 942 1 is_stmt 0 view .LVU49
 217 0012 02B0     		add	sp, sp, #8
 218              	.LCFI3:
 219              		.cfi_remember_state
 220              		.cfi_def_cfa_offset 16
 221              		@ sp needed
 222 0014 70BD     		pop	{r4, r5, r6, pc}
 223              	.L19:
 224              	.LCFI4:
 225              		.cfi_restore_state
 226              		.loc 1 903 4 is_stmt 1 view .LVU50
 227 0016 104D     		ldr	r5, .L20+12
 228 0018 2846     		mov	r0, r5
 229 001a 104E     		ldr	r6, .L20+16
 230 001c B047     		blx	r6
 231              	.LVL22:
ARM GAS  C:\Users\38164\AppData\Local\Temp\cciLFpIZ.s 			page 5


 232              		.loc 1 904 4 view .LVU51
 233 001e 104C     		ldr	r4, .L20+20
 234 0020 2046     		mov	r0, r4
 235 0022 B047     		blx	r6
 236              	.LVL23:
 237              		.loc 1 905 4 view .LVU52
 238              		.loc 1 905 23 is_stmt 0 view .LVU53
 239 0024 0F4B     		ldr	r3, .L20+24
 240 0026 1D60     		str	r5, [r3]
 241              		.loc 1 906 4 is_stmt 1 view .LVU54
 242              		.loc 1 906 24 is_stmt 0 view .LVU55
 243 0028 0F4B     		ldr	r3, .L20+28
 244 002a 1C60     		str	r4, [r3]
 245              	.LBB41:
 246              		.loc 1 912 5 is_stmt 1 view .LVU56
 247              		.loc 1 913 5 view .LVU57
 248              		.loc 1 915 5 view .LVU58
 249              		.loc 1 915 19 is_stmt 0 view .LVU59
 250 002c 0023     		movs	r3, #0
 251 002e 0093     		str	r3, [sp]
 252 0030 0E4B     		ldr	r3, .L20+32
 253 0032 0F4A     		ldr	r2, .L20+36
 254 0034 1021     		movs	r1, #16
 255 0036 0A20     		movs	r0, #10
 256 0038 0E4C     		ldr	r4, .L20+40
 257 003a A047     		blx	r4
 258              	.LVL24:
 259              		.loc 1 915 17 view .LVU60
 260 003c 044B     		ldr	r3, .L20+4
 261 003e 1860     		str	r0, [r3]
 262              	.LBE41:
 263              		.loc 1 925 5 is_stmt 1 view .LVU61
 264              		.loc 1 925 7 is_stmt 0 view .LVU62
 265 0040 0028     		cmp	r0, #0
 266 0042 E4D0     		beq	.L17
 267              		.loc 1 927 6 is_stmt 1 view .LVU63
 268 0044 0C49     		ldr	r1, .L20+44
 269 0046 0D4B     		ldr	r3, .L20+48
 270 0048 9847     		blx	r3
 271              	.LVL25:
 272 004a E0E7     		b	.L17
 273              	.L21:
 274              		.align	2
 275              	.L20:
 276 004c 00000000 		.word	vPortEnterCritical
 277 0050 00000000 		.word	.LANCHOR2
 278 0054 00000000 		.word	vPortExitCritical
 279 0058 00000000 		.word	.LANCHOR3
 280 005c 00000000 		.word	vListInitialise
 281 0060 00000000 		.word	.LANCHOR4
 282 0064 00000000 		.word	.LANCHOR0
 283 0068 00000000 		.word	.LANCHOR1
 284 006c 00000000 		.word	.LANCHOR5
 285 0070 00000000 		.word	.LANCHOR6
 286 0074 00000000 		.word	xQueueGenericCreateStatic
 287 0078 00000000 		.word	.LC0
 288 007c 00000000 		.word	vQueueAddToRegistry
ARM GAS  C:\Users\38164\AppData\Local\Temp\cciLFpIZ.s 			page 6


 289              		.cfi_endproc
 290              	.LFE21:
 292              		.section	.text.prvInitialiseNewTimer,"ax",%progbits
 293              		.align	1
 294              		.syntax unified
 295              		.thumb
 296              		.thumb_func
 297              		.fpu softvfp
 299              	prvInitialiseNewTimer:
 300              	.LVL26:
 301              	.LFB7:
 302              		.loc 1 358 1 view -0
 303              		.cfi_startproc
 304              		@ args = 8, pretend = 0, frame = 0
 305              		@ frame_needed = 0, uses_anonymous_args = 0
 306              		.loc 1 358 1 is_stmt 0 view .LVU65
 307 0000 2DE9F041 		push	{r4, r5, r6, r7, r8, lr}
 308              	.LCFI5:
 309              		.cfi_def_cfa_offset 24
 310              		.cfi_offset 4, -24
 311              		.cfi_offset 5, -20
 312              		.cfi_offset 6, -16
 313              		.cfi_offset 7, -12
 314              		.cfi_offset 8, -8
 315              		.cfi_offset 14, -4
 316 0004 079C     		ldr	r4, [sp, #28]
 317              		.loc 1 360 2 is_stmt 1 view .LVU66
 318 0006 41B9     		cbnz	r1, .L23
 319              		.loc 1 360 2 view .LVU67
 320              	.LBB42:
 321              	.LBI42:
 322              		.file 2 "../Middlewares/Third_Party/FreeRTOS/Source/portable/GCC/ARM_CM3/portmacro.h"
   1:../Middlewares/Third_Party/FreeRTOS/Source/portable/GCC/ARM_CM3/portmacro.h **** 
 323              		.loc 2 191 30 view .LVU68
 324              	.LBB43:
 325              		.loc 2 193 1 view .LVU69
 326              		.loc 2 195 2 view .LVU70
 327              		.syntax unified
 328              	@ 195 "Middlewares/Third_Party/FreeRTOS/Source/portable/GCC/ARM_CM3/portmacro.h" 1
 329 0008 4FF05003 			mov r3, #80												
 330 000c 83F31188 		msr basepri, r3											
 331 0010 BFF36F8F 		isb														
 332 0014 BFF34F8F 		dsb														
 333              	
 334              	@ 0 "" 2
 335              	.LVL27:
 336              		.thumb
 337              		.syntax unified
 338              	.L24:
 339              		.loc 2 195 2 is_stmt 0 view .LVU71
 340              	.LBE43:
 341              	.LBE42:
 342              		.loc 1 360 2 is_stmt 1 discriminator 1 view .LVU72
 343              		.loc 1 360 2 discriminator 1 view .LVU73
 344              		.loc 1 360 2 discriminator 1 view .LVU74
 345 0018 FEE7     		b	.L24
 346              	.LVL28:
ARM GAS  C:\Users\38164\AppData\Local\Temp\cciLFpIZ.s 			page 7


 347              	.L23:
 348              		.loc 1 360 2 is_stmt 0 discriminator 1 view .LVU75
 349 001a 0746     		mov	r7, r0
 350 001c 1646     		mov	r6, r2
 351 001e 1D46     		mov	r5, r3
 352 0020 8846     		mov	r8, r1
 353              		.loc 1 360 45 is_stmt 1 discriminator 2 view .LVU76
 354              		.loc 1 362 2 discriminator 2 view .LVU77
 355              		.loc 1 362 4 is_stmt 0 discriminator 2 view .LVU78
 356 0022 5CB1     		cbz	r4, .L22
 357              		.loc 1 366 3 is_stmt 1 view .LVU79
 358 0024 064B     		ldr	r3, .L27
 359              	.LVL29:
 360              		.loc 1 366 3 is_stmt 0 view .LVU80
 361 0026 9847     		blx	r3
 362              	.LVL30:
 363              		.loc 1 370 3 is_stmt 1 view .LVU81
 364              		.loc 1 370 27 is_stmt 0 view .LVU82
 365 0028 2760     		str	r7, [r4]
 366              		.loc 1 371 3 is_stmt 1 view .LVU83
 367              		.loc 1 371 35 is_stmt 0 view .LVU84
 368 002a C4F81880 		str	r8, [r4, #24]
 369              		.loc 1 372 3 is_stmt 1 view .LVU85
 370              		.loc 1 372 28 is_stmt 0 view .LVU86
 371 002e E661     		str	r6, [r4, #28]
 372              		.loc 1 373 3 is_stmt 1 view .LVU87
 373              		.loc 1 373 25 is_stmt 0 view .LVU88
 374 0030 2562     		str	r5, [r4, #32]
 375              		.loc 1 374 3 is_stmt 1 view .LVU89
 376              		.loc 1 374 34 is_stmt 0 view .LVU90
 377 0032 069B     		ldr	r3, [sp, #24]
 378 0034 6362     		str	r3, [r4, #36]
 379              		.loc 1 375 3 is_stmt 1 view .LVU91
 380 0036 201D     		adds	r0, r4, #4
 381 0038 024B     		ldr	r3, .L27+4
 382 003a 9847     		blx	r3
 383              	.LVL31:
 384              		.loc 1 376 34 view .LVU92
 385              	.L22:
 386              		.loc 1 378 1 is_stmt 0 view .LVU93
 387 003c BDE8F081 		pop	{r4, r5, r6, r7, r8, pc}
 388              	.LVL32:
 389              	.L28:
 390              		.loc 1 378 1 view .LVU94
 391              		.align	2
 392              	.L27:
 393 0040 00000000 		.word	prvCheckForValidListAndQueue
 394 0044 00000000 		.word	vListInitialiseItem
 395              		.cfi_endproc
 396              	.LFE7:
 398              		.section	.rodata.xTimerCreateTimerTask.str1.4,"aMS",%progbits,1
 399              		.align	2
 400              	.LC1:
 401 0000 546D7220 		.ascii	"Tmr Svc\000"
 401      53766300 
 402              		.section	.text.xTimerCreateTimerTask,"ax",%progbits
 403              		.align	1
ARM GAS  C:\Users\38164\AppData\Local\Temp\cciLFpIZ.s 			page 8


 404              		.global	xTimerCreateTimerTask
 405              		.syntax unified
 406              		.thumb
 407              		.thumb_func
 408              		.fpu softvfp
 410              	xTimerCreateTimerTask:
 411              	.LFB4:
 412              		.loc 1 224 1 is_stmt 1 view -0
 413              		.cfi_startproc
 414              		@ args = 0, pretend = 0, frame = 16
 415              		@ frame_needed = 0, uses_anonymous_args = 0
 416 0000 10B5     		push	{r4, lr}
 417              	.LCFI6:
 418              		.cfi_def_cfa_offset 8
 419              		.cfi_offset 4, -8
 420              		.cfi_offset 14, -4
 421 0002 88B0     		sub	sp, sp, #32
 422              	.LCFI7:
 423              		.cfi_def_cfa_offset 40
 424              		.loc 1 225 1 view .LVU96
 425              	.LVL33:
 426              		.loc 1 231 2 view .LVU97
 427 0004 134B     		ldr	r3, .L35
 428 0006 9847     		blx	r3
 429              	.LVL34:
 430              		.loc 1 233 2 view .LVU98
 431              		.loc 1 233 18 is_stmt 0 view .LVU99
 432 0008 134B     		ldr	r3, .L35+4
 433 000a 1B68     		ldr	r3, [r3]
 434              		.loc 1 233 4 view .LVU100
 435 000c CBB1     		cbz	r3, .L30
 436              	.LBB44:
 437              		.loc 1 237 4 is_stmt 1 view .LVU101
 438              		.loc 1 237 18 is_stmt 0 view .LVU102
 439 000e 0024     		movs	r4, #0
 440 0010 0594     		str	r4, [sp, #20]
 441              		.loc 1 238 4 is_stmt 1 view .LVU103
 442              		.loc 1 238 17 is_stmt 0 view .LVU104
 443 0012 0694     		str	r4, [sp, #24]
 444              		.loc 1 239 4 is_stmt 1 view .LVU105
 445              		.loc 1 241 4 view .LVU106
 446 0014 07AA     		add	r2, sp, #28
 447 0016 06A9     		add	r1, sp, #24
 448 0018 05A8     		add	r0, sp, #20
 449 001a 104B     		ldr	r3, .L35+8
 450 001c 9847     		blx	r3
 451              	.LVL35:
 452              		.loc 1 242 4 view .LVU107
 453              		.loc 1 242 23 is_stmt 0 view .LVU108
 454 001e 059B     		ldr	r3, [sp, #20]
 455 0020 0293     		str	r3, [sp, #8]
 456 0022 069B     		ldr	r3, [sp, #24]
 457 0024 0193     		str	r3, [sp, #4]
 458 0026 0223     		movs	r3, #2
 459 0028 0093     		str	r3, [sp]
 460 002a 2346     		mov	r3, r4
 461 002c 079A     		ldr	r2, [sp, #28]
ARM GAS  C:\Users\38164\AppData\Local\Temp\cciLFpIZ.s 			page 9


 462 002e 0C49     		ldr	r1, .L35+12
 463 0030 0C48     		ldr	r0, .L35+16
 464 0032 0D4C     		ldr	r4, .L35+20
 465 0034 A047     		blx	r4
 466              	.LVL36:
 467              		.loc 1 242 21 view .LVU109
 468 0036 0D4A     		ldr	r2, .L35+24
 469 0038 1060     		str	r0, [r2]
 470              		.loc 1 250 4 is_stmt 1 view .LVU110
 471              		.loc 1 250 6 is_stmt 0 view .LVU111
 472 003a 10B1     		cbz	r0, .L30
 473              	.LBE44:
 474              		.loc 1 273 1 view .LVU112
 475 003c 0120     		movs	r0, #1
 476 003e 08B0     		add	sp, sp, #32
 477              	.LCFI8:
 478              		.cfi_remember_state
 479              		.cfi_def_cfa_offset 8
 480              		@ sp needed
 481 0040 10BD     		pop	{r4, pc}
 482              	.L30:
 483              	.LCFI9:
 484              		.cfi_restore_state
 485              	.LVL37:
 486              		.loc 1 271 2 is_stmt 1 view .LVU113
 487              	.LBB45:
 488              	.LBI45:
 489              		.loc 2 191 30 view .LVU114
 490              	.LBB46:
 491              		.loc 2 193 1 view .LVU115
 492              		.loc 2 195 2 view .LVU116
 493              		.syntax unified
 494              	@ 195 "Middlewares/Third_Party/FreeRTOS/Source/portable/GCC/ARM_CM3/portmacro.h" 1
 495 0042 4FF05003 			mov r3, #80												
 496 0046 83F31188 		msr basepri, r3											
 497 004a BFF36F8F 		isb														
 498 004e BFF34F8F 		dsb														
 499              	
 500              	@ 0 "" 2
 501              	.LVL38:
 502              		.thumb
 503              		.syntax unified
 504              	.L32:
 505              		.loc 2 195 2 is_stmt 0 view .LVU117
 506              	.LBE46:
 507              	.LBE45:
 508              		.loc 1 271 2 is_stmt 1 discriminator 1 view .LVU118
 509              		.loc 1 271 2 discriminator 1 view .LVU119
 510              		.loc 1 271 2 discriminator 1 view .LVU120
 511 0052 FEE7     		b	.L32
 512              	.L36:
 513              		.align	2
 514              	.L35:
 515 0054 00000000 		.word	prvCheckForValidListAndQueue
 516 0058 00000000 		.word	.LANCHOR2
 517 005c 00000000 		.word	vApplicationGetTimerTaskMemory
 518 0060 00000000 		.word	.LC1
ARM GAS  C:\Users\38164\AppData\Local\Temp\cciLFpIZ.s 			page 10


 519 0064 00000000 		.word	prvTimerTask
 520 0068 00000000 		.word	xTaskCreateStatic
 521 006c 00000000 		.word	.LANCHOR7
 522              		.cfi_endproc
 523              	.LFE4:
 525              		.section	.text.xTimerCreate,"ax",%progbits
 526              		.align	1
 527              		.global	xTimerCreate
 528              		.syntax unified
 529              		.thumb
 530              		.thumb_func
 531              		.fpu softvfp
 533              	xTimerCreate:
 534              	.LVL39:
 535              	.LFB5:
 536              		.loc 1 283 2 view -0
 537              		.cfi_startproc
 538              		@ args = 4, pretend = 0, frame = 0
 539              		@ frame_needed = 0, uses_anonymous_args = 0
 540              		.loc 1 283 2 is_stmt 0 view .LVU122
 541 0000 2DE9F041 		push	{r4, r5, r6, r7, r8, lr}
 542              	.LCFI10:
 543              		.cfi_def_cfa_offset 24
 544              		.cfi_offset 4, -24
 545              		.cfi_offset 5, -20
 546              		.cfi_offset 6, -16
 547              		.cfi_offset 7, -12
 548              		.cfi_offset 8, -8
 549              		.cfi_offset 14, -4
 550 0004 82B0     		sub	sp, sp, #8
 551              	.LCFI11:
 552              		.cfi_def_cfa_offset 32
 553 0006 0446     		mov	r4, r0
 554 0008 0D46     		mov	r5, r1
 555 000a 9046     		mov	r8, r2
 556 000c 1E46     		mov	r6, r3
 557              		.loc 1 284 2 is_stmt 1 view .LVU123
 558              		.loc 1 286 3 view .LVU124
 559              		.loc 1 286 30 is_stmt 0 view .LVU125
 560 000e 3020     		movs	r0, #48
 561              	.LVL40:
 562              		.loc 1 286 30 view .LVU126
 563 0010 094B     		ldr	r3, .L40
 564              	.LVL41:
 565              		.loc 1 286 30 view .LVU127
 566 0012 9847     		blx	r3
 567              	.LVL42:
 568              		.loc 1 288 3 is_stmt 1 view .LVU128
 569              		.loc 1 288 5 is_stmt 0 view .LVU129
 570 0014 0746     		mov	r7, r0
 571 0016 58B1     		cbz	r0, .L37
 572              		.loc 1 290 4 is_stmt 1 view .LVU130
 573 0018 0190     		str	r0, [sp, #4]
 574 001a 089B     		ldr	r3, [sp, #32]
 575 001c 0093     		str	r3, [sp]
 576 001e 3346     		mov	r3, r6
 577 0020 4246     		mov	r2, r8
ARM GAS  C:\Users\38164\AppData\Local\Temp\cciLFpIZ.s 			page 11


 578 0022 2946     		mov	r1, r5
 579 0024 2046     		mov	r0, r4
 580              	.LVL43:
 581              		.loc 1 290 4 is_stmt 0 view .LVU131
 582 0026 054C     		ldr	r4, .L40+4
 583              	.LVL44:
 584              		.loc 1 290 4 view .LVU132
 585 0028 A047     		blx	r4
 586              	.LVL45:
 587              		.loc 1 297 5 is_stmt 1 view .LVU133
 588              		.loc 1 297 39 is_stmt 0 view .LVU134
 589 002a 0023     		movs	r3, #0
 590 002c 87F82C30 		strb	r3, [r7, #44]
 591              		.loc 1 302 3 is_stmt 1 view .LVU135
 592              	.L37:
 593              		.loc 1 303 2 is_stmt 0 view .LVU136
 594 0030 3846     		mov	r0, r7
 595 0032 02B0     		add	sp, sp, #8
 596              	.LCFI12:
 597              		.cfi_def_cfa_offset 24
 598              		@ sp needed
 599 0034 BDE8F081 		pop	{r4, r5, r6, r7, r8, pc}
 600              	.LVL46:
 601              	.L41:
 602              		.loc 1 303 2 view .LVU137
 603              		.align	2
 604              	.L40:
 605 0038 00000000 		.word	pvPortMalloc
 606 003c 00000000 		.word	prvInitialiseNewTimer
 607              		.cfi_endproc
 608              	.LFE5:
 610              		.section	.text.xTimerCreateStatic,"ax",%progbits
 611              		.align	1
 612              		.global	xTimerCreateStatic
 613              		.syntax unified
 614              		.thumb
 615              		.thumb_func
 616              		.fpu softvfp
 618              	xTimerCreateStatic:
 619              	.LVL47:
 620              	.LFB6:
 621              		.loc 1 316 2 is_stmt 1 view -0
 622              		.cfi_startproc
 623              		@ args = 8, pretend = 0, frame = 8
 624              		@ frame_needed = 0, uses_anonymous_args = 0
 625              		.loc 1 316 2 is_stmt 0 view .LVU139
 626 0000 30B5     		push	{r4, r5, lr}
 627              	.LCFI13:
 628              		.cfi_def_cfa_offset 12
 629              		.cfi_offset 4, -12
 630              		.cfi_offset 5, -8
 631              		.cfi_offset 14, -4
 632 0002 85B0     		sub	sp, sp, #20
 633              	.LCFI14:
 634              		.cfi_def_cfa_offset 32
 635 0004 099C     		ldr	r4, [sp, #36]
 636              		.loc 1 317 2 is_stmt 1 view .LVU140
ARM GAS  C:\Users\38164\AppData\Local\Temp\cciLFpIZ.s 			page 12


 637              	.LBB47:
 638              		.loc 1 324 4 view .LVU141
 639              		.loc 1 324 20 is_stmt 0 view .LVU142
 640 0006 3025     		movs	r5, #48
 641 0008 0395     		str	r5, [sp, #12]
 642              		.loc 1 325 4 is_stmt 1 view .LVU143
 643 000a 039D     		ldr	r5, [sp, #12]
 644 000c 302D     		cmp	r5, #48
 645 000e 08D0     		beq	.L43
 646              		.loc 1 325 4 view .LVU144
 647              	.LBB48:
 648              	.LBI48:
 649              		.loc 2 191 30 view .LVU145
 650              	.LBB49:
 651              		.loc 2 193 1 view .LVU146
 652              		.loc 2 195 2 view .LVU147
 653              		.syntax unified
 654              	@ 195 "Middlewares/Third_Party/FreeRTOS/Source/portable/GCC/ARM_CM3/portmacro.h" 1
 655 0010 4FF05003 			mov r3, #80												
 656 0014 83F31188 		msr basepri, r3											
 657 0018 BFF36F8F 		isb														
 658 001c BFF34F8F 		dsb														
 659              	
 660              	@ 0 "" 2
 661              	.LVL48:
 662              		.thumb
 663              		.syntax unified
 664              	.L44:
 665              		.loc 2 195 2 is_stmt 0 view .LVU148
 666              	.LBE49:
 667              	.LBE48:
 668              		.loc 1 325 4 is_stmt 1 discriminator 1 view .LVU149
 669              		.loc 1 325 4 discriminator 1 view .LVU150
 670              		.loc 1 325 4 discriminator 1 view .LVU151
 671 0020 FEE7     		b	.L44
 672              	.LVL49:
 673              	.L43:
 674              		.loc 1 325 46 discriminator 2 view .LVU152
 675              	.LBE47:
 676              		.loc 1 330 3 discriminator 2 view .LVU153
 677 0022 54B1     		cbz	r4, .L48
 678              		.loc 1 330 32 view .LVU154
 679              		.loc 1 331 3 view .LVU155
 680              	.LVL50:
 681              		.loc 1 333 3 view .LVU156
 682              		.loc 1 335 4 view .LVU157
 683 0024 0194     		str	r4, [sp, #4]
 684 0026 089D     		ldr	r5, [sp, #32]
 685 0028 0095     		str	r5, [sp]
 686 002a 084D     		ldr	r5, .L49
 687 002c A847     		blx	r5
 688              	.LVL51:
 689              		.loc 1 341 5 view .LVU158
 690              		.loc 1 341 39 is_stmt 0 view .LVU159
 691 002e 0123     		movs	r3, #1
 692 0030 84F82C30 		strb	r3, [r4, #44]
 693              		.loc 1 346 3 is_stmt 1 view .LVU160
ARM GAS  C:\Users\38164\AppData\Local\Temp\cciLFpIZ.s 			page 13


 694              		.loc 1 347 2 is_stmt 0 view .LVU161
 695 0034 2046     		mov	r0, r4
 696 0036 05B0     		add	sp, sp, #20
 697              	.LCFI15:
 698              		.cfi_remember_state
 699              		.cfi_def_cfa_offset 12
 700              		@ sp needed
 701 0038 30BD     		pop	{r4, r5, pc}
 702              	.LVL52:
 703              	.L48:
 704              	.LCFI16:
 705              		.cfi_restore_state
 706              		.loc 1 330 3 is_stmt 1 view .LVU162
 707              	.LBB50:
 708              	.LBI50:
 709              		.loc 2 191 30 view .LVU163
 710              	.LBB51:
 711              		.loc 2 193 1 view .LVU164
 712              		.loc 2 195 2 view .LVU165
 713              		.syntax unified
 714              	@ 195 "Middlewares/Third_Party/FreeRTOS/Source/portable/GCC/ARM_CM3/portmacro.h" 1
 715 003a 4FF05003 			mov r3, #80												
 716 003e 83F31188 		msr basepri, r3											
 717 0042 BFF36F8F 		isb														
 718 0046 BFF34F8F 		dsb														
 719              	
 720              	@ 0 "" 2
 721              	.LVL53:
 722              		.thumb
 723              		.syntax unified
 724              	.L46:
 725              		.loc 2 195 2 is_stmt 0 view .LVU166
 726              	.LBE51:
 727              	.LBE50:
 728              		.loc 1 330 3 is_stmt 1 discriminator 2 view .LVU167
 729              		.loc 1 330 3 discriminator 2 view .LVU168
 730              		.loc 1 330 3 discriminator 2 view .LVU169
 731 004a FEE7     		b	.L46
 732              	.L50:
 733              		.align	2
 734              	.L49:
 735 004c 00000000 		.word	prvInitialiseNewTimer
 736              		.cfi_endproc
 737              	.LFE6:
 739              		.section	.text.xTimerGenericCommand,"ax",%progbits
 740              		.align	1
 741              		.global	xTimerGenericCommand
 742              		.syntax unified
 743              		.thumb
 744              		.thumb_func
 745              		.fpu softvfp
 747              	xTimerGenericCommand:
 748              	.LVL54:
 749              	.LFB8:
 750              		.loc 1 382 1 view -0
 751              		.cfi_startproc
 752              		@ args = 4, pretend = 0, frame = 16
ARM GAS  C:\Users\38164\AppData\Local\Temp\cciLFpIZ.s 			page 14


 753              		@ frame_needed = 0, uses_anonymous_args = 0
 754              		.loc 1 383 1 view .LVU171
 755              		.loc 1 384 1 view .LVU172
 756              		.loc 1 386 2 view .LVU173
 757 0000 C0B1     		cbz	r0, .L60
 758              		.loc 1 382 1 is_stmt 0 discriminator 2 view .LVU174
 759 0002 10B5     		push	{r4, lr}
 760              	.LCFI17:
 761              		.cfi_def_cfa_offset 8
 762              		.cfi_offset 4, -8
 763              		.cfi_offset 14, -4
 764 0004 84B0     		sub	sp, sp, #16
 765              	.LCFI18:
 766              		.cfi_def_cfa_offset 24
 767 0006 1446     		mov	r4, r2
 768 0008 1A46     		mov	r2, r3
 769              	.LVL55:
 770              		.loc 1 382 1 discriminator 2 view .LVU175
 771 000a 0346     		mov	r3, r0
 772              	.LVL56:
 773              		.loc 1 386 24 is_stmt 1 discriminator 2 view .LVU176
 774              		.loc 1 390 2 discriminator 2 view .LVU177
 775              		.loc 1 390 18 is_stmt 0 discriminator 2 view .LVU178
 776 000c 1648     		ldr	r0, .L62
 777              	.LVL57:
 778              		.loc 1 390 18 discriminator 2 view .LVU179
 779 000e 0068     		ldr	r0, [r0]
 780              		.loc 1 390 4 discriminator 2 view .LVU180
 781 0010 38B3     		cbz	r0, .L57
 782              		.loc 1 393 3 is_stmt 1 view .LVU181
 783              		.loc 1 393 23 is_stmt 0 view .LVU182
 784 0012 0091     		str	r1, [sp]
 785              		.loc 1 394 3 is_stmt 1 view .LVU183
 786              		.loc 1 394 45 is_stmt 0 view .LVU184
 787 0014 0194     		str	r4, [sp, #4]
 788              		.loc 1 395 3 is_stmt 1 view .LVU185
 789              		.loc 1 395 39 is_stmt 0 view .LVU186
 790 0016 0293     		str	r3, [sp, #8]
 791              		.loc 1 397 3 is_stmt 1 view .LVU187
 792              		.loc 1 397 5 is_stmt 0 view .LVU188
 793 0018 0529     		cmp	r1, #5
 794 001a 1CDC     		bgt	.L55
 795              		.loc 1 399 4 is_stmt 1 view .LVU189
 796              		.loc 1 399 8 is_stmt 0 view .LVU190
 797 001c 134B     		ldr	r3, .L62+4
 798              	.LVL58:
 799              		.loc 1 399 8 view .LVU191
 800 001e 9847     		blx	r3
 801              	.LVL59:
 802              		.loc 1 399 6 view .LVU192
 803 0020 0228     		cmp	r0, #2
 804 0022 10D0     		beq	.L61
 805              		.loc 1 405 5 is_stmt 1 view .LVU193
 806              		.loc 1 405 15 is_stmt 0 view .LVU194
 807 0024 0023     		movs	r3, #0
 808 0026 1A46     		mov	r2, r3
 809 0028 6946     		mov	r1, sp
ARM GAS  C:\Users\38164\AppData\Local\Temp\cciLFpIZ.s 			page 15


 810 002a 0F48     		ldr	r0, .L62
 811 002c 0068     		ldr	r0, [r0]
 812 002e 104C     		ldr	r4, .L62+8
 813              	.LVL60:
 814              		.loc 1 405 15 view .LVU195
 815 0030 A047     		blx	r4
 816              	.LVL61:
 817              		.loc 1 405 15 view .LVU196
 818 0032 14E0     		b	.L51
 819              	.LVL62:
 820              	.L60:
 821              	.LCFI19:
 822              		.cfi_def_cfa_offset 0
 823              		.cfi_restore 4
 824              		.cfi_restore 14
 825              		.loc 1 386 2 is_stmt 1 view .LVU197
 826              	.LBB52:
 827              	.LBI52:
 828              		.loc 2 191 30 view .LVU198
 829              	.LBB53:
 830              		.loc 2 193 1 view .LVU199
 831              		.loc 2 195 2 view .LVU200
 832              		.syntax unified
 833              	@ 195 "Middlewares/Third_Party/FreeRTOS/Source/portable/GCC/ARM_CM3/portmacro.h" 1
 834 0034 4FF05003 			mov r3, #80												
 835 0038 83F31188 		msr basepri, r3											
 836 003c BFF36F8F 		isb														
 837 0040 BFF34F8F 		dsb														
 838              	
 839              	@ 0 "" 2
 840              	.LVL63:
 841              		.thumb
 842              		.syntax unified
 843              	.L53:
 844              		.loc 2 195 2 is_stmt 0 view .LVU201
 845              	.LBE53:
 846              	.LBE52:
 847              		.loc 1 386 2 is_stmt 1 discriminator 1 view .LVU202
 848              		.loc 1 386 2 discriminator 1 view .LVU203
 849              		.loc 1 386 2 discriminator 1 view .LVU204
 850 0044 FEE7     		b	.L53
 851              	.LVL64:
 852              	.L61:
 853              	.LCFI20:
 854              		.cfi_def_cfa_offset 24
 855              		.cfi_offset 4, -8
 856              		.cfi_offset 14, -4
 857              		.loc 1 401 5 view .LVU205
 858              		.loc 1 401 15 is_stmt 0 view .LVU206
 859 0046 0023     		movs	r3, #0
 860 0048 069A     		ldr	r2, [sp, #24]
 861 004a 6946     		mov	r1, sp
 862 004c 0648     		ldr	r0, .L62
 863 004e 0068     		ldr	r0, [r0]
 864 0050 074C     		ldr	r4, .L62+8
 865              	.LVL65:
 866              		.loc 1 401 15 view .LVU207
ARM GAS  C:\Users\38164\AppData\Local\Temp\cciLFpIZ.s 			page 16


 867 0052 A047     		blx	r4
 868              	.LVL66:
 869              		.loc 1 401 15 view .LVU208
 870 0054 03E0     		b	.L51
 871              	.LVL67:
 872              	.L55:
 873              		.loc 1 410 4 is_stmt 1 view .LVU209
 874              		.loc 1 410 14 is_stmt 0 view .LVU210
 875 0056 0023     		movs	r3, #0
 876              	.LVL68:
 877              		.loc 1 410 14 view .LVU211
 878 0058 6946     		mov	r1, sp
 879              	.LVL69:
 880              		.loc 1 410 14 view .LVU212
 881 005a 064C     		ldr	r4, .L62+12
 882              	.LVL70:
 883              		.loc 1 410 14 view .LVU213
 884 005c A047     		blx	r4
 885              	.LVL71:
 886              	.L51:
 887              		.loc 1 421 1 view .LVU214
 888 005e 04B0     		add	sp, sp, #16
 889              	.LCFI21:
 890              		.cfi_remember_state
 891              		.cfi_def_cfa_offset 8
 892              		@ sp needed
 893 0060 10BD     		pop	{r4, pc}
 894              	.LVL72:
 895              	.L57:
 896              	.LCFI22:
 897              		.cfi_restore_state
 898              		.loc 1 383 12 view .LVU215
 899 0062 0020     		movs	r0, #0
 900              		.loc 1 417 27 is_stmt 1 view .LVU216
 901              		.loc 1 420 2 view .LVU217
 902              		.loc 1 420 9 is_stmt 0 view .LVU218
 903 0064 FBE7     		b	.L51
 904              	.L63:
 905 0066 00BF     		.align	2
 906              	.L62:
 907 0068 00000000 		.word	.LANCHOR2
 908 006c 00000000 		.word	xTaskGetSchedulerState
 909 0070 00000000 		.word	xQueueGenericSend
 910 0074 00000000 		.word	xQueueGenericSendFromISR
 911              		.cfi_endproc
 912              	.LFE8:
 914              		.section	.text.prvSwitchTimerLists,"ax",%progbits
 915              		.align	1
 916              		.syntax unified
 917              		.thumb
 918              		.thumb_func
 919              		.fpu softvfp
 921              	prvSwitchTimerLists:
 922              	.LFB20:
 923              		.loc 1 836 1 is_stmt 1 view -0
 924              		.cfi_startproc
 925              		@ args = 0, pretend = 0, frame = 0
ARM GAS  C:\Users\38164\AppData\Local\Temp\cciLFpIZ.s 			page 17


 926              		@ frame_needed = 0, uses_anonymous_args = 0
 927 0000 70B5     		push	{r4, r5, r6, lr}
 928              	.LCFI23:
 929              		.cfi_def_cfa_offset 16
 930              		.cfi_offset 4, -16
 931              		.cfi_offset 5, -12
 932              		.cfi_offset 6, -8
 933              		.cfi_offset 14, -4
 934 0002 82B0     		sub	sp, sp, #8
 935              	.LCFI24:
 936              		.cfi_def_cfa_offset 24
 937              		.loc 1 837 1 view .LVU220
 938              		.loc 1 838 1 view .LVU221
 939              		.loc 1 839 1 view .LVU222
 940              		.loc 1 840 1 view .LVU223
 941              		.loc 1 846 2 view .LVU224
 942              	.L66:
 943              		.loc 1 884 28 view .LVU225
 944              		.loc 1 846 7 view .LVU226
 945              		.loc 1 846 9 is_stmt 0 view .LVU227
 946 0004 1B4B     		ldr	r3, .L73
 947 0006 1B68     		ldr	r3, [r3]
 948 0008 1A68     		ldr	r2, [r3]
 949              		.loc 1 846 7 view .LVU228
 950 000a 002A     		cmp	r2, #0
 951 000c 2AD0     		beq	.L72
 952              		.loc 1 848 3 is_stmt 1 view .LVU229
 953              		.loc 1 848 21 is_stmt 0 view .LVU230
 954 000e DB68     		ldr	r3, [r3, #12]
 955              		.loc 1 848 19 view .LVU231
 956 0010 1E68     		ldr	r6, [r3]
 957              	.LVL73:
 958              		.loc 1 851 3 is_stmt 1 view .LVU232
 959              		.loc 1 851 11 is_stmt 0 view .LVU233
 960 0012 DC68     		ldr	r4, [r3, #12]
 961              	.LVL74:
 962              		.loc 1 852 3 is_stmt 1 view .LVU234
 963              		.loc 1 852 12 is_stmt 0 view .LVU235
 964 0014 251D     		adds	r5, r4, #4
 965 0016 2846     		mov	r0, r5
 966 0018 174B     		ldr	r3, .L73+4
 967 001a 9847     		blx	r3
 968              	.LVL75:
 969              		.loc 1 853 32 is_stmt 1 view .LVU236
 970              		.loc 1 858 3 view .LVU237
 971              		.loc 1 858 10 is_stmt 0 view .LVU238
 972 001c 636A     		ldr	r3, [r4, #36]
 973              		.loc 1 858 3 view .LVU239
 974 001e 2046     		mov	r0, r4
 975 0020 9847     		blx	r3
 976              	.LVL76:
 977              		.loc 1 860 3 is_stmt 1 view .LVU240
 978              		.loc 1 860 14 is_stmt 0 view .LVU241
 979 0022 E369     		ldr	r3, [r4, #28]
 980              		.loc 1 860 5 view .LVU242
 981 0024 012B     		cmp	r3, #1
 982 0026 EDD1     		bne	.L66
ARM GAS  C:\Users\38164\AppData\Local\Temp\cciLFpIZ.s 			page 18


 983              		.loc 1 868 4 is_stmt 1 view .LVU243
 984              		.loc 1 868 45 is_stmt 0 view .LVU244
 985 0028 A369     		ldr	r3, [r4, #24]
 986              		.loc 1 868 16 view .LVU245
 987 002a 3344     		add	r3, r3, r6
 988              	.LVL77:
 989              		.loc 1 869 4 is_stmt 1 view .LVU246
 990              		.loc 1 869 6 is_stmt 0 view .LVU247
 991 002c 9E42     		cmp	r6, r3
 992 002e 07D2     		bcs	.L67
 993              		.loc 1 871 5 is_stmt 1 view .LVU248
 994 0030 6360     		str	r3, [r4, #4]
 995              		.loc 1 872 5 view .LVU249
 996 0032 2461     		str	r4, [r4, #16]
 997              		.loc 1 873 5 view .LVU250
 998 0034 2946     		mov	r1, r5
 999 0036 0F4B     		ldr	r3, .L73
 1000              	.LVL78:
 1001              		.loc 1 873 5 is_stmt 0 view .LVU251
 1002 0038 1868     		ldr	r0, [r3]
 1003 003a 104B     		ldr	r3, .L73+8
 1004 003c 9847     		blx	r3
 1005              	.LVL79:
 1006              		.loc 1 873 5 view .LVU252
 1007 003e E1E7     		b	.L66
 1008              	.LVL80:
 1009              	.L67:
 1010              		.loc 1 877 5 is_stmt 1 view .LVU253
 1011              		.loc 1 877 15 is_stmt 0 view .LVU254
 1012 0040 0021     		movs	r1, #0
 1013 0042 0091     		str	r1, [sp]
 1014 0044 0B46     		mov	r3, r1
 1015              	.LVL81:
 1016              		.loc 1 877 15 view .LVU255
 1017 0046 3246     		mov	r2, r6
 1018 0048 2046     		mov	r0, r4
 1019 004a 0D4C     		ldr	r4, .L73+12
 1020              	.LVL82:
 1021              		.loc 1 877 15 view .LVU256
 1022 004c A047     		blx	r4
 1023              	.LVL83:
 1024              		.loc 1 878 5 is_stmt 1 view .LVU257
 1025 004e 0028     		cmp	r0, #0
 1026 0050 D8D1     		bne	.L66
 1027              		.loc 1 878 5 view .LVU258
 1028              	.LBB54:
 1029              	.LBI54:
 1030              		.loc 2 191 30 view .LVU259
 1031              	.LBB55:
 1032              		.loc 2 193 1 view .LVU260
 1033              		.loc 2 195 2 view .LVU261
 1034              		.syntax unified
 1035              	@ 195 "Middlewares/Third_Party/FreeRTOS/Source/portable/GCC/ARM_CM3/portmacro.h" 1
 1036 0052 4FF05003 			mov r3, #80												
 1037 0056 83F31188 		msr basepri, r3											
 1038 005a BFF36F8F 		isb														
 1039 005e BFF34F8F 		dsb														
ARM GAS  C:\Users\38164\AppData\Local\Temp\cciLFpIZ.s 			page 19


 1040              	
 1041              	@ 0 "" 2
 1042              	.LVL84:
 1043              		.thumb
 1044              		.syntax unified
 1045              	.L69:
 1046              		.loc 2 195 2 is_stmt 0 view .LVU262
 1047              	.LBE55:
 1048              	.LBE54:
 1049              		.loc 1 878 5 is_stmt 1 discriminator 1 view .LVU263
 1050              		.loc 1 878 5 discriminator 1 view .LVU264
 1051              		.loc 1 878 5 discriminator 1 view .LVU265
 1052 0062 FEE7     		b	.L69
 1053              	.LVL85:
 1054              	.L72:
 1055              		.loc 1 888 2 view .LVU266
 1056              		.loc 1 889 2 view .LVU267
 1057              		.loc 1 889 21 is_stmt 0 view .LVU268
 1058 0064 074A     		ldr	r2, .L73+16
 1059 0066 1068     		ldr	r0, [r2]
 1060 0068 0249     		ldr	r1, .L73
 1061 006a 0860     		str	r0, [r1]
 1062              		.loc 1 890 2 is_stmt 1 view .LVU269
 1063              		.loc 1 890 22 is_stmt 0 view .LVU270
 1064 006c 1360     		str	r3, [r2]
 1065              		.loc 1 891 1 view .LVU271
 1066 006e 02B0     		add	sp, sp, #8
 1067              	.LCFI25:
 1068              		.cfi_def_cfa_offset 16
 1069              		@ sp needed
 1070 0070 70BD     		pop	{r4, r5, r6, pc}
 1071              	.L74:
 1072 0072 00BF     		.align	2
 1073              	.L73:
 1074 0074 00000000 		.word	.LANCHOR0
 1075 0078 00000000 		.word	uxListRemove
 1076 007c 00000000 		.word	vListInsert
 1077 0080 00000000 		.word	xTimerGenericCommand
 1078 0084 00000000 		.word	.LANCHOR1
 1079              		.cfi_endproc
 1080              	.LFE20:
 1082              		.section	.text.prvSampleTimeNow,"ax",%progbits
 1083              		.align	1
 1084              		.syntax unified
 1085              		.thumb
 1086              		.thumb_func
 1087              		.fpu softvfp
 1089              	prvSampleTimeNow:
 1090              	.LVL86:
 1091              	.LFB17:
 1092              		.loc 1 625 1 is_stmt 1 view -0
 1093              		.cfi_startproc
 1094              		@ args = 0, pretend = 0, frame = 0
 1095              		@ frame_needed = 0, uses_anonymous_args = 0
 1096              		.loc 1 625 1 is_stmt 0 view .LVU273
 1097 0000 38B5     		push	{r3, r4, r5, lr}
 1098              	.LCFI26:
ARM GAS  C:\Users\38164\AppData\Local\Temp\cciLFpIZ.s 			page 20


 1099              		.cfi_def_cfa_offset 16
 1100              		.cfi_offset 3, -16
 1101              		.cfi_offset 4, -12
 1102              		.cfi_offset 5, -8
 1103              		.cfi_offset 14, -4
 1104 0002 0546     		mov	r5, r0
 1105              		.loc 1 626 1 is_stmt 1 view .LVU274
 1106              		.loc 1 627 17 view .LVU275
 1107              		.loc 1 629 2 view .LVU276
 1108              		.loc 1 629 13 is_stmt 0 view .LVU277
 1109 0004 084B     		ldr	r3, .L80
 1110 0006 9847     		blx	r3
 1111              	.LVL87:
 1112              		.loc 1 629 13 view .LVU278
 1113 0008 0446     		mov	r4, r0
 1114              	.LVL88:
 1115              		.loc 1 631 2 is_stmt 1 view .LVU279
 1116              		.loc 1 631 15 is_stmt 0 view .LVU280
 1117 000a 084B     		ldr	r3, .L80+4
 1118 000c 1B68     		ldr	r3, [r3]
 1119              		.loc 1 631 4 view .LVU281
 1120 000e 8342     		cmp	r3, r0
 1121 0010 05D8     		bhi	.L79
 1122              		.loc 1 638 3 is_stmt 1 view .LVU282
 1123              		.loc 1 638 29 is_stmt 0 view .LVU283
 1124 0012 0023     		movs	r3, #0
 1125 0014 2B60     		str	r3, [r5]
 1126              	.LVL89:
 1127              	.L77:
 1128              		.loc 1 641 2 is_stmt 1 view .LVU284
 1129              		.loc 1 641 12 is_stmt 0 view .LVU285
 1130 0016 054B     		ldr	r3, .L80+4
 1131 0018 1C60     		str	r4, [r3]
 1132              		.loc 1 643 2 is_stmt 1 view .LVU286
 1133              		.loc 1 644 1 is_stmt 0 view .LVU287
 1134 001a 2046     		mov	r0, r4
 1135 001c 38BD     		pop	{r3, r4, r5, pc}
 1136              	.LVL90:
 1137              	.L79:
 1138              		.loc 1 633 3 is_stmt 1 view .LVU288
 1139 001e 044B     		ldr	r3, .L80+8
 1140 0020 9847     		blx	r3
 1141              	.LVL91:
 1142              		.loc 1 634 3 view .LVU289
 1143              		.loc 1 634 29 is_stmt 0 view .LVU290
 1144 0022 0123     		movs	r3, #1
 1145 0024 2B60     		str	r3, [r5]
 1146 0026 F6E7     		b	.L77
 1147              	.L81:
 1148              		.align	2
 1149              	.L80:
 1150 0028 00000000 		.word	xTaskGetTickCount
 1151 002c 00000000 		.word	.LANCHOR8
 1152 0030 00000000 		.word	prvSwitchTimerLists
 1153              		.cfi_endproc
 1154              	.LFE17:
 1156              		.section	.text.prvProcessExpiredTimer,"ax",%progbits
ARM GAS  C:\Users\38164\AppData\Local\Temp\cciLFpIZ.s 			page 21


 1157              		.align	1
 1158              		.syntax unified
 1159              		.thumb
 1160              		.thumb_func
 1161              		.fpu softvfp
 1163              	prvProcessExpiredTimer:
 1164              	.LVL92:
 1165              	.LFB13:
 1166              		.loc 1 463 1 is_stmt 1 view -0
 1167              		.cfi_startproc
 1168              		@ args = 0, pretend = 0, frame = 0
 1169              		@ frame_needed = 0, uses_anonymous_args = 0
 1170              		.loc 1 463 1 is_stmt 0 view .LVU292
 1171 0000 70B5     		push	{r4, r5, r6, lr}
 1172              	.LCFI27:
 1173              		.cfi_def_cfa_offset 16
 1174              		.cfi_offset 4, -16
 1175              		.cfi_offset 5, -12
 1176              		.cfi_offset 6, -8
 1177              		.cfi_offset 14, -4
 1178 0002 82B0     		sub	sp, sp, #8
 1179              	.LCFI28:
 1180              		.cfi_def_cfa_offset 24
 1181 0004 0546     		mov	r5, r0
 1182 0006 0E46     		mov	r6, r1
 1183              		.loc 1 464 1 is_stmt 1 view .LVU293
 1184              		.loc 1 465 1 view .LVU294
 1185              		.loc 1 465 41 is_stmt 0 view .LVU295
 1186 0008 144B     		ldr	r3, .L87
 1187 000a 1B68     		ldr	r3, [r3]
 1188 000c DB68     		ldr	r3, [r3, #12]
 1189              		.loc 1 465 17 view .LVU296
 1190 000e DC68     		ldr	r4, [r3, #12]
 1191              	.LVL93:
 1192              		.loc 1 469 2 is_stmt 1 view .LVU297
 1193              		.loc 1 469 11 is_stmt 0 view .LVU298
 1194 0010 201D     		adds	r0, r4, #4
 1195              	.LVL94:
 1196              		.loc 1 469 11 view .LVU299
 1197 0012 134B     		ldr	r3, .L87+4
 1198 0014 9847     		blx	r3
 1199              	.LVL95:
 1200              		.loc 1 470 31 is_stmt 1 view .LVU300
 1201              		.loc 1 474 2 view .LVU301
 1202              		.loc 1 474 13 is_stmt 0 view .LVU302
 1203 0016 E369     		ldr	r3, [r4, #28]
 1204              		.loc 1 474 4 view .LVU303
 1205 0018 012B     		cmp	r3, #1
 1206 001a 04D0     		beq	.L86
 1207              	.LVL96:
 1208              	.L83:
 1209              		.loc 1 494 27 is_stmt 1 view .LVU304
 1210              		.loc 1 498 2 view .LVU305
 1211              		.loc 1 498 9 is_stmt 0 view .LVU306
 1212 001c 636A     		ldr	r3, [r4, #36]
 1213              		.loc 1 498 2 view .LVU307
 1214 001e 2046     		mov	r0, r4
ARM GAS  C:\Users\38164\AppData\Local\Temp\cciLFpIZ.s 			page 22


 1215 0020 9847     		blx	r3
 1216              	.LVL97:
 1217              		.loc 1 499 1 view .LVU308
 1218 0022 02B0     		add	sp, sp, #8
 1219              	.LCFI29:
 1220              		.cfi_remember_state
 1221              		.cfi_def_cfa_offset 16
 1222              		@ sp needed
 1223 0024 70BD     		pop	{r4, r5, r6, pc}
 1224              	.LVL98:
 1225              	.L86:
 1226              	.LCFI30:
 1227              		.cfi_restore_state
 1228              		.loc 1 479 3 is_stmt 1 view .LVU309
 1229              		.loc 1 479 71 is_stmt 0 view .LVU310
 1230 0026 A169     		ldr	r1, [r4, #24]
 1231              		.loc 1 479 7 view .LVU311
 1232 0028 2B46     		mov	r3, r5
 1233 002a 3246     		mov	r2, r6
 1234 002c 2944     		add	r1, r1, r5
 1235 002e 2046     		mov	r0, r4
 1236 0030 0C4E     		ldr	r6, .L87+8
 1237              	.LVL99:
 1238              		.loc 1 479 7 view .LVU312
 1239 0032 B047     		blx	r6
 1240              	.LVL100:
 1241              		.loc 1 479 5 view .LVU313
 1242 0034 0028     		cmp	r0, #0
 1243 0036 F1D0     		beq	.L83
 1244              		.loc 1 483 4 is_stmt 1 view .LVU314
 1245              		.loc 1 483 14 is_stmt 0 view .LVU315
 1246 0038 0021     		movs	r1, #0
 1247 003a 0091     		str	r1, [sp]
 1248 003c 0B46     		mov	r3, r1
 1249 003e 2A46     		mov	r2, r5
 1250 0040 2046     		mov	r0, r4
 1251 0042 094D     		ldr	r5, .L87+12
 1252              	.LVL101:
 1253              		.loc 1 483 14 view .LVU316
 1254 0044 A847     		blx	r5
 1255              	.LVL102:
 1256              		.loc 1 484 4 is_stmt 1 view .LVU317
 1257 0046 0028     		cmp	r0, #0
 1258 0048 E8D1     		bne	.L83
 1259              		.loc 1 484 4 view .LVU318
 1260              	.LBB56:
 1261              	.LBI56:
 1262              		.loc 2 191 30 view .LVU319
 1263              	.LBB57:
 1264              		.loc 2 193 1 view .LVU320
 1265              		.loc 2 195 2 view .LVU321
 1266              		.syntax unified
 1267              	@ 195 "Middlewares/Third_Party/FreeRTOS/Source/portable/GCC/ARM_CM3/portmacro.h" 1
 1268 004a 4FF05003 			mov r3, #80												
 1269 004e 83F31188 		msr basepri, r3											
 1270 0052 BFF36F8F 		isb														
 1271 0056 BFF34F8F 		dsb														
ARM GAS  C:\Users\38164\AppData\Local\Temp\cciLFpIZ.s 			page 23


 1272              	
 1273              	@ 0 "" 2
 1274              	.LVL103:
 1275              		.thumb
 1276              		.syntax unified
 1277              	.L84:
 1278              		.loc 2 195 2 is_stmt 0 view .LVU322
 1279              	.LBE57:
 1280              	.LBE56:
 1281              		.loc 1 484 4 is_stmt 1 discriminator 1 view .LVU323
 1282              		.loc 1 484 4 discriminator 1 view .LVU324
 1283              		.loc 1 484 4 discriminator 1 view .LVU325
 1284 005a FEE7     		b	.L84
 1285              	.L88:
 1286              		.align	2
 1287              	.L87:
 1288 005c 00000000 		.word	.LANCHOR0
 1289 0060 00000000 		.word	uxListRemove
 1290 0064 00000000 		.word	prvInsertTimerInActiveList
 1291 0068 00000000 		.word	xTimerGenericCommand
 1292              		.cfi_endproc
 1293              	.LFE13:
 1295              		.section	.text.prvProcessTimerOrBlockTask,"ax",%progbits
 1296              		.align	1
 1297              		.syntax unified
 1298              		.thumb
 1299              		.thumb_func
 1300              		.fpu softvfp
 1302              	prvProcessTimerOrBlockTask:
 1303              	.LVL104:
 1304              	.LFB15:
 1305              		.loc 1 539 1 view -0
 1306              		.cfi_startproc
 1307              		@ args = 0, pretend = 0, frame = 8
 1308              		@ frame_needed = 0, uses_anonymous_args = 0
 1309              		.loc 1 539 1 is_stmt 0 view .LVU327
 1310 0000 70B5     		push	{r4, r5, r6, lr}
 1311              	.LCFI31:
 1312              		.cfi_def_cfa_offset 16
 1313              		.cfi_offset 4, -16
 1314              		.cfi_offset 5, -12
 1315              		.cfi_offset 6, -8
 1316              		.cfi_offset 14, -4
 1317 0002 82B0     		sub	sp, sp, #8
 1318              	.LCFI32:
 1319              		.cfi_def_cfa_offset 24
 1320 0004 0646     		mov	r6, r0
 1321 0006 0C46     		mov	r4, r1
 1322              		.loc 1 540 1 is_stmt 1 view .LVU328
 1323              		.loc 1 541 1 view .LVU329
 1324              		.loc 1 543 2 view .LVU330
 1325 0008 174B     		ldr	r3, .L96
 1326 000a 9847     		blx	r3
 1327              	.LVL105:
 1328              		.loc 1 550 3 view .LVU331
 1329              		.loc 1 550 14 is_stmt 0 view .LVU332
 1330 000c 01A8     		add	r0, sp, #4
ARM GAS  C:\Users\38164\AppData\Local\Temp\cciLFpIZ.s 			page 24


 1331 000e 174B     		ldr	r3, .L96+4
 1332 0010 9847     		blx	r3
 1333              	.LVL106:
 1334              		.loc 1 551 3 is_stmt 1 view .LVU333
 1335              		.loc 1 551 31 is_stmt 0 view .LVU334
 1336 0012 019B     		ldr	r3, [sp, #4]
 1337              		.loc 1 551 5 view .LVU335
 1338 0014 1BBB     		cbnz	r3, .L90
 1339 0016 0546     		mov	r5, r0
 1340              		.loc 1 554 4 is_stmt 1 view .LVU336
 1341              		.loc 1 554 6 is_stmt 0 view .LVU337
 1342 0018 0CB9     		cbnz	r4, .L91
 1343              		.loc 1 554 37 discriminator 1 view .LVU338
 1344 001a B042     		cmp	r0, r6
 1345 001c 18D2     		bcs	.L95
 1346              	.L91:
 1347              		.loc 1 567 5 is_stmt 1 view .LVU339
 1348              		.loc 1 567 7 is_stmt 0 view .LVU340
 1349 001e 2CB1     		cbz	r4, .L93
 1350              		.loc 1 571 6 is_stmt 1 view .LVU341
 1351              		.loc 1 571 22 is_stmt 0 view .LVU342
 1352 0020 134B     		ldr	r3, .L96+8
 1353 0022 1B68     		ldr	r3, [r3]
 1354 0024 1C68     		ldr	r4, [r3]
 1355              	.LVL107:
 1356              		.loc 1 571 22 view .LVU343
 1357 0026 B4FA84F4 		clz	r4, r4
 1358 002a 6409     		lsrs	r4, r4, #5
 1359              	.LVL108:
 1360              	.L93:
 1361              		.loc 1 574 5 is_stmt 1 view .LVU344
 1362 002c 2246     		mov	r2, r4
 1363 002e 711B     		subs	r1, r6, r5
 1364 0030 104B     		ldr	r3, .L96+12
 1365 0032 1868     		ldr	r0, [r3]
 1366              	.LVL109:
 1367              		.loc 1 574 5 is_stmt 0 view .LVU345
 1368 0034 104B     		ldr	r3, .L96+16
 1369 0036 9847     		blx	r3
 1370              	.LVL110:
 1371              		.loc 1 576 5 is_stmt 1 view .LVU346
 1372              		.loc 1 576 9 is_stmt 0 view .LVU347
 1373 0038 104B     		ldr	r3, .L96+20
 1374 003a 9847     		blx	r3
 1375              	.LVL111:
 1376              		.loc 1 576 7 view .LVU348
 1377 003c 88B9     		cbnz	r0, .L89
 1378              		.loc 1 582 6 is_stmt 1 view .LVU349
 1379 003e 104B     		ldr	r3, .L96+24
 1380 0040 4FF08052 		mov	r2, #268435456
 1381 0044 1A60     		str	r2, [r3]
 1382              		.loc 1 582 6 view .LVU350
 1383              		.syntax unified
 1384              	@ 582 "Middlewares/Third_Party/FreeRTOS/Source/timers.c" 1
 1385 0046 BFF34F8F 		dsb
 1386              	@ 0 "" 2
 1387              		.loc 1 582 6 view .LVU351
ARM GAS  C:\Users\38164\AppData\Local\Temp\cciLFpIZ.s 			page 25


 1388              	@ 582 "Middlewares/Third_Party/FreeRTOS/Source/timers.c" 1
 1389 004a BFF36F8F 		isb
 1390              	@ 0 "" 2
 1391              		.loc 1 582 28 view .LVU352
 1392              		.thumb
 1393              		.syntax unified
 1394 004e 08E0     		b	.L89
 1395              	.LVL112:
 1396              	.L95:
 1397              		.loc 1 556 5 view .LVU353
 1398              		.loc 1 556 14 is_stmt 0 view .LVU354
 1399 0050 0A4B     		ldr	r3, .L96+20
 1400 0052 9847     		blx	r3
 1401              	.LVL113:
 1402              		.loc 1 557 5 is_stmt 1 view .LVU355
 1403 0054 2946     		mov	r1, r5
 1404 0056 3046     		mov	r0, r6
 1405 0058 0A4B     		ldr	r3, .L96+28
 1406 005a 9847     		blx	r3
 1407              	.LVL114:
 1408 005c 01E0     		b	.L89
 1409              	.LVL115:
 1410              	.L90:
 1411              		.loc 1 592 4 view .LVU356
 1412              		.loc 1 592 13 is_stmt 0 view .LVU357
 1413 005e 074B     		ldr	r3, .L96+20
 1414 0060 9847     		blx	r3
 1415              	.LVL116:
 1416              	.L89:
 1417              		.loc 1 595 1 view .LVU358
 1418 0062 02B0     		add	sp, sp, #8
 1419              	.LCFI33:
 1420              		.cfi_def_cfa_offset 16
 1421              		@ sp needed
 1422 0064 70BD     		pop	{r4, r5, r6, pc}
 1423              	.LVL117:
 1424              	.L97:
 1425              		.loc 1 595 1 view .LVU359
 1426 0066 00BF     		.align	2
 1427              	.L96:
 1428 0068 00000000 		.word	vTaskSuspendAll
 1429 006c 00000000 		.word	prvSampleTimeNow
 1430 0070 00000000 		.word	.LANCHOR1
 1431 0074 00000000 		.word	.LANCHOR2
 1432 0078 00000000 		.word	vQueueWaitForMessageRestricted
 1433 007c 00000000 		.word	xTaskResumeAll
 1434 0080 04ED00E0 		.word	-536810236
 1435 0084 00000000 		.word	prvProcessExpiredTimer
 1436              		.cfi_endproc
 1437              	.LFE15:
 1439              		.section	.text.prvProcessReceivedCommands,"ax",%progbits
 1440              		.align	1
 1441              		.syntax unified
 1442              		.thumb
 1443              		.thumb_func
 1444              		.fpu softvfp
 1446              	prvProcessReceivedCommands:
ARM GAS  C:\Users\38164\AppData\Local\Temp\cciLFpIZ.s 			page 26


 1447              	.LFB19:
 1448              		.loc 1 689 1 is_stmt 1 view -0
 1449              		.cfi_startproc
 1450              		@ args = 0, pretend = 0, frame = 24
 1451              		@ frame_needed = 0, uses_anonymous_args = 0
 1452 0000 30B5     		push	{r4, r5, lr}
 1453              	.LCFI34:
 1454              		.cfi_def_cfa_offset 12
 1455              		.cfi_offset 4, -12
 1456              		.cfi_offset 5, -8
 1457              		.cfi_offset 14, -4
 1458 0002 89B0     		sub	sp, sp, #36
 1459              	.LCFI35:
 1460              		.cfi_def_cfa_offset 48
 1461              		.loc 1 690 1 view .LVU361
 1462              		.loc 1 691 1 view .LVU362
 1463              		.loc 1 692 1 view .LVU363
 1464              		.loc 1 693 1 view .LVU364
 1465              		.loc 1 695 2 view .LVU365
 1466              		.loc 1 695 7 is_stmt 0 view .LVU366
 1467 0004 06E0     		b	.L101
 1468              	.L115:
 1469              	.LBB58:
 1470              		.loc 1 703 5 is_stmt 1 discriminator 2 view .LVU367
 1471              	.LVL118:
 1472              		.loc 1 707 5 discriminator 2 view .LVU368
 1473              		.loc 1 707 31 discriminator 2 view .LVU369
 1474              		.loc 1 710 5 discriminator 2 view .LVU370
 1475 0006 0799     		ldr	r1, [sp, #28]
 1476 0008 0698     		ldr	r0, [sp, #24]
 1477 000a 059B     		ldr	r3, [sp, #20]
 1478 000c 9847     		blx	r3
 1479              	.LVL119:
 1480              	.L100:
 1481              		.loc 1 710 5 is_stmt 0 discriminator 2 view .LVU371
 1482              	.LBE58:
 1483              		.loc 1 714 29 is_stmt 1 view .LVU372
 1484              		.loc 1 721 3 view .LVU373
 1485              		.loc 1 721 15 is_stmt 0 view .LVU374
 1486 000e 049B     		ldr	r3, [sp, #16]
 1487              		.loc 1 721 5 view .LVU375
 1488 0010 002B     		cmp	r3, #0
 1489 0012 0BDA     		bge	.L113
 1490              	.L101:
 1491              		.loc 1 695 7 is_stmt 1 view .LVU376
 1492              		.loc 1 695 9 is_stmt 0 view .LVU377
 1493 0014 0022     		movs	r2, #0
 1494 0016 04A9     		add	r1, sp, #16
 1495 0018 364B     		ldr	r3, .L117
 1496 001a 1868     		ldr	r0, [r3]
 1497 001c 364B     		ldr	r3, .L117+4
 1498 001e 9847     		blx	r3
 1499              	.LVL120:
 1500              		.loc 1 695 7 view .LVU378
 1501 0020 0028     		cmp	r0, #0
 1502 0022 65D0     		beq	.L114
 1503              		.loc 1 701 4 is_stmt 1 view .LVU379
ARM GAS  C:\Users\38164\AppData\Local\Temp\cciLFpIZ.s 			page 27


 1504              		.loc 1 701 16 is_stmt 0 view .LVU380
 1505 0024 049B     		ldr	r3, [sp, #16]
 1506              		.loc 1 701 6 view .LVU381
 1507 0026 002B     		cmp	r3, #0
 1508 0028 F1DA     		bge	.L100
 1509 002a ECE7     		b	.L115
 1510              	.L113:
 1511              		.loc 1 725 4 is_stmt 1 view .LVU382
 1512              		.loc 1 725 12 is_stmt 0 view .LVU383
 1513 002c 069C     		ldr	r4, [sp, #24]
 1514              	.LVL121:
 1515              		.loc 1 727 4 is_stmt 1 view .LVU384
 1516              		.loc 1 727 8 is_stmt 0 view .LVU385
 1517 002e 6369     		ldr	r3, [r4, #20]
 1518              		.loc 1 727 6 view .LVU386
 1519 0030 13B1     		cbz	r3, .L102
 1520              		.loc 1 730 5 is_stmt 1 view .LVU387
 1521              		.loc 1 730 14 is_stmt 0 view .LVU388
 1522 0032 201D     		adds	r0, r4, #4
 1523 0034 314B     		ldr	r3, .L117+8
 1524 0036 9847     		blx	r3
 1525              	.LVL122:
 1526              	.L102:
 1527              		.loc 1 734 29 is_stmt 1 view .LVU389
 1528              		.loc 1 737 106 view .LVU390
 1529              		.loc 1 745 4 view .LVU391
 1530              		.loc 1 745 15 is_stmt 0 view .LVU392
 1531 0038 03A8     		add	r0, sp, #12
 1532 003a 314B     		ldr	r3, .L117+12
 1533 003c 9847     		blx	r3
 1534              	.LVL123:
 1535              		.loc 1 747 4 is_stmt 1 view .LVU393
 1536              		.loc 1 747 20 is_stmt 0 view .LVU394
 1537 003e 049B     		ldr	r3, [sp, #16]
 1538 0040 092B     		cmp	r3, #9
 1539 0042 E7D8     		bhi	.L101
 1540 0044 01A2     		adr	r2, .L105
 1541 0046 52F823F0 		ldr	pc, [r2, r3, lsl #2]
 1542 004a 00BF     		.p2align 2
 1543              	.L105:
 1544 004c 75000000 		.word	.L106+1
 1545 0050 75000000 		.word	.L106+1
 1546 0054 75000000 		.word	.L106+1
 1547 0058 15000000 		.word	.L101+1
 1548 005c BB000000 		.word	.L104+1
 1549 0060 E1000000 		.word	.L107+1
 1550 0064 75000000 		.word	.L106+1
 1551 0068 75000000 		.word	.L106+1
 1552 006c 15000000 		.word	.L101+1
 1553 0070 BB000000 		.word	.L104+1
 1554              		.p2align 1
 1555              	.L106:
 1556              		.loc 1 755 6 is_stmt 1 view .LVU395
 1557              		.loc 1 755 75 is_stmt 0 view .LVU396
 1558 0074 059B     		ldr	r3, [sp, #20]
 1559              		.loc 1 755 99 view .LVU397
 1560 0076 A169     		ldr	r1, [r4, #24]
ARM GAS  C:\Users\38164\AppData\Local\Temp\cciLFpIZ.s 			page 28


 1561              		.loc 1 755 10 view .LVU398
 1562 0078 0246     		mov	r2, r0
 1563 007a 1944     		add	r1, r1, r3
 1564 007c 2046     		mov	r0, r4
 1565              	.LVL124:
 1566              		.loc 1 755 10 view .LVU399
 1567 007e 214D     		ldr	r5, .L117+16
 1568 0080 A847     		blx	r5
 1569              	.LVL125:
 1570              		.loc 1 755 8 view .LVU400
 1571 0082 0028     		cmp	r0, #0
 1572 0084 C6D0     		beq	.L101
 1573              		.loc 1 759 7 is_stmt 1 view .LVU401
 1574              		.loc 1 759 14 is_stmt 0 view .LVU402
 1575 0086 636A     		ldr	r3, [r4, #36]
 1576              		.loc 1 759 7 view .LVU403
 1577 0088 2046     		mov	r0, r4
 1578 008a 9847     		blx	r3
 1579              	.LVL126:
 1580              		.loc 1 760 36 is_stmt 1 view .LVU404
 1581              		.loc 1 762 7 view .LVU405
 1582              		.loc 1 762 18 is_stmt 0 view .LVU406
 1583 008c E369     		ldr	r3, [r4, #28]
 1584              		.loc 1 762 9 view .LVU407
 1585 008e 012B     		cmp	r3, #1
 1586 0090 C0D1     		bne	.L101
 1587              		.loc 1 764 8 is_stmt 1 view .LVU408
 1588              		.loc 1 764 129 is_stmt 0 view .LVU409
 1589 0092 A269     		ldr	r2, [r4, #24]
 1590              		.loc 1 764 18 view .LVU410
 1591 0094 0021     		movs	r1, #0
 1592 0096 0091     		str	r1, [sp]
 1593 0098 0B46     		mov	r3, r1
 1594 009a 0598     		ldr	r0, [sp, #20]
 1595 009c 0244     		add	r2, r2, r0
 1596 009e 2046     		mov	r0, r4
 1597 00a0 194C     		ldr	r4, .L117+20
 1598              	.LVL127:
 1599              		.loc 1 764 18 view .LVU411
 1600 00a2 A047     		blx	r4
 1601              	.LVL128:
 1602              		.loc 1 765 8 is_stmt 1 view .LVU412
 1603 00a4 0028     		cmp	r0, #0
 1604 00a6 B5D1     		bne	.L101
 1605              		.loc 1 765 8 view .LVU413
 1606              	.LBB59:
 1607              	.LBI59:
 1608              		.loc 2 191 30 view .LVU414
 1609              	.LBB60:
 1610              		.loc 2 193 1 view .LVU415
 1611              		.loc 2 195 2 view .LVU416
 1612              		.syntax unified
 1613              	@ 195 "Middlewares/Third_Party/FreeRTOS/Source/portable/GCC/ARM_CM3/portmacro.h" 1
 1614 00a8 4FF05003 			mov r3, #80												
 1615 00ac 83F31188 		msr basepri, r3											
 1616 00b0 BFF36F8F 		isb														
 1617 00b4 BFF34F8F 		dsb														
ARM GAS  C:\Users\38164\AppData\Local\Temp\cciLFpIZ.s 			page 29


 1618              	
 1619              	@ 0 "" 2
 1620              	.LVL129:
 1621              		.thumb
 1622              		.syntax unified
 1623              	.L108:
 1624              		.loc 2 195 2 is_stmt 0 view .LVU417
 1625              	.LBE60:
 1626              	.LBE59:
 1627              		.loc 1 765 8 is_stmt 1 discriminator 2 view .LVU418
 1628              		.loc 1 765 8 discriminator 2 view .LVU419
 1629              		.loc 1 765 8 discriminator 2 view .LVU420
 1630 00b8 FEE7     		b	.L108
 1631              	.LVL130:
 1632              	.L104:
 1633              		.loc 1 787 6 view .LVU421
 1634              		.loc 1 787 64 is_stmt 0 view .LVU422
 1635 00ba 0599     		ldr	r1, [sp, #20]
 1636              		.loc 1 787 35 view .LVU423
 1637 00bc A161     		str	r1, [r4, #24]
 1638              		.loc 1 788 6 is_stmt 1 view .LVU424
 1639 00be 31B1     		cbz	r1, .L116
 1640              		.loc 1 788 58 discriminator 2 view .LVU425
 1641              		.loc 1 796 6 discriminator 2 view .LVU426
 1642              		.loc 1 796 15 is_stmt 0 discriminator 2 view .LVU427
 1643 00c0 0346     		mov	r3, r0
 1644 00c2 0246     		mov	r2, r0
 1645 00c4 0144     		add	r1, r1, r0
 1646 00c6 2046     		mov	r0, r4
 1647              	.LVL131:
 1648              		.loc 1 796 15 discriminator 2 view .LVU428
 1649 00c8 0E4C     		ldr	r4, .L117+16
 1650              	.LVL132:
 1651              		.loc 1 796 15 discriminator 2 view .LVU429
 1652 00ca A047     		blx	r4
 1653              	.LVL133:
 1654              		.loc 1 797 6 is_stmt 1 discriminator 2 view .LVU430
 1655 00cc A2E7     		b	.L101
 1656              	.LVL134:
 1657              	.L116:
 1658              		.loc 1 788 6 view .LVU431
 1659              	.LBB61:
 1660              	.LBI61:
 1661              		.loc 2 191 30 view .LVU432
 1662              	.LBB62:
 1663              		.loc 2 193 1 view .LVU433
 1664              		.loc 2 195 2 view .LVU434
 1665              		.syntax unified
 1666              	@ 195 "Middlewares/Third_Party/FreeRTOS/Source/portable/GCC/ARM_CM3/portmacro.h" 1
 1667 00ce 4FF05003 			mov r3, #80												
 1668 00d2 83F31188 		msr basepri, r3											
 1669 00d6 BFF36F8F 		isb														
 1670 00da BFF34F8F 		dsb														
 1671              	
 1672              	@ 0 "" 2
 1673              	.LVL135:
 1674              		.thumb
ARM GAS  C:\Users\38164\AppData\Local\Temp\cciLFpIZ.s 			page 30


 1675              		.syntax unified
 1676              	.L110:
 1677              		.loc 2 195 2 is_stmt 0 view .LVU435
 1678              	.LBE62:
 1679              	.LBE61:
 1680              		.loc 1 788 6 is_stmt 1 discriminator 5 view .LVU436
 1681              		.loc 1 788 6 discriminator 5 view .LVU437
 1682              		.loc 1 788 6 discriminator 5 view .LVU438
 1683 00de FEE7     		b	.L110
 1684              	.L107:
 1685              		.loc 1 814 7 view .LVU439
 1686              		.loc 1 814 18 is_stmt 0 view .LVU440
 1687 00e0 94F82C30 		ldrb	r3, [r4, #44]	@ zero_extendqisi2
 1688              		.loc 1 814 9 view .LVU441
 1689 00e4 002B     		cmp	r3, #0
 1690 00e6 95D1     		bne	.L101
 1691              		.loc 1 816 8 is_stmt 1 view .LVU442
 1692 00e8 2046     		mov	r0, r4
 1693              	.LVL136:
 1694              		.loc 1 816 8 is_stmt 0 view .LVU443
 1695 00ea 084B     		ldr	r3, .L117+24
 1696 00ec 9847     		blx	r3
 1697              	.LVL137:
 1698 00ee 91E7     		b	.L101
 1699              	.LVL138:
 1700              	.L114:
 1701              		.loc 1 832 1 view .LVU444
 1702 00f0 09B0     		add	sp, sp, #36
 1703              	.LCFI36:
 1704              		.cfi_def_cfa_offset 12
 1705              		@ sp needed
 1706 00f2 30BD     		pop	{r4, r5, pc}
 1707              	.L118:
 1708              		.align	2
 1709              	.L117:
 1710 00f4 00000000 		.word	.LANCHOR2
 1711 00f8 00000000 		.word	xQueueReceive
 1712 00fc 00000000 		.word	uxListRemove
 1713 0100 00000000 		.word	prvSampleTimeNow
 1714 0104 00000000 		.word	prvInsertTimerInActiveList
 1715 0108 00000000 		.word	xTimerGenericCommand
 1716 010c 00000000 		.word	vPortFree
 1717              		.cfi_endproc
 1718              	.LFE19:
 1720              		.section	.text.prvTimerTask,"ax",%progbits
 1721              		.align	1
 1722              		.syntax unified
 1723              		.thumb
 1724              		.thumb_func
 1725              		.fpu softvfp
 1727              	prvTimerTask:
 1728              	.LFB14:
 1729              		.loc 1 503 1 is_stmt 1 view -0
 1730              		.cfi_startproc
 1731              		@ args = 0, pretend = 0, frame = 8
 1732              		@ frame_needed = 0, uses_anonymous_args = 0
 1733              	.LVL139:
ARM GAS  C:\Users\38164\AppData\Local\Temp\cciLFpIZ.s 			page 31


 1734              		.loc 1 503 1 is_stmt 0 view .LVU446
 1735 0000 00B5     		push	{lr}
 1736              	.LCFI37:
 1737              		.cfi_def_cfa_offset 4
 1738              		.cfi_offset 14, -4
 1739 0002 83B0     		sub	sp, sp, #12
 1740              	.LCFI38:
 1741              		.cfi_def_cfa_offset 16
 1742              	.LVL140:
 1743              	.L120:
 1744              		.loc 1 504 1 is_stmt 1 discriminator 1 view .LVU447
 1745              		.loc 1 505 1 discriminator 1 view .LVU448
 1746              		.loc 1 508 2 discriminator 1 view .LVU449
 1747              		.loc 1 522 2 discriminator 1 view .LVU450
 1748              		.loc 1 526 3 discriminator 1 view .LVU451
 1749              		.loc 1 526 21 is_stmt 0 discriminator 1 view .LVU452
 1750 0004 01A8     		add	r0, sp, #4
 1751 0006 044B     		ldr	r3, .L122
 1752 0008 9847     		blx	r3
 1753              	.LVL141:
 1754              		.loc 1 530 3 is_stmt 1 discriminator 1 view .LVU453
 1755 000a 0199     		ldr	r1, [sp, #4]
 1756 000c 034B     		ldr	r3, .L122+4
 1757 000e 9847     		blx	r3
 1758              	.LVL142:
 1759              		.loc 1 533 3 discriminator 1 view .LVU454
 1760 0010 034B     		ldr	r3, .L122+8
 1761 0012 9847     		blx	r3
 1762              	.LVL143:
 1763              		.loc 1 522 8 discriminator 1 view .LVU455
 1764 0014 F6E7     		b	.L120
 1765              	.L123:
 1766 0016 00BF     		.align	2
 1767              	.L122:
 1768 0018 00000000 		.word	prvGetNextExpireTime
 1769 001c 00000000 		.word	prvProcessTimerOrBlockTask
 1770 0020 00000000 		.word	prvProcessReceivedCommands
 1771              		.cfi_endproc
 1772              	.LFE14:
 1774              		.section	.text.xTimerGetTimerDaemonTaskHandle,"ax",%progbits
 1775              		.align	1
 1776              		.global	xTimerGetTimerDaemonTaskHandle
 1777              		.syntax unified
 1778              		.thumb
 1779              		.thumb_func
 1780              		.fpu softvfp
 1782              	xTimerGetTimerDaemonTaskHandle:
 1783              	.LFB9:
 1784              		.loc 1 425 1 view -0
 1785              		.cfi_startproc
 1786              		@ args = 0, pretend = 0, frame = 0
 1787              		@ frame_needed = 0, uses_anonymous_args = 0
 1788              		@ link register save eliminated.
 1789              		.loc 1 428 2 view .LVU457
 1790 0000 064B     		ldr	r3, .L128
 1791 0002 1868     		ldr	r0, [r3]
 1792 0004 00B1     		cbz	r0, .L127
ARM GAS  C:\Users\38164\AppData\Local\Temp\cciLFpIZ.s 			page 32


 1793              		.loc 1 430 1 is_stmt 0 view .LVU458
 1794 0006 7047     		bx	lr
 1795              	.L127:
 1796              		.loc 1 428 2 is_stmt 1 view .LVU459
 1797              	.LBB63:
 1798              	.LBI63:
 1799              		.loc 2 191 30 view .LVU460
 1800              	.LBB64:
 1801              		.loc 2 193 1 view .LVU461
 1802              		.loc 2 195 2 view .LVU462
 1803              		.syntax unified
 1804              	@ 195 "Middlewares/Third_Party/FreeRTOS/Source/portable/GCC/ARM_CM3/portmacro.h" 1
 1805 0008 4FF05003 			mov r3, #80												
 1806 000c 83F31188 		msr basepri, r3											
 1807 0010 BFF36F8F 		isb														
 1808 0014 BFF34F8F 		dsb														
 1809              	
 1810              	@ 0 "" 2
 1811              	.LVL144:
 1812              		.thumb
 1813              		.syntax unified
 1814              	.L126:
 1815              		.loc 2 195 2 is_stmt 0 view .LVU463
 1816              	.LBE64:
 1817              	.LBE63:
 1818              		.loc 1 428 2 is_stmt 1 discriminator 1 view .LVU464
 1819              		.loc 1 428 2 discriminator 1 view .LVU465
 1820              		.loc 1 428 2 discriminator 1 view .LVU466
 1821 0018 FEE7     		b	.L126
 1822              	.L129:
 1823 001a 00BF     		.align	2
 1824              	.L128:
 1825 001c 00000000 		.word	.LANCHOR7
 1826              		.cfi_endproc
 1827              	.LFE9:
 1829              		.section	.text.xTimerGetPeriod,"ax",%progbits
 1830              		.align	1
 1831              		.global	xTimerGetPeriod
 1832              		.syntax unified
 1833              		.thumb
 1834              		.thumb_func
 1835              		.fpu softvfp
 1837              	xTimerGetPeriod:
 1838              	.LVL145:
 1839              	.LFB10:
 1840              		.loc 1 434 1 view -0
 1841              		.cfi_startproc
 1842              		@ args = 0, pretend = 0, frame = 0
 1843              		@ frame_needed = 0, uses_anonymous_args = 0
 1844              		@ link register save eliminated.
 1845              		.loc 1 435 1 view .LVU468
 1846              		.loc 1 437 2 view .LVU469
 1847 0000 08B1     		cbz	r0, .L133
 1848              		.loc 1 437 24 discriminator 2 view .LVU470
 1849              		.loc 1 438 2 discriminator 2 view .LVU471
 1850              		.loc 1 439 1 is_stmt 0 discriminator 2 view .LVU472
 1851 0002 8069     		ldr	r0, [r0, #24]
ARM GAS  C:\Users\38164\AppData\Local\Temp\cciLFpIZ.s 			page 33


 1852              	.LVL146:
 1853              		.loc 1 439 1 discriminator 2 view .LVU473
 1854 0004 7047     		bx	lr
 1855              	.LVL147:
 1856              	.L133:
 1857              		.loc 1 437 2 is_stmt 1 view .LVU474
 1858              	.LBB65:
 1859              	.LBI65:
 1860              		.loc 2 191 30 view .LVU475
 1861              	.LBB66:
 1862              		.loc 2 193 1 view .LVU476
 1863              		.loc 2 195 2 view .LVU477
 1864              		.syntax unified
 1865              	@ 195 "Middlewares/Third_Party/FreeRTOS/Source/portable/GCC/ARM_CM3/portmacro.h" 1
 1866 0006 4FF05003 			mov r3, #80												
 1867 000a 83F31188 		msr basepri, r3											
 1868 000e BFF36F8F 		isb														
 1869 0012 BFF34F8F 		dsb														
 1870              	
 1871              	@ 0 "" 2
 1872              	.LVL148:
 1873              		.thumb
 1874              		.syntax unified
 1875              	.L132:
 1876              		.loc 2 195 2 is_stmt 0 view .LVU478
 1877              	.LBE66:
 1878              	.LBE65:
 1879              		.loc 1 437 2 is_stmt 1 discriminator 1 view .LVU479
 1880              		.loc 1 437 2 discriminator 1 view .LVU480
 1881              		.loc 1 437 2 discriminator 1 view .LVU481
 1882 0016 FEE7     		b	.L132
 1883              		.cfi_endproc
 1884              	.LFE10:
 1886              		.section	.text.xTimerGetExpiryTime,"ax",%progbits
 1887              		.align	1
 1888              		.global	xTimerGetExpiryTime
 1889              		.syntax unified
 1890              		.thumb
 1891              		.thumb_func
 1892              		.fpu softvfp
 1894              	xTimerGetExpiryTime:
 1895              	.LVL149:
 1896              	.LFB11:
 1897              		.loc 1 443 1 view -0
 1898              		.cfi_startproc
 1899              		@ args = 0, pretend = 0, frame = 0
 1900              		@ frame_needed = 0, uses_anonymous_args = 0
 1901              		@ link register save eliminated.
 1902              		.loc 1 444 1 view .LVU483
 1903              		.loc 1 445 1 view .LVU484
 1904              		.loc 1 447 2 view .LVU485
 1905 0000 08B1     		cbz	r0, .L137
 1906              		.loc 1 447 24 discriminator 2 view .LVU486
 1907              		.loc 1 448 2 discriminator 2 view .LVU487
 1908              	.LVL150:
 1909              		.loc 1 449 2 discriminator 2 view .LVU488
 1910              		.loc 1 450 1 is_stmt 0 discriminator 2 view .LVU489
ARM GAS  C:\Users\38164\AppData\Local\Temp\cciLFpIZ.s 			page 34


 1911 0002 4068     		ldr	r0, [r0, #4]
 1912              	.LVL151:
 1913              		.loc 1 450 1 discriminator 2 view .LVU490
 1914 0004 7047     		bx	lr
 1915              	.LVL152:
 1916              	.L137:
 1917              		.loc 1 447 2 is_stmt 1 view .LVU491
 1918              	.LBB67:
 1919              	.LBI67:
 1920              		.loc 2 191 30 view .LVU492
 1921              	.LBB68:
 1922              		.loc 2 193 1 view .LVU493
 1923              		.loc 2 195 2 view .LVU494
 1924              		.syntax unified
 1925              	@ 195 "Middlewares/Third_Party/FreeRTOS/Source/portable/GCC/ARM_CM3/portmacro.h" 1
 1926 0006 4FF05003 			mov r3, #80												
 1927 000a 83F31188 		msr basepri, r3											
 1928 000e BFF36F8F 		isb														
 1929 0012 BFF34F8F 		dsb														
 1930              	
 1931              	@ 0 "" 2
 1932              	.LVL153:
 1933              		.thumb
 1934              		.syntax unified
 1935              	.L136:
 1936              		.loc 2 195 2 is_stmt 0 view .LVU495
 1937              	.LBE68:
 1938              	.LBE67:
 1939              		.loc 1 447 2 is_stmt 1 discriminator 1 view .LVU496
 1940              		.loc 1 447 2 discriminator 1 view .LVU497
 1941              		.loc 1 447 2 discriminator 1 view .LVU498
 1942 0016 FEE7     		b	.L136
 1943              		.cfi_endproc
 1944              	.LFE11:
 1946              		.section	.text.pcTimerGetName,"ax",%progbits
 1947              		.align	1
 1948              		.global	pcTimerGetName
 1949              		.syntax unified
 1950              		.thumb
 1951              		.thumb_func
 1952              		.fpu softvfp
 1954              	pcTimerGetName:
 1955              	.LVL154:
 1956              	.LFB12:
 1957              		.loc 1 454 1 view -0
 1958              		.cfi_startproc
 1959              		@ args = 0, pretend = 0, frame = 0
 1960              		@ frame_needed = 0, uses_anonymous_args = 0
 1961              		@ link register save eliminated.
 1962              		.loc 1 455 1 view .LVU500
 1963              		.loc 1 457 2 view .LVU501
 1964 0000 08B1     		cbz	r0, .L141
 1965              		.loc 1 457 24 discriminator 2 view .LVU502
 1966              		.loc 1 458 2 discriminator 2 view .LVU503
 1967              		.loc 1 459 1 is_stmt 0 discriminator 2 view .LVU504
 1968 0002 0068     		ldr	r0, [r0]
 1969              	.LVL155:
ARM GAS  C:\Users\38164\AppData\Local\Temp\cciLFpIZ.s 			page 35


 1970              		.loc 1 459 1 discriminator 2 view .LVU505
 1971 0004 7047     		bx	lr
 1972              	.LVL156:
 1973              	.L141:
 1974              		.loc 1 457 2 is_stmt 1 view .LVU506
 1975              	.LBB69:
 1976              	.LBI69:
 1977              		.loc 2 191 30 view .LVU507
 1978              	.LBB70:
 1979              		.loc 2 193 1 view .LVU508
 1980              		.loc 2 195 2 view .LVU509
 1981              		.syntax unified
 1982              	@ 195 "Middlewares/Third_Party/FreeRTOS/Source/portable/GCC/ARM_CM3/portmacro.h" 1
 1983 0006 4FF05003 			mov r3, #80												
 1984 000a 83F31188 		msr basepri, r3											
 1985 000e BFF36F8F 		isb														
 1986 0012 BFF34F8F 		dsb														
 1987              	
 1988              	@ 0 "" 2
 1989              	.LVL157:
 1990              		.thumb
 1991              		.syntax unified
 1992              	.L140:
 1993              		.loc 2 195 2 is_stmt 0 view .LVU510
 1994              	.LBE70:
 1995              	.LBE69:
 1996              		.loc 1 457 2 is_stmt 1 discriminator 1 view .LVU511
 1997              		.loc 1 457 2 discriminator 1 view .LVU512
 1998              		.loc 1 457 2 discriminator 1 view .LVU513
 1999 0016 FEE7     		b	.L140
 2000              		.cfi_endproc
 2001              	.LFE12:
 2003              		.section	.text.xTimerIsTimerActive,"ax",%progbits
 2004              		.align	1
 2005              		.global	xTimerIsTimerActive
 2006              		.syntax unified
 2007              		.thumb
 2008              		.thumb_func
 2009              		.fpu softvfp
 2011              	xTimerIsTimerActive:
 2012              	.LVL158:
 2013              	.LFB22:
 2014              		.loc 1 946 1 view -0
 2015              		.cfi_startproc
 2016              		@ args = 0, pretend = 0, frame = 0
 2017              		@ frame_needed = 0, uses_anonymous_args = 0
 2018              		.loc 1 947 1 view .LVU515
 2019              		.loc 1 948 1 view .LVU516
 2020              		.loc 1 950 2 view .LVU517
 2021 0000 58B1     		cbz	r0, .L147
 2022              		.loc 1 946 1 is_stmt 0 discriminator 2 view .LVU518
 2023 0002 10B5     		push	{r4, lr}
 2024              	.LCFI39:
 2025              		.cfi_def_cfa_offset 8
 2026              		.cfi_offset 4, -8
 2027              		.cfi_offset 14, -4
 2028 0004 0446     		mov	r4, r0
ARM GAS  C:\Users\38164\AppData\Local\Temp\cciLFpIZ.s 			page 36


 2029              		.loc 1 950 24 is_stmt 1 discriminator 2 view .LVU519
 2030              		.loc 1 953 2 discriminator 2 view .LVU520
 2031 0006 094B     		ldr	r3, .L148
 2032 0008 9847     		blx	r3
 2033              	.LVL159:
 2034              		.loc 1 958 3 discriminator 2 view .LVU521
 2035              		.loc 1 958 44 is_stmt 0 discriminator 2 view .LVU522
 2036 000a 6469     		ldr	r4, [r4, #20]
 2037              	.LVL160:
 2038              		.loc 1 958 26 discriminator 2 view .LVU523
 2039 000c 003C     		subs	r4, r4, #0
 2040 000e 18BF     		it	ne
 2041 0010 0124     		movne	r4, #1
 2042              	.LVL161:
 2043              		.loc 1 960 2 is_stmt 1 discriminator 2 view .LVU524
 2044 0012 074B     		ldr	r3, .L148+4
 2045 0014 9847     		blx	r3
 2046              	.LVL162:
 2047              		.loc 1 962 2 discriminator 2 view .LVU525
 2048              		.loc 1 963 1 is_stmt 0 discriminator 2 view .LVU526
 2049 0016 2046     		mov	r0, r4
 2050 0018 10BD     		pop	{r4, pc}
 2051              	.LVL163:
 2052              	.L147:
 2053              	.LCFI40:
 2054              		.cfi_def_cfa_offset 0
 2055              		.cfi_restore 4
 2056              		.cfi_restore 14
 2057              		.loc 1 950 2 is_stmt 1 view .LVU527
 2058              	.LBB71:
 2059              	.LBI71:
 2060              		.loc 2 191 30 view .LVU528
 2061              	.LBB72:
 2062              		.loc 2 193 1 view .LVU529
 2063              		.loc 2 195 2 view .LVU530
 2064              		.syntax unified
 2065              	@ 195 "Middlewares/Third_Party/FreeRTOS/Source/portable/GCC/ARM_CM3/portmacro.h" 1
 2066 001a 4FF05003 			mov r3, #80												
 2067 001e 83F31188 		msr basepri, r3											
 2068 0022 BFF36F8F 		isb														
 2069 0026 BFF34F8F 		dsb														
 2070              	
 2071              	@ 0 "" 2
 2072              	.LVL164:
 2073              		.thumb
 2074              		.syntax unified
 2075              	.L144:
 2076              		.loc 2 195 2 is_stmt 0 view .LVU531
 2077              	.LBE72:
 2078              	.LBE71:
 2079              		.loc 1 950 2 is_stmt 1 discriminator 1 view .LVU532
 2080              		.loc 1 950 2 discriminator 1 view .LVU533
 2081              		.loc 1 950 2 discriminator 1 view .LVU534
 2082 002a FEE7     		b	.L144
 2083              	.L149:
 2084              		.align	2
 2085              	.L148:
ARM GAS  C:\Users\38164\AppData\Local\Temp\cciLFpIZ.s 			page 37


 2086 002c 00000000 		.word	vPortEnterCritical
 2087 0030 00000000 		.word	vPortExitCritical
 2088              		.cfi_endproc
 2089              	.LFE22:
 2091              		.section	.text.pvTimerGetTimerID,"ax",%progbits
 2092              		.align	1
 2093              		.global	pvTimerGetTimerID
 2094              		.syntax unified
 2095              		.thumb
 2096              		.thumb_func
 2097              		.fpu softvfp
 2099              	pvTimerGetTimerID:
 2100              	.LVL165:
 2101              	.LFB23:
 2102              		.loc 1 967 1 view -0
 2103              		.cfi_startproc
 2104              		@ args = 0, pretend = 0, frame = 0
 2105              		@ frame_needed = 0, uses_anonymous_args = 0
 2106              		.loc 1 968 1 view .LVU536
 2107              		.loc 1 969 1 view .LVU537
 2108              		.loc 1 971 2 view .LVU538
 2109 0000 40B1     		cbz	r0, .L155
 2110              		.loc 1 967 1 is_stmt 0 discriminator 2 view .LVU539
 2111 0002 10B5     		push	{r4, lr}
 2112              	.LCFI41:
 2113              		.cfi_def_cfa_offset 8
 2114              		.cfi_offset 4, -8
 2115              		.cfi_offset 14, -4
 2116 0004 0446     		mov	r4, r0
 2117              		.loc 1 971 24 is_stmt 1 discriminator 2 view .LVU540
 2118              		.loc 1 973 2 discriminator 2 view .LVU541
 2119 0006 084B     		ldr	r3, .L156
 2120 0008 9847     		blx	r3
 2121              	.LVL166:
 2122              		.loc 1 975 3 discriminator 2 view .LVU542
 2123              		.loc 1 975 12 is_stmt 0 discriminator 2 view .LVU543
 2124 000a 246A     		ldr	r4, [r4, #32]
 2125              	.LVL167:
 2126              		.loc 1 977 2 is_stmt 1 discriminator 2 view .LVU544
 2127 000c 074B     		ldr	r3, .L156+4
 2128 000e 9847     		blx	r3
 2129              	.LVL168:
 2130              		.loc 1 979 2 discriminator 2 view .LVU545
 2131              		.loc 1 980 1 is_stmt 0 discriminator 2 view .LVU546
 2132 0010 2046     		mov	r0, r4
 2133 0012 10BD     		pop	{r4, pc}
 2134              	.LVL169:
 2135              	.L155:
 2136              	.LCFI42:
 2137              		.cfi_def_cfa_offset 0
 2138              		.cfi_restore 4
 2139              		.cfi_restore 14
 2140              		.loc 1 971 2 is_stmt 1 view .LVU547
 2141              	.LBB73:
 2142              	.LBI73:
 2143              		.loc 2 191 30 view .LVU548
 2144              	.LBB74:
ARM GAS  C:\Users\38164\AppData\Local\Temp\cciLFpIZ.s 			page 38


 2145              		.loc 2 193 1 view .LVU549
 2146              		.loc 2 195 2 view .LVU550
 2147              		.syntax unified
 2148              	@ 195 "Middlewares/Third_Party/FreeRTOS/Source/portable/GCC/ARM_CM3/portmacro.h" 1
 2149 0014 4FF05003 			mov r3, #80												
 2150 0018 83F31188 		msr basepri, r3											
 2151 001c BFF36F8F 		isb														
 2152 0020 BFF34F8F 		dsb														
 2153              	
 2154              	@ 0 "" 2
 2155              	.LVL170:
 2156              		.thumb
 2157              		.syntax unified
 2158              	.L152:
 2159              		.loc 2 195 2 is_stmt 0 view .LVU551
 2160              	.LBE74:
 2161              	.LBE73:
 2162              		.loc 1 971 2 is_stmt 1 discriminator 1 view .LVU552
 2163              		.loc 1 971 2 discriminator 1 view .LVU553
 2164              		.loc 1 971 2 discriminator 1 view .LVU554
 2165 0024 FEE7     		b	.L152
 2166              	.L157:
 2167 0026 00BF     		.align	2
 2168              	.L156:
 2169 0028 00000000 		.word	vPortEnterCritical
 2170 002c 00000000 		.word	vPortExitCritical
 2171              		.cfi_endproc
 2172              	.LFE23:
 2174              		.section	.text.vTimerSetTimerID,"ax",%progbits
 2175              		.align	1
 2176              		.global	vTimerSetTimerID
 2177              		.syntax unified
 2178              		.thumb
 2179              		.thumb_func
 2180              		.fpu softvfp
 2182              	vTimerSetTimerID:
 2183              	.LVL171:
 2184              	.LFB24:
 2185              		.loc 1 984 1 view -0
 2186              		.cfi_startproc
 2187              		@ args = 0, pretend = 0, frame = 0
 2188              		@ frame_needed = 0, uses_anonymous_args = 0
 2189              		.loc 1 984 1 is_stmt 0 view .LVU556
 2190 0000 38B5     		push	{r3, r4, r5, lr}
 2191              	.LCFI43:
 2192              		.cfi_def_cfa_offset 16
 2193              		.cfi_offset 3, -16
 2194              		.cfi_offset 4, -12
 2195              		.cfi_offset 5, -8
 2196              		.cfi_offset 14, -4
 2197              		.loc 1 985 1 is_stmt 1 view .LVU557
 2198              	.LVL172:
 2199              		.loc 1 987 2 view .LVU558
 2200 0002 38B1     		cbz	r0, .L162
 2201 0004 0C46     		mov	r4, r1
 2202 0006 0546     		mov	r5, r0
 2203              		.loc 1 987 24 discriminator 2 view .LVU559
ARM GAS  C:\Users\38164\AppData\Local\Temp\cciLFpIZ.s 			page 39


 2204              		.loc 1 989 2 discriminator 2 view .LVU560
 2205 0008 074B     		ldr	r3, .L163
 2206 000a 9847     		blx	r3
 2207              	.LVL173:
 2208              		.loc 1 991 3 discriminator 2 view .LVU561
 2209              		.loc 1 991 22 is_stmt 0 discriminator 2 view .LVU562
 2210 000c 2C62     		str	r4, [r5, #32]
 2211              		.loc 1 993 2 is_stmt 1 discriminator 2 view .LVU563
 2212 000e 074B     		ldr	r3, .L163+4
 2213 0010 9847     		blx	r3
 2214              	.LVL174:
 2215              		.loc 1 994 1 is_stmt 0 discriminator 2 view .LVU564
 2216 0012 38BD     		pop	{r3, r4, r5, pc}
 2217              	.LVL175:
 2218              	.L162:
 2219              		.loc 1 987 2 is_stmt 1 view .LVU565
 2220              	.LBB75:
 2221              	.LBI75:
 2222              		.loc 2 191 30 view .LVU566
 2223              	.LBB76:
 2224              		.loc 2 193 1 view .LVU567
 2225              		.loc 2 195 2 view .LVU568
 2226              		.syntax unified
 2227              	@ 195 "Middlewares/Third_Party/FreeRTOS/Source/portable/GCC/ARM_CM3/portmacro.h" 1
 2228 0014 4FF05003 			mov r3, #80												
 2229 0018 83F31188 		msr basepri, r3											
 2230 001c BFF36F8F 		isb														
 2231 0020 BFF34F8F 		dsb														
 2232              	
 2233              	@ 0 "" 2
 2234              	.LVL176:
 2235              		.thumb
 2236              		.syntax unified
 2237              	.L160:
 2238              		.loc 2 195 2 is_stmt 0 view .LVU569
 2239              	.LBE76:
 2240              	.LBE75:
 2241              		.loc 1 987 2 is_stmt 1 discriminator 1 view .LVU570
 2242              		.loc 1 987 2 discriminator 1 view .LVU571
 2243              		.loc 1 987 2 discriminator 1 view .LVU572
 2244 0024 FEE7     		b	.L160
 2245              	.L164:
 2246 0026 00BF     		.align	2
 2247              	.L163:
 2248 0028 00000000 		.word	vPortEnterCritical
 2249 002c 00000000 		.word	vPortExitCritical
 2250              		.cfi_endproc
 2251              	.LFE24:
 2253              		.section	.text.xTimerPendFunctionCallFromISR,"ax",%progbits
 2254              		.align	1
 2255              		.global	xTimerPendFunctionCallFromISR
 2256              		.syntax unified
 2257              		.thumb
 2258              		.thumb_func
 2259              		.fpu softvfp
 2261              	xTimerPendFunctionCallFromISR:
 2262              	.LVL177:
ARM GAS  C:\Users\38164\AppData\Local\Temp\cciLFpIZ.s 			page 40


 2263              	.LFB25:
 2264              		.loc 1 1000 2 view -0
 2265              		.cfi_startproc
 2266              		@ args = 0, pretend = 0, frame = 16
 2267              		@ frame_needed = 0, uses_anonymous_args = 0
 2268              		.loc 1 1000 2 is_stmt 0 view .LVU574
 2269 0000 10B5     		push	{r4, lr}
 2270              	.LCFI44:
 2271              		.cfi_def_cfa_offset 8
 2272              		.cfi_offset 4, -8
 2273              		.cfi_offset 14, -4
 2274 0002 84B0     		sub	sp, sp, #16
 2275              	.LCFI45:
 2276              		.cfi_def_cfa_offset 24
 2277 0004 1446     		mov	r4, r2
 2278 0006 1A46     		mov	r2, r3
 2279              	.LVL178:
 2280              		.loc 1 1001 2 is_stmt 1 view .LVU575
 2281              		.loc 1 1002 2 view .LVU576
 2282              		.loc 1 1006 3 view .LVU577
 2283              		.loc 1 1006 23 is_stmt 0 view .LVU578
 2284 0008 6FF00103 		mvn	r3, #1
 2285              	.LVL179:
 2286              		.loc 1 1006 23 view .LVU579
 2287 000c 0093     		str	r3, [sp]
 2288              		.loc 1 1007 3 is_stmt 1 view .LVU580
 2289              		.loc 1 1007 53 is_stmt 0 view .LVU581
 2290 000e 0190     		str	r0, [sp, #4]
 2291              		.loc 1 1008 3 is_stmt 1 view .LVU582
 2292              		.loc 1 1008 47 is_stmt 0 view .LVU583
 2293 0010 0291     		str	r1, [sp, #8]
 2294              		.loc 1 1009 3 is_stmt 1 view .LVU584
 2295              		.loc 1 1009 47 is_stmt 0 view .LVU585
 2296 0012 0394     		str	r4, [sp, #12]
 2297              		.loc 1 1011 3 is_stmt 1 view .LVU586
 2298              		.loc 1 1011 13 is_stmt 0 view .LVU587
 2299 0014 0023     		movs	r3, #0
 2300 0016 6946     		mov	r1, sp
 2301              	.LVL180:
 2302              		.loc 1 1011 13 view .LVU588
 2303 0018 0248     		ldr	r0, .L167
 2304              	.LVL181:
 2305              		.loc 1 1011 13 view .LVU589
 2306 001a 0068     		ldr	r0, [r0]
 2307 001c 024C     		ldr	r4, .L167+4
 2308              	.LVL182:
 2309              		.loc 1 1011 13 view .LVU590
 2310 001e A047     		blx	r4
 2311              	.LVL183:
 2312              		.loc 1 1013 87 is_stmt 1 view .LVU591
 2313              		.loc 1 1015 3 view .LVU592
 2314              		.loc 1 1016 2 is_stmt 0 view .LVU593
 2315 0020 04B0     		add	sp, sp, #16
 2316              	.LCFI46:
 2317              		.cfi_def_cfa_offset 8
 2318              		@ sp needed
 2319 0022 10BD     		pop	{r4, pc}
ARM GAS  C:\Users\38164\AppData\Local\Temp\cciLFpIZ.s 			page 41


 2320              	.L168:
 2321              		.align	2
 2322              	.L167:
 2323 0024 00000000 		.word	.LANCHOR2
 2324 0028 00000000 		.word	xQueueGenericSendFromISR
 2325              		.cfi_endproc
 2326              	.LFE25:
 2328              		.section	.text.xTimerPendFunctionCall,"ax",%progbits
 2329              		.align	1
 2330              		.global	xTimerPendFunctionCall
 2331              		.syntax unified
 2332              		.thumb
 2333              		.thumb_func
 2334              		.fpu softvfp
 2336              	xTimerPendFunctionCall:
 2337              	.LVL184:
 2338              	.LFB26:
 2339              		.loc 1 1024 2 is_stmt 1 view -0
 2340              		.cfi_startproc
 2341              		@ args = 0, pretend = 0, frame = 16
 2342              		@ frame_needed = 0, uses_anonymous_args = 0
 2343              		.loc 1 1024 2 is_stmt 0 view .LVU595
 2344 0000 30B5     		push	{r4, r5, lr}
 2345              	.LCFI47:
 2346              		.cfi_def_cfa_offset 12
 2347              		.cfi_offset 4, -12
 2348              		.cfi_offset 5, -8
 2349              		.cfi_offset 14, -4
 2350 0002 85B0     		sub	sp, sp, #20
 2351              	.LCFI48:
 2352              		.cfi_def_cfa_offset 32
 2353 0004 0546     		mov	r5, r0
 2354 0006 0C46     		mov	r4, r1
 2355 0008 1146     		mov	r1, r2
 2356              	.LVL185:
 2357              		.loc 1 1024 2 view .LVU596
 2358 000a 1A46     		mov	r2, r3
 2359              	.LVL186:
 2360              		.loc 1 1025 2 is_stmt 1 view .LVU597
 2361              		.loc 1 1026 2 view .LVU598
 2362              		.loc 1 1031 3 view .LVU599
 2363 000c 0B4B     		ldr	r3, .L174
 2364              	.LVL187:
 2365              		.loc 1 1031 3 is_stmt 0 view .LVU600
 2366 000e 1868     		ldr	r0, [r3]
 2367              	.LVL188:
 2368              		.loc 1 1031 3 view .LVU601
 2369 0010 58B1     		cbz	r0, .L173
 2370              		.loc 1 1031 30 is_stmt 1 discriminator 2 view .LVU602
 2371              		.loc 1 1035 3 discriminator 2 view .LVU603
 2372              		.loc 1 1035 23 is_stmt 0 discriminator 2 view .LVU604
 2373 0012 4FF0FF33 		mov	r3, #-1
 2374 0016 0093     		str	r3, [sp]
 2375              		.loc 1 1036 3 is_stmt 1 discriminator 2 view .LVU605
 2376              		.loc 1 1036 53 is_stmt 0 discriminator 2 view .LVU606
 2377 0018 0195     		str	r5, [sp, #4]
 2378              		.loc 1 1037 3 is_stmt 1 discriminator 2 view .LVU607
ARM GAS  C:\Users\38164\AppData\Local\Temp\cciLFpIZ.s 			page 42


 2379              		.loc 1 1037 47 is_stmt 0 discriminator 2 view .LVU608
 2380 001a 0294     		str	r4, [sp, #8]
 2381              		.loc 1 1038 3 is_stmt 1 discriminator 2 view .LVU609
 2382              		.loc 1 1038 47 is_stmt 0 discriminator 2 view .LVU610
 2383 001c 0391     		str	r1, [sp, #12]
 2384              		.loc 1 1040 3 is_stmt 1 discriminator 2 view .LVU611
 2385              		.loc 1 1040 13 is_stmt 0 discriminator 2 view .LVU612
 2386 001e 0023     		movs	r3, #0
 2387 0020 6946     		mov	r1, sp
 2388              	.LVL189:
 2389              		.loc 1 1040 13 discriminator 2 view .LVU613
 2390 0022 074C     		ldr	r4, .L174+4
 2391              	.LVL190:
 2392              		.loc 1 1040 13 discriminator 2 view .LVU614
 2393 0024 A047     		blx	r4
 2394              	.LVL191:
 2395              		.loc 1 1042 78 is_stmt 1 discriminator 2 view .LVU615
 2396              		.loc 1 1044 3 discriminator 2 view .LVU616
 2397              		.loc 1 1045 2 is_stmt 0 discriminator 2 view .LVU617
 2398 0026 05B0     		add	sp, sp, #20
 2399              	.LCFI49:
 2400              		.cfi_remember_state
 2401              		.cfi_def_cfa_offset 12
 2402              		@ sp needed
 2403 0028 30BD     		pop	{r4, r5, pc}
 2404              	.LVL192:
 2405              	.L173:
 2406              	.LCFI50:
 2407              		.cfi_restore_state
 2408              		.loc 1 1031 3 is_stmt 1 view .LVU618
 2409              	.LBB77:
 2410              	.LBI77:
 2411              		.loc 2 191 30 view .LVU619
 2412              	.LBB78:
 2413              		.loc 2 193 1 view .LVU620
 2414              		.loc 2 195 2 view .LVU621
 2415              		.syntax unified
 2416              	@ 195 "Middlewares/Third_Party/FreeRTOS/Source/portable/GCC/ARM_CM3/portmacro.h" 1
 2417 002a 4FF05003 			mov r3, #80												
 2418 002e 83F31188 		msr basepri, r3											
 2419 0032 BFF36F8F 		isb														
 2420 0036 BFF34F8F 		dsb														
 2421              	
 2422              	@ 0 "" 2
 2423              	.LVL193:
 2424              		.thumb
 2425              		.syntax unified
 2426              	.L171:
 2427              		.loc 2 195 2 is_stmt 0 view .LVU622
 2428              	.LBE78:
 2429              	.LBE77:
 2430              		.loc 1 1031 3 is_stmt 1 discriminator 1 view .LVU623
 2431              		.loc 1 1031 3 discriminator 1 view .LVU624
 2432              		.loc 1 1031 3 discriminator 1 view .LVU625
 2433 003a FEE7     		b	.L171
 2434              	.L175:
 2435              		.align	2
ARM GAS  C:\Users\38164\AppData\Local\Temp\cciLFpIZ.s 			page 43


 2436              	.L174:
 2437 003c 00000000 		.word	.LANCHOR2
 2438 0040 00000000 		.word	xQueueGenericSend
 2439              		.cfi_endproc
 2440              	.LFE26:
 2442              		.section	.text.uxTimerGetTimerNumber,"ax",%progbits
 2443              		.align	1
 2444              		.global	uxTimerGetTimerNumber
 2445              		.syntax unified
 2446              		.thumb
 2447              		.thumb_func
 2448              		.fpu softvfp
 2450              	uxTimerGetTimerNumber:
 2451              	.LVL194:
 2452              	.LFB27:
 2453              		.loc 1 1053 2 view -0
 2454              		.cfi_startproc
 2455              		@ args = 0, pretend = 0, frame = 0
 2456              		@ frame_needed = 0, uses_anonymous_args = 0
 2457              		@ link register save eliminated.
 2458              		.loc 1 1054 3 view .LVU627
 2459              		.loc 1 1055 2 is_stmt 0 view .LVU628
 2460 0000 806A     		ldr	r0, [r0, #40]
 2461              	.LVL195:
 2462              		.loc 1 1055 2 view .LVU629
 2463 0002 7047     		bx	lr
 2464              		.cfi_endproc
 2465              	.LFE27:
 2467              		.section	.text.vTimerSetTimerNumber,"ax",%progbits
 2468              		.align	1
 2469              		.global	vTimerSetTimerNumber
 2470              		.syntax unified
 2471              		.thumb
 2472              		.thumb_func
 2473              		.fpu softvfp
 2475              	vTimerSetTimerNumber:
 2476              	.LVL196:
 2477              	.LFB28:
 2478              		.loc 1 1063 2 is_stmt 1 view -0
 2479              		.cfi_startproc
 2480              		@ args = 0, pretend = 0, frame = 0
 2481              		@ frame_needed = 0, uses_anonymous_args = 0
 2482              		@ link register save eliminated.
 2483              		.loc 1 1064 3 view .LVU631
 2484              		.loc 1 1064 43 is_stmt 0 view .LVU632
 2485 0000 8162     		str	r1, [r0, #40]
 2486              		.loc 1 1065 2 view .LVU633
 2487 0002 7047     		bx	lr
 2488              		.cfi_endproc
 2489              	.LFE28:
 2491              		.section	.bss.pxCurrentTimerList,"aw",%nobits
 2492              		.align	2
 2493              		.set	.LANCHOR0,. + 0
 2496              	pxCurrentTimerList:
 2497 0000 00000000 		.space	4
 2498              		.section	.bss.pxOverflowTimerList,"aw",%nobits
 2499              		.align	2
ARM GAS  C:\Users\38164\AppData\Local\Temp\cciLFpIZ.s 			page 44


 2500              		.set	.LANCHOR1,. + 0
 2503              	pxOverflowTimerList:
 2504 0000 00000000 		.space	4
 2505              		.section	.bss.ucStaticTimerQueueStorage.5559,"aw",%nobits
 2506              		.align	2
 2507              		.set	.LANCHOR6,. + 0
 2510              	ucStaticTimerQueueStorage.5559:
 2511 0000 00000000 		.space	160
 2511      00000000 
 2511      00000000 
 2511      00000000 
 2511      00000000 
 2512              		.section	.bss.xActiveTimerList1,"aw",%nobits
 2513              		.align	2
 2514              		.set	.LANCHOR3,. + 0
 2517              	xActiveTimerList1:
 2518 0000 00000000 		.space	20
 2518      00000000 
 2518      00000000 
 2518      00000000 
 2518      00000000 
 2519              		.section	.bss.xActiveTimerList2,"aw",%nobits
 2520              		.align	2
 2521              		.set	.LANCHOR4,. + 0
 2524              	xActiveTimerList2:
 2525 0000 00000000 		.space	20
 2525      00000000 
 2525      00000000 
 2525      00000000 
 2525      00000000 
 2526              		.section	.bss.xLastTime.5508,"aw",%nobits
 2527              		.align	2
 2528              		.set	.LANCHOR8,. + 0
 2531              	xLastTime.5508:
 2532 0000 00000000 		.space	4
 2533              		.section	.bss.xStaticTimerQueue.5558,"aw",%nobits
 2534              		.align	2
 2535              		.set	.LANCHOR5,. + 0
 2538              	xStaticTimerQueue.5558:
 2539 0000 00000000 		.space	80
 2539      00000000 
 2539      00000000 
 2539      00000000 
 2539      00000000 
 2540              		.section	.bss.xTimerQueue,"aw",%nobits
 2541              		.align	2
 2542              		.set	.LANCHOR2,. + 0
 2545              	xTimerQueue:
 2546 0000 00000000 		.space	4
 2547              		.section	.bss.xTimerTaskHandle,"aw",%nobits
 2548              		.align	2
 2549              		.set	.LANCHOR7,. + 0
 2552              	xTimerTaskHandle:
 2553 0000 00000000 		.space	4
 2554              		.text
 2555              	.Letext0:
 2556              		.file 3 "../c:\\users\\38164\\onedrive\\desktop\\gnu mcu\\arm-none-eabi-gcc-9.3.1-1.1\\lib\\gcc\\a
ARM GAS  C:\Users\38164\AppData\Local\Temp\cciLFpIZ.s 			page 45


 2557              		.file 4 "../c:\\users\\38164\\onedrive\\desktop\\gnu mcu\\arm-none-eabi-gcc-9.3.1-1.1\\arm-none-ea
 2558              		.file 5 "../c:\\users\\38164\\onedrive\\desktop\\gnu mcu\\arm-none-eabi-gcc-9.3.1-1.1\\arm-none-ea
 2559              		.file 6 "../c:\\users\\38164\\onedrive\\desktop\\gnu mcu\\arm-none-eabi-gcc-9.3.1-1.1\\arm-none-ea
 2560              		.file 7 "../c:\\users\\38164\\onedrive\\desktop\\gnu mcu\\arm-none-eabi-gcc-9.3.1-1.1\\arm-none-ea
 2561              		.file 8 "../c:\\users\\38164\\onedrive\\desktop\\gnu mcu\\arm-none-eabi-gcc-9.3.1-1.1\\arm-none-ea
 2562              		.file 9 "../c:\\users\\38164\\onedrive\\desktop\\gnu mcu\\arm-none-eabi-gcc-9.3.1-1.1\\arm-none-ea
 2563              		.file 10 "../Core/Inc/FreeRTOSConfig.h"
 2564              		.file 11 "../Middlewares/Third_Party/FreeRTOS/Source/include/FreeRTOS.h"
 2565              		.file 12 "../Middlewares/Third_Party/FreeRTOS/Source/include/list.h"
 2566              		.file 13 "../Middlewares/Third_Party/FreeRTOS/Source/include/task.h"
 2567              		.file 14 "../Middlewares/Third_Party/FreeRTOS/Source/include/queue.h"
 2568              		.file 15 "../Middlewares/Third_Party/FreeRTOS/Source/include/timers.h"
 2569              		.file 16 "../Middlewares/Third_Party/FreeRTOS/Source/include/portable.h"
ARM GAS  C:\Users\38164\AppData\Local\Temp\cciLFpIZ.s 			page 46

